---
triple:          'arm64-apple-darwin'
binary-path:     '/Users/shiqing/Desktop/High-Order-Diff-Opt/test_cpp/test_eigen'
relocations:
  - { offsetInCU: 0x44, offset: 0x44, size: 0x8, addend: 0x0, symName: __ZN5EigenL4lastE, symObjAddr: 0x33BEC, symBinAddr: 0x10000C000, symSize: 0x0 }
  - { offsetInCU: 0x96A, offset: 0x96A, size: 0x8, addend: 0x0, symName: __ZN5Eigen8internal31conditional_aligned_delete_autoIdLb1EEEvPT_m, symObjAddr: 0x710, symBinAddr: 0x100004970, symSize: 0x28 }
  - { offsetInCU: 0x9B6, offset: 0x9B6, size: 0x8, addend: 0x0, symName: __ZN5Eigen8internal24conditional_aligned_freeILb1EEEvPv, symObjAddr: 0x744, symBinAddr: 0x1000049A4, symSize: 0x24 }
  - { offsetInCU: 0x9EA, offset: 0x9EA, size: 0x8, addend: 0x0, symName: __ZN5Eigen8internal12aligned_freeEPv, symObjAddr: 0x768, symBinAddr: 0x1000049C8, symSize: 0x24 }
  - { offsetInCU: 0xA76, offset: 0xA76, size: 0x8, addend: 0x0, symName: __ZN5Eigen8internal19throw_std_bad_allocEv, symObjAddr: 0xBE8, symBinAddr: 0x100004E48, symSize: 0x34 }
  - { offsetInCU: 0xAB2, offset: 0xAB2, size: 0x8, addend: 0x0, symName: __ZN5Eigen8internal28conditional_aligned_new_autoIdLb1EEEPT_m, symObjAddr: 0xC1C, symBinAddr: 0x100004E7C, symSize: 0x84 }
  - { offsetInCU: 0xB20, offset: 0xB20, size: 0x8, addend: 0x0, symName: __ZN5Eigen8internal26conditional_aligned_mallocILb1EEEPvm, symObjAddr: 0xCA0, symBinAddr: 0x100004F00, symSize: 0x24 }
  - { offsetInCU: 0xB56, offset: 0xB56, size: 0x8, addend: 0x0, symName: __ZN5Eigen8internal14aligned_mallocEm, symObjAddr: 0xCC4, symBinAddr: 0x100004F24, symSize: 0xDC }
  - { offsetInCU: 0xB97, offset: 0xB97, size: 0x8, addend: 0x0, symName: __ZN5Eigen8internal28check_that_malloc_is_allowedEv, symObjAddr: 0xDA0, symBinAddr: 0x100005000, symSize: 0x4 }
  - { offsetInCU: 0xBB0, offset: 0xBB0, size: 0x8, addend: 0x0, symName: __ZN5Eigen8internal12print_matrixINS_6MatrixIdLin1ELin1ELi0ELin1ELin1EEEEERNSt3__113basic_ostreamIcNS4_11char_traitsIcEEEES9_RKT_RKNS_8IOFormatE, symObjAddr: 0x1250, symBinAddr: 0x1000054B0, symSize: 0x580 }
  - { offsetInCU: 0xDA2, offset: 0xDA2, size: 0x8, addend: 0x0, symName: __ZN5EigenL6lastp1E, symObjAddr: 0x33BED, symBinAddr: 0x10000C001, symSize: 0x0 }
  - { offsetInCU: 0xDBB, offset: 0xDBB, size: 0x8, addend: 0x0, symName: __ZN5EigenL3allE, symObjAddr: 0x33BF0, symBinAddr: 0x10000C004, symSize: 0x0 }
  - { offsetInCU: 0xDD4, offset: 0xDD4, size: 0x8, addend: 0x0, symName: __ZN5EigenL3fixILi1EEE, symObjAddr: 0x33BEF, symBinAddr: 0x10000C003, symSize: 0x0 }
  - { offsetInCU: 0x35D5, offset: 0x35D5, size: 0x8, addend: 0x0, symName: __ZN5EigenlsINS_6MatrixIdLin1ELin1ELi0ELin1ELin1EEEEERNSt3__113basic_ostreamIcNS3_11char_traitsIcEEEES8_RKNS_9DenseBaseIT_EE, symObjAddr: 0x350, symBinAddr: 0x1000045B0, symSize: 0x208 }
  - { offsetInCU: 0x71CC, offset: 0x71CC, size: 0x8, addend: 0x0, symName: __ZNSt3__124__put_character_sequenceB8ue170006IcNS_11char_traitsIcEEEERNS_13basic_ostreamIT_T0_EES7_PKS4_m, symObjAddr: 0x1CF8, symBinAddr: 0x100005F58, symSize: 0x1EC }
  - { offsetInCU: 0x8B32, offset: 0x8B32, size: 0x8, addend: 0x0, symName: __ZNSt3__14endlB8ue170006IcNS_11char_traitsIcEEEERNS_13basic_ostreamIT_T0_EES7_, symObjAddr: 0x584, symBinAddr: 0x1000047E4, symSize: 0x58 }
  - { offsetInCU: 0x8B72, offset: 0x8B72, size: 0x8, addend: 0x0, symName: __ZNSt3__1lsB8ue170006IcNS_11char_traitsIcEENS_9allocatorIcEEEERNS_13basic_ostreamIT_T0_EES9_RKNS_12basic_stringIS6_S7_T1_EE, symObjAddr: 0x1920, symBinAddr: 0x100005B80, symSize: 0x4C }
  - { offsetInCU: 0x9506, offset: 0x9506, size: 0x8, addend: 0x0, symName: __ZNSt3__13maxB8ue170006IlEERKT_S3_S3_, symObjAddr: 0x1B1C, symBinAddr: 0x100005D7C, symSize: 0x2C }
  - { offsetInCU: 0x9554, offset: 0x9554, size: 0x8, addend: 0x0, symName: __ZNSt3__116__pad_and_outputB8ue170006IcNS_11char_traitsIcEEEENS_19ostreambuf_iteratorIT_T0_EES6_PKS4_S8_S8_RNS_8ios_baseES4_, symObjAddr: 0x1F7C, symBinAddr: 0x1000061DC, symSize: 0x240 }
  - { offsetInCU: 0x9623, offset: 0x9623, size: 0x8, addend: 0x0, symName: __ZNSt3__112__to_addressB8ue170006IKcEEPT_S3_, symObjAddr: 0x24D8, symBinAddr: 0x100006738, symSize: 0x14 }
  - { offsetInCU: 0x968B, offset: 0x968B, size: 0x8, addend: 0x0, symName: __ZNSt3__13maxB8ue170006IlNS_6__lessIvvEEEERKT_S5_S5_T0_, symObjAddr: 0x2A04, symBinAddr: 0x100006C64, symSize: 0x54 }
  - { offsetInCU: 0x972A, offset: 0x972A, size: 0x8, addend: 0x0, symName: __ZNSt3__19use_facetB8ue170006INS_5ctypeIcEEEERKT_RKNS_6localeE, symObjAddr: 0x2C5C, symBinAddr: 0x100006EBC, symSize: 0x2C }
  - { offsetInCU: 0x9BF7, offset: 0x9BF7, size: 0x8, addend: 0x0, symName: __ZNSt3__118__constexpr_strlenB8ue170006EPKc, symObjAddr: 0x2D4C, symBinAddr: 0x100006FAC, symSize: 0x24 }
  - { offsetInCU: 0xC7B8, offset: 0xC7B8, size: 0x8, addend: 0x0, symName: __ZN5Eigen8symbolic10SymbolExprINS_8internal17symbolic_last_tagEEC1Ev, symObjAddr: 0x0, symBinAddr: 0x100004260, symSize: 0x2C }
  - { offsetInCU: 0xC7E2, offset: 0xC7E2, size: 0x8, addend: 0x0, symName: __ZNK5Eigen8symbolic8BaseExprINS0_10SymbolExprINS_8internal17symbolic_last_tagEEEEplILi1EEENS0_7AddExprIS5_NS0_9ValueExprINS3_8FixedIntIXT_EEEEEEESB_, symObjAddr: 0x2C, symBinAddr: 0x10000428C, symSize: 0x48 }
  - { offsetInCU: 0xC81D, offset: 0xC81D, size: 0x8, addend: 0x0, symName: __ZNK5Eigen8internal8FixedIntILi1EEclEv, symObjAddr: 0x74, symBinAddr: 0x1000042D4, symSize: 0x10 }
  - { offsetInCU: 0xC843, offset: 0xC843, size: 0x8, addend: 0x0, symName: __ZN5Eigen8internal5all_tC1Ev, symObjAddr: 0x84, symBinAddr: 0x1000042E4, symSize: 0x2C }
  - { offsetInCU: 0xC86D, offset: 0xC86D, size: 0x8, addend: 0x0, symName: _main, symObjAddr: 0xB0, symBinAddr: 0x100004310, symSize: 0x170 }
  - { offsetInCU: 0xC89B, offset: 0xC89B, size: 0x8, addend: 0x0, symName: __ZN5Eigen6MatrixIdLin1ELin1ELi0ELin1ELin1EEC1IiiEERKT_RKT0_, symObjAddr: 0x220, symBinAddr: 0x100004480, symSize: 0x3C }
  - { offsetInCU: 0xC8F5, offset: 0xC8F5, size: 0x8, addend: 0x0, symName: __ZN5Eigen15DenseCoeffsBaseINS_6MatrixIdLin1ELin1ELi0ELin1ELin1EEELi1EEclEll, symObjAddr: 0x25C, symBinAddr: 0x1000044BC, symSize: 0xF4 }
  - { offsetInCU: 0xC939, offset: 0xC939, size: 0x8, addend: 0x0, symName: __ZNSt3__113basic_ostreamIcNS_11char_traitsIcEEElsB8ue170006EPFRS3_S4_E, symObjAddr: 0x558, symBinAddr: 0x1000047B8, symSize: 0x2C }
  - { offsetInCU: 0xC96D, offset: 0xC96D, size: 0x8, addend: 0x0, symName: __ZN5Eigen6MatrixIdLin1ELin1ELi0ELin1ELin1EED1Ev, symObjAddr: 0x5DC, symBinAddr: 0x10000483C, symSize: 0x2C }
  - { offsetInCU: 0xC999, offset: 0xC999, size: 0x8, addend: 0x0, symName: __ZN5Eigen8internal8FixedIntILi1EEC1Ev, symObjAddr: 0x608, symBinAddr: 0x100004868, symSize: 0x2C }
  - { offsetInCU: 0xC9C3, offset: 0xC9C3, size: 0x8, addend: 0x0, symName: __ZN5Eigen8internal5all_tC2Ev, symObjAddr: 0x634, symBinAddr: 0x100004894, symSize: 0x14 }
  - { offsetInCU: 0xC9ED, offset: 0xC9ED, size: 0x8, addend: 0x0, symName: __ZN5Eigen6MatrixIdLin1ELin1ELi0ELin1ELin1EED2Ev, symObjAddr: 0x648, symBinAddr: 0x1000048A8, symSize: 0x2C }
  - { offsetInCU: 0xCA19, offset: 0xCA19, size: 0x8, addend: 0x0, symName: __ZN5Eigen15PlainObjectBaseINS_6MatrixIdLin1ELin1ELi0ELin1ELin1EEEED2Ev, symObjAddr: 0x674, symBinAddr: 0x1000048D4, symSize: 0x2C }
  - { offsetInCU: 0xCA45, offset: 0xCA45, size: 0x8, addend: 0x0, symName: __ZN5Eigen12DenseStorageIdLin1ELin1ELin1ELi0EED1Ev, symObjAddr: 0x6A0, symBinAddr: 0x100004900, symSize: 0x2C }
  - { offsetInCU: 0xCA6F, offset: 0xCA6F, size: 0x8, addend: 0x0, symName: __ZN5Eigen12DenseStorageIdLin1ELin1ELin1ELi0EED2Ev, symObjAddr: 0x6CC, symBinAddr: 0x10000492C, symSize: 0x44 }
  - { offsetInCU: 0xCA99, offset: 0xCA99, size: 0x8, addend: 0x0, symName: __ZN5Eigen8symbolic10SymbolExprINS_8internal17symbolic_last_tagEEC2Ev, symObjAddr: 0x78C, symBinAddr: 0x1000049EC, symSize: 0x14 }
  - { offsetInCU: 0xCAC3, offset: 0xCAC3, size: 0x8, addend: 0x0, symName: __ZN5Eigen8internal8FixedIntILi1EEC2Ev, symObjAddr: 0x7A0, symBinAddr: 0x100004A00, symSize: 0x14 }
  - { offsetInCU: 0xCAED, offset: 0xCAED, size: 0x8, addend: 0x0, symName: __ZNK5Eigen8symbolic8BaseExprINS0_10SymbolExprINS_8internal17symbolic_last_tagEEEE7derivedEv, symObjAddr: 0x7B4, symBinAddr: 0x100004A14, symSize: 0x14 }
  - { offsetInCU: 0xCB13, offset: 0xCB13, size: 0x8, addend: 0x0, symName: __ZN5Eigen8symbolic9ValueExprINS_8internal8FixedIntILi1EEEEC1Ev, symObjAddr: 0x7C8, symBinAddr: 0x100004A28, symSize: 0x2C }
  - { offsetInCU: 0xCB3D, offset: 0xCB3D, size: 0x8, addend: 0x0, symName: __ZN5Eigen8symbolic7AddExprINS0_10SymbolExprINS_8internal17symbolic_last_tagEEENS0_9ValueExprINS3_8FixedIntILi1EEEEEEC1ERKS5_RKS9_, symObjAddr: 0x7F4, symBinAddr: 0x100004A54, symSize: 0x3C }
  - { offsetInCU: 0xCB83, offset: 0xCB83, size: 0x8, addend: 0x0, symName: __ZN5Eigen8symbolic9ValueExprINS_8internal8FixedIntILi1EEEEC2Ev, symObjAddr: 0x830, symBinAddr: 0x100004A90, symSize: 0x14 }
  - { offsetInCU: 0xCBAD, offset: 0xCBAD, size: 0x8, addend: 0x0, symName: __ZN5Eigen8symbolic7AddExprINS0_10SymbolExprINS_8internal17symbolic_last_tagEEENS0_9ValueExprINS3_8FixedIntILi1EEEEEEC2ERKS5_RKS9_, symObjAddr: 0x844, symBinAddr: 0x100004AA4, symSize: 0x1C }
  - { offsetInCU: 0xCBF3, offset: 0xCBF3, size: 0x8, addend: 0x0, symName: __ZN5Eigen6MatrixIdLin1ELin1ELi0ELin1ELin1EEC2IiiEERKT_RKT0_, symObjAddr: 0x860, symBinAddr: 0x100004AC0, symSize: 0x80 }
  - { offsetInCU: 0xCC4D, offset: 0xCC4D, size: 0x8, addend: 0x0, symName: __ZN5Eigen15PlainObjectBaseINS_6MatrixIdLin1ELin1ELi0ELin1ELin1EEEEC2Ev, symObjAddr: 0x8E0, symBinAddr: 0x100004B40, symSize: 0x34 }
  - { offsetInCU: 0xCC77, offset: 0xCC77, size: 0x8, addend: 0x0, symName: __ZN5Eigen15PlainObjectBaseINS_6MatrixIdLin1ELin1ELi0ELin1ELin1EEEE22_check_template_paramsEv, symObjAddr: 0x914, symBinAddr: 0x100004B74, symSize: 0x4 }
  - { offsetInCU: 0xCC90, offset: 0xCC90, size: 0x8, addend: 0x0, symName: __ZN5Eigen15PlainObjectBaseINS_6MatrixIdLin1ELin1ELi0ELin1ELin1EEEE6_init2IiiEEvllPNS_8internal9enable_ifILb1ET_E4typeE, symObjAddr: 0x918, symBinAddr: 0x100004B78, symSize: 0x44 }
  - { offsetInCU: 0xCD10, offset: 0xCD10, size: 0x8, addend: 0x0, symName: __ZN5Eigen10MatrixBaseINS_6MatrixIdLin1ELin1ELi0ELin1ELin1EEEEC2Ev, symObjAddr: 0x95C, symBinAddr: 0x100004BBC, symSize: 0x2C }
  - { offsetInCU: 0xCD3A, offset: 0xCD3A, size: 0x8, addend: 0x0, symName: __ZN5Eigen12DenseStorageIdLin1ELin1ELin1ELi0EEC1Ev, symObjAddr: 0x988, symBinAddr: 0x100004BE8, symSize: 0x2C }
  - { offsetInCU: 0xCD64, offset: 0xCD64, size: 0x8, addend: 0x0, symName: __ZN5Eigen9DenseBaseINS_6MatrixIdLin1ELin1ELi0ELin1ELin1EEEEC2Ev, symObjAddr: 0x9B4, symBinAddr: 0x100004C14, symSize: 0x14 }
  - { offsetInCU: 0xCD8E, offset: 0xCD8E, size: 0x8, addend: 0x0, symName: __ZN5Eigen12DenseStorageIdLin1ELin1ELin1ELi0EEC2Ev, symObjAddr: 0x9C8, symBinAddr: 0x100004C28, symSize: 0x20 }
  - { offsetInCU: 0xCDF9, offset: 0xCDF9, size: 0x8, addend: 0x0, symName: __ZN5Eigen15PlainObjectBaseINS_6MatrixIdLin1ELin1ELi0ELin1ELin1EEEE6resizeEll, symObjAddr: 0x9E8, symBinAddr: 0x100004C48, symSize: 0x14C }
  - { offsetInCU: 0xCE75, offset: 0xCE75, size: 0x8, addend: 0x0, symName: __ZN5Eigen12DenseStorageIdLin1ELin1ELin1ELi0EE6resizeElll, symObjAddr: 0xB34, symBinAddr: 0x100004D94, symSize: 0xB4 }
  - { offsetInCU: 0xCEC8, offset: 0xCEC8, size: 0x8, addend: 0x0, symName: __ZNK5Eigen9EigenBaseINS_6MatrixIdLin1ELin1ELi0ELin1ELin1EEEE4rowsEv, symObjAddr: 0xDA4, symBinAddr: 0x100005004, symSize: 0x38 }
  - { offsetInCU: 0xCEEE, offset: 0xCEEE, size: 0x8, addend: 0x0, symName: __ZNK5Eigen9EigenBaseINS_6MatrixIdLin1ELin1ELi0ELin1ELin1EEEE4colsEv, symObjAddr: 0xDDC, symBinAddr: 0x10000503C, symSize: 0x28 }
  - { offsetInCU: 0xCF14, offset: 0xCF14, size: 0x8, addend: 0x0, symName: __ZN5Eigen15DenseCoeffsBaseINS_6MatrixIdLin1ELin1ELi0ELin1ELin1EEELi1EE8coeffRefEll, symObjAddr: 0xE04, symBinAddr: 0x100005064, symSize: 0x80 }
  - { offsetInCU: 0xCF58, offset: 0xCF58, size: 0x8, addend: 0x0, symName: __ZNK5Eigen9EigenBaseINS_6MatrixIdLin1ELin1ELi0ELin1ELin1EEEE7derivedEv, symObjAddr: 0xE84, symBinAddr: 0x1000050E4, symSize: 0x14 }
  - { offsetInCU: 0xCF7E, offset: 0xCF7E, size: 0x8, addend: 0x0, symName: __ZNK5Eigen15PlainObjectBaseINS_6MatrixIdLin1ELin1ELi0ELin1ELin1EEEE4rowsEv, symObjAddr: 0xE98, symBinAddr: 0x1000050F8, symSize: 0x24 }
  - { offsetInCU: 0xCFA4, offset: 0xCFA4, size: 0x8, addend: 0x0, symName: __ZNK5Eigen12DenseStorageIdLin1ELin1ELin1ELi0EE4rowsEv, symObjAddr: 0xEBC, symBinAddr: 0x10000511C, symSize: 0x18 }
  - { offsetInCU: 0xCFCA, offset: 0xCFCA, size: 0x8, addend: 0x0, symName: __ZNK5Eigen15PlainObjectBaseINS_6MatrixIdLin1ELin1ELi0ELin1ELin1EEEE4colsEv, symObjAddr: 0xED4, symBinAddr: 0x100005134, symSize: 0x24 }
  - { offsetInCU: 0xCFF0, offset: 0xCFF0, size: 0x8, addend: 0x0, symName: __ZNK5Eigen12DenseStorageIdLin1ELin1ELin1ELi0EE4colsEv, symObjAddr: 0xEF8, symBinAddr: 0x100005158, symSize: 0x18 }
  - { offsetInCU: 0xD016, offset: 0xD016, size: 0x8, addend: 0x0, symName: __ZN5Eigen9EigenBaseINS_6MatrixIdLin1ELin1ELi0ELin1ELin1EEEE7derivedEv, symObjAddr: 0xF10, symBinAddr: 0x100005170, symSize: 0x14 }
  - { offsetInCU: 0xD03C, offset: 0xD03C, size: 0x8, addend: 0x0, symName: __ZN5Eigen8internal9evaluatorINS_6MatrixIdLin1ELin1ELi0ELin1ELin1EEEEC1ERKS3_, symObjAddr: 0xF24, symBinAddr: 0x100005184, symSize: 0x34 }
  - { offsetInCU: 0xD075, offset: 0xD075, size: 0x8, addend: 0x0, symName: __ZN5Eigen8internal9evaluatorINS_15PlainObjectBaseINS_6MatrixIdLin1ELin1ELi0ELin1ELin1EEEEEE8coeffRefEll, symObjAddr: 0xF58, symBinAddr: 0x1000051B8, symSize: 0x5C }
  - { offsetInCU: 0xD0B7, offset: 0xD0B7, size: 0x8, addend: 0x0, symName: __ZN5Eigen8internal9evaluatorINS_6MatrixIdLin1ELin1ELi0ELin1ELin1EEEED1Ev, symObjAddr: 0xFB4, symBinAddr: 0x100005214, symSize: 0x2C }
  - { offsetInCU: 0xD0E4, offset: 0xD0E4, size: 0x8, addend: 0x0, symName: __ZN5Eigen8internal9evaluatorINS_6MatrixIdLin1ELin1ELi0ELin1ELin1EEEEC2ERKS3_, symObjAddr: 0xFE0, symBinAddr: 0x100005240, symSize: 0x34 }
  - { offsetInCU: 0xD11D, offset: 0xD11D, size: 0x8, addend: 0x0, symName: __ZN5Eigen8internal9evaluatorINS_15PlainObjectBaseINS_6MatrixIdLin1ELin1ELi0ELin1ELin1EEEEEEC2ERKS5_, symObjAddr: 0x1014, symBinAddr: 0x100005274, symSize: 0x80 }
  - { offsetInCU: 0xD155, offset: 0xD155, size: 0x8, addend: 0x0, symName: __ZN5Eigen8internal14evaluator_baseINS_6MatrixIdLin1ELin1ELi0ELin1ELin1EEEEC2Ev, symObjAddr: 0x1094, symBinAddr: 0x1000052F4, symSize: 0x14 }
  - { offsetInCU: 0xD17F, offset: 0xD17F, size: 0x8, addend: 0x0, symName: __ZNK5Eigen15PlainObjectBaseINS_6MatrixIdLin1ELin1ELi0ELin1ELin1EEEE4dataEv, symObjAddr: 0x10A8, symBinAddr: 0x100005308, symSize: 0x24 }
  - { offsetInCU: 0xD1A5, offset: 0xD1A5, size: 0x8, addend: 0x0, symName: __ZNK5Eigen15DenseCoeffsBaseINS_6MatrixIdLin1ELin1ELi0ELin1ELin1EEELi3EE11outerStrideEv, symObjAddr: 0x10CC, symBinAddr: 0x10000532C, symSize: 0x28 }
  - { offsetInCU: 0xD1CB, offset: 0xD1CB, size: 0x8, addend: 0x0, symName: __ZN5Eigen8internal30plainobjectbase_evaluator_dataIdLin1EEC1EPKdl, symObjAddr: 0x10F4, symBinAddr: 0x100005354, symSize: 0x3C }
  - { offsetInCU: 0xD211, offset: 0xD211, size: 0x8, addend: 0x0, symName: __ZN5Eigen8internal14evaluator_baseINS_6MatrixIdLin1ELin1ELi0ELin1ELin1EEEED2Ev, symObjAddr: 0x1130, symBinAddr: 0x100005390, symSize: 0x14 }
  - { offsetInCU: 0xD23B, offset: 0xD23B, size: 0x8, addend: 0x0, symName: __ZNK5Eigen12DenseStorageIdLin1ELin1ELin1ELi0EE4dataEv, symObjAddr: 0x1144, symBinAddr: 0x1000053A4, symSize: 0x18 }
  - { offsetInCU: 0xD261, offset: 0xD261, size: 0x8, addend: 0x0, symName: __ZNK5Eigen6MatrixIdLin1ELin1ELi0ELin1ELin1EE11outerStrideEv, symObjAddr: 0x115C, symBinAddr: 0x1000053BC, symSize: 0x34 }
  - { offsetInCU: 0xD287, offset: 0xD287, size: 0x8, addend: 0x0, symName: __ZNK5Eigen9DenseBaseINS_6MatrixIdLin1ELin1ELi0ELin1ELin1EEEE9innerSizeEv, symObjAddr: 0x1190, symBinAddr: 0x1000053F0, symSize: 0x24 }
  - { offsetInCU: 0xD2AD, offset: 0xD2AD, size: 0x8, addend: 0x0, symName: __ZN5Eigen8internal30plainobjectbase_evaluator_dataIdLin1EEC2EPKdl, symObjAddr: 0x11B4, symBinAddr: 0x100005414, symSize: 0x2C }
  - { offsetInCU: 0xD2F3, offset: 0xD2F3, size: 0x8, addend: 0x0, symName: __ZNK5Eigen8internal30plainobjectbase_evaluator_dataIdLin1EE11outerStrideEv, symObjAddr: 0x11E0, symBinAddr: 0x100005440, symSize: 0x18 }
  - { offsetInCU: 0xD319, offset: 0xD319, size: 0x8, addend: 0x0, symName: __ZN5Eigen8internal9evaluatorINS_6MatrixIdLin1ELin1ELi0ELin1ELin1EEEED2Ev, symObjAddr: 0x11F8, symBinAddr: 0x100005458, symSize: 0x2C }
  - { offsetInCU: 0xD346, offset: 0xD346, size: 0x8, addend: 0x0, symName: __ZN5Eigen8internal9evaluatorINS_15PlainObjectBaseINS_6MatrixIdLin1ELin1ELi0ELin1ELin1EEEEEED2Ev, symObjAddr: 0x1224, symBinAddr: 0x100005484, symSize: 0x2C }
  - { offsetInCU: 0xD372, offset: 0xD372, size: 0x8, addend: 0x0, symName: __ZNK5Eigen9DenseBaseINS_6MatrixIdLin1ELin1ELi0ELin1ELin1EEEE4evalEv, symObjAddr: 0x17D0, symBinAddr: 0x100005A30, symSize: 0x24 }
  - { offsetInCU: 0xD39D, offset: 0xD39D, size: 0x8, addend: 0x0, symName: __ZNSt3__112basic_stringIcNS_11char_traitsIcEENS_9allocatorIcEEEC1B8ue170006ILi0EEEPKc, symObjAddr: 0x17F4, symBinAddr: 0x100005A54, symSize: 0x34 }
  - { offsetInCU: 0xD3DC, offset: 0xD3DC, size: 0x8, addend: 0x0, symName: __ZN5Eigen8IOFormatC1EiiRKNSt3__112basic_stringIcNS1_11char_traitsIcEENS1_9allocatorIcEEEES9_S9_S9_S9_S9_c, symObjAddr: 0x1828, symBinAddr: 0x100005A88, symSize: 0x88 }
  - { offsetInCU: 0xD484, offset: 0xD484, size: 0x8, addend: 0x0, symName: __ZN5Eigen8IOFormatD1Ev, symObjAddr: 0x18B0, symBinAddr: 0x100005B10, symSize: 0x2C }
  - { offsetInCU: 0xD4B0, offset: 0xD4B0, size: 0x8, addend: 0x0, symName: __ZNK5Eigen9EigenBaseINS_6MatrixIdLin1ELin1ELi0ELin1ELin1EEEE4sizeEv, symObjAddr: 0x18DC, symBinAddr: 0x100005B3C, symSize: 0x44 }
  - { offsetInCU: 0xD4D6, offset: 0xD4D6, size: 0x8, addend: 0x0, symName: __ZN5Eigen8internal25significant_decimals_implIdE3runEv, symObjAddr: 0x196C, symBinAddr: 0x100005BCC, symSize: 0x14 }
  - { offsetInCU: 0xD4EA, offset: 0xD4EA, size: 0x8, addend: 0x0, symName: __ZNSt3__18ios_base9precisionB8ue170006El, symObjAddr: 0x1980, symBinAddr: 0x100005BE0, symSize: 0x2C }
  - { offsetInCU: 0xD5FE, offset: 0xD5FE, size: 0x8, addend: 0x0, symName: __ZNSt3__118basic_stringstreamIcNS_11char_traitsIcEENS_9allocatorIcEEEC1B8ue170006Ev, symObjAddr: 0x19AC, symBinAddr: 0x100005C0C, symSize: 0x104 }
  - { offsetInCU: 0xD628, offset: 0xD628, size: 0x8, addend: 0x0, symName: __ZNK5Eigen15PlainObjectBaseINS_6MatrixIdLin1ELin1ELi0ELin1ELin1EEEE5coeffEll, symObjAddr: 0x1AB0, symBinAddr: 0x100005D10, symSize: 0x6C }
  - { offsetInCU: 0xD66A, offset: 0xD66A, size: 0x8, addend: 0x0, symName: __ZNKSt3__118basic_stringstreamIcNS_11char_traitsIcEENS_9allocatorIcEEE3strB8ue170006Ev, symObjAddr: 0x1B48, symBinAddr: 0x100005DA8, symSize: 0x30 }
  - { offsetInCU: 0xD690, offset: 0xD690, size: 0x8, addend: 0x0, symName: __ZNKSt3__112basic_stringIcNS_11char_traitsIcEENS_9allocatorIcEEE6lengthB8ue170006Ev, symObjAddr: 0x1B78, symBinAddr: 0x100005DD8, symSize: 0x24 }
  - { offsetInCU: 0xD6BB, offset: 0xD6BB, size: 0x8, addend: 0x0, symName: __ZNSt3__118basic_stringstreamIcNS_11char_traitsIcEENS_9allocatorIcEEED1Ev, symObjAddr: 0x1B9C, symBinAddr: 0x100005DFC, symSize: 0x40 }
  - { offsetInCU: 0xD6E8, offset: 0xD6E8, size: 0x8, addend: 0x0, symName: __ZNKSt3__18ios_base5widthB8ue170006Ev, symObjAddr: 0x1BDC, symBinAddr: 0x100005E3C, symSize: 0x18 }
  - { offsetInCU: 0xD710, offset: 0xD710, size: 0x8, addend: 0x0, symName: __ZNKSt3__19basic_iosIcNS_11char_traitsIcEEE4fillB8ue170006Ev, symObjAddr: 0x1BF4, symBinAddr: 0x100005E54, symSize: 0x64 }
  - { offsetInCU: 0xD738, offset: 0xD738, size: 0x8, addend: 0x0, symName: __ZNSt3__19basic_iosIcNS_11char_traitsIcEEE4fillB8ue170006Ec, symObjAddr: 0x1C58, symBinAddr: 0x100005EB8, symSize: 0x74 }
  - { offsetInCU: 0xD77E, offset: 0xD77E, size: 0x8, addend: 0x0, symName: __ZNSt3__18ios_base5widthB8ue170006El, symObjAddr: 0x1CCC, symBinAddr: 0x100005F2C, symSize: 0x2C }
  - { offsetInCU: 0xD7C4, offset: 0xD7C4, size: 0x8, addend: 0x0, symName: __ZNKSt3__112basic_stringIcNS_11char_traitsIcEENS_9allocatorIcEEE4dataB8ue170006Ev, symObjAddr: 0x1EE4, symBinAddr: 0x100006144, symSize: 0x28 }
  - { offsetInCU: 0xD7EA, offset: 0xD7EA, size: 0x8, addend: 0x0, symName: __ZNKSt3__112basic_stringIcNS_11char_traitsIcEENS_9allocatorIcEEE4sizeB8ue170006Ev, symObjAddr: 0x1F0C, symBinAddr: 0x10000616C, symSize: 0x54 }
  - { offsetInCU: 0xD82E, offset: 0xD82E, size: 0x8, addend: 0x0, symName: __ZNKSt3__113basic_ostreamIcNS_11char_traitsIcEEE6sentrycvbB8ue170006Ev, symObjAddr: 0x1F60, symBinAddr: 0x1000061C0, symSize: 0x1C }
  - { offsetInCU: 0xD854, offset: 0xD854, size: 0x8, addend: 0x0, symName: __ZNSt3__119ostreambuf_iteratorIcNS_11char_traitsIcEEEC1B8ue170006ERNS_13basic_ostreamIcS2_EE, symObjAddr: 0x21BC, symBinAddr: 0x10000641C, symSize: 0x34 }
  - { offsetInCU: 0xD88C, offset: 0xD88C, size: 0x8, addend: 0x0, symName: __ZNKSt3__18ios_base5flagsB8ue170006Ev, symObjAddr: 0x21F0, symBinAddr: 0x100006450, symSize: 0x18 }
  - { offsetInCU: 0xD8B4, offset: 0xD8B4, size: 0x8, addend: 0x0, symName: __ZNKSt3__119ostreambuf_iteratorIcNS_11char_traitsIcEEE6failedB8ue170006Ev, symObjAddr: 0x2208, symBinAddr: 0x100006468, symSize: 0x24 }
  - { offsetInCU: 0xD8DA, offset: 0xD8DA, size: 0x8, addend: 0x0, symName: __ZNSt3__19basic_iosIcNS_11char_traitsIcEEE8setstateB8ue170006Ej, symObjAddr: 0x222C, symBinAddr: 0x10000648C, symSize: 0x2C }
  - { offsetInCU: 0xD90F, offset: 0xD90F, size: 0x8, addend: 0x0, symName: __ZNSt3__115basic_streambufIcNS_11char_traitsIcEEE5sputnB8ue170006EPKcl, symObjAddr: 0x2258, symBinAddr: 0x1000064B8, symSize: 0x3C }
  - { offsetInCU: 0xD951, offset: 0xD951, size: 0x8, addend: 0x0, symName: __ZNSt3__112basic_stringIcNS_11char_traitsIcEENS_9allocatorIcEEEC1B8ue170006Emc, symObjAddr: 0x2294, symBinAddr: 0x1000064F4, symSize: 0x3C }
  - { offsetInCU: 0xD999, offset: 0xD999, size: 0x8, addend: 0x0, symName: __ZNSt3__112basic_stringIcNS_11char_traitsIcEENS_9allocatorIcEEEC2B8ue170006Emc, symObjAddr: 0x22D0, symBinAddr: 0x100006530, symSize: 0x4C }
  - { offsetInCU: 0xD9E6, offset: 0xD9E6, size: 0x8, addend: 0x0, symName: __ZNSt3__117__compressed_pairINS_12basic_stringIcNS_11char_traitsIcEENS_9allocatorIcEEE5__repES5_EC1B8ue170006INS_18__default_init_tagESA_EEOT_OT0_, symObjAddr: 0x231C, symBinAddr: 0x10000657C, symSize: 0x3C }
  - { offsetInCU: 0xDA3E, offset: 0xDA3E, size: 0x8, addend: 0x0, symName: __ZNSt3__117__compressed_pairINS_12basic_stringIcNS_11char_traitsIcEENS_9allocatorIcEEE5__repES5_EC2B8ue170006INS_18__default_init_tagESA_EEOT_OT0_, symObjAddr: 0x2358, symBinAddr: 0x1000065B8, symSize: 0x3C }
  - { offsetInCU: 0xDA96, offset: 0xDA96, size: 0x8, addend: 0x0, symName: __ZNSt3__122__compressed_pair_elemINS_12basic_stringIcNS_11char_traitsIcEENS_9allocatorIcEEE5__repELi0ELb0EEC2B8ue170006ENS_18__default_init_tagE, symObjAddr: 0x2394, symBinAddr: 0x1000065F4, symSize: 0x14 }
  - { offsetInCU: 0xDACB, offset: 0xDACB, size: 0x8, addend: 0x0, symName: __ZNSt3__122__compressed_pair_elemINS_9allocatorIcEELi1ELb1EEC2B8ue170006ENS_18__default_init_tagE, symObjAddr: 0x23A8, symBinAddr: 0x100006608, symSize: 0x2C }
  - { offsetInCU: 0xDB00, offset: 0xDB00, size: 0x8, addend: 0x0, symName: __ZNSt3__19allocatorIcEC2B8ue170006Ev, symObjAddr: 0x23D4, symBinAddr: 0x100006634, symSize: 0x2C }
  - { offsetInCU: 0xDB2A, offset: 0xDB2A, size: 0x8, addend: 0x0, symName: __ZNSt3__116__non_trivial_ifILb1ENS_9allocatorIcEEEC2B8ue170006Ev, symObjAddr: 0x2400, symBinAddr: 0x100006660, symSize: 0x14 }
  - { offsetInCU: 0xDB54, offset: 0xDB54, size: 0x8, addend: 0x0, symName: __ZNSt3__119ostreambuf_iteratorIcNS_11char_traitsIcEEEC2B8ue170006ERNS_13basic_ostreamIcS2_EE, symObjAddr: 0x2414, symBinAddr: 0x100006674, symSize: 0x54 }
  - { offsetInCU: 0xDB8C, offset: 0xDB8C, size: 0x8, addend: 0x0, symName: __ZNKSt3__19basic_iosIcNS_11char_traitsIcEEE5rdbufB8ue170006Ev, symObjAddr: 0x2468, symBinAddr: 0x1000066C8, symSize: 0x24 }
  - { offsetInCU: 0xDBB4, offset: 0xDBB4, size: 0x8, addend: 0x0, symName: __ZNKSt3__18ios_base5rdbufB8ue170006Ev, symObjAddr: 0x248C, symBinAddr: 0x1000066EC, symSize: 0x18 }
  - { offsetInCU: 0xDBDA, offset: 0xDBDA, size: 0x8, addend: 0x0, symName: __ZNSt3__18ios_base8setstateB8ue170006Ej, symObjAddr: 0x24A4, symBinAddr: 0x100006704, symSize: 0x34 }
  - { offsetInCU: 0xDC11, offset: 0xDC11, size: 0x8, addend: 0x0, symName: __ZNKSt3__112basic_stringIcNS_11char_traitsIcEENS_9allocatorIcEEE13__get_pointerB8ue170006Ev, symObjAddr: 0x24EC, symBinAddr: 0x10000674C, symSize: 0x54 }
  - { offsetInCU: 0xDC37, offset: 0xDC37, size: 0x8, addend: 0x0, symName: __ZNKSt3__112basic_stringIcNS_11char_traitsIcEENS_9allocatorIcEEE9__is_longB8ue170006Ev, symObjAddr: 0x2540, symBinAddr: 0x1000067A0, symSize: 0x38 }
  - { offsetInCU: 0xDC5D, offset: 0xDC5D, size: 0x8, addend: 0x0, symName: __ZNKSt3__112basic_stringIcNS_11char_traitsIcEENS_9allocatorIcEEE18__get_long_pointerB8ue170006Ev, symObjAddr: 0x2578, symBinAddr: 0x1000067D8, symSize: 0x28 }
  - { offsetInCU: 0xDC83, offset: 0xDC83, size: 0x8, addend: 0x0, symName: __ZNKSt3__112basic_stringIcNS_11char_traitsIcEENS_9allocatorIcEEE19__get_short_pointerB8ue170006Ev, symObjAddr: 0x25A0, symBinAddr: 0x100006800, symSize: 0x28 }
  - { offsetInCU: 0xDCA9, offset: 0xDCA9, size: 0x8, addend: 0x0, symName: __ZNKSt3__117__compressed_pairINS_12basic_stringIcNS_11char_traitsIcEENS_9allocatorIcEEE5__repES5_E5firstB8ue170006Ev, symObjAddr: 0x25C8, symBinAddr: 0x100006828, symSize: 0x24 }
  - { offsetInCU: 0xDCCF, offset: 0xDCCF, size: 0x8, addend: 0x0, symName: __ZNKSt3__122__compressed_pair_elemINS_12basic_stringIcNS_11char_traitsIcEENS_9allocatorIcEEE5__repELi0ELb0EE5__getB8ue170006Ev, symObjAddr: 0x25EC, symBinAddr: 0x10000684C, symSize: 0x14 }
  - { offsetInCU: 0xDCF5, offset: 0xDCF5, size: 0x8, addend: 0x0, symName: __ZNSt3__114pointer_traitsIPKcE10pointer_toB8ue170006ERS1_, symObjAddr: 0x2600, symBinAddr: 0x100006860, symSize: 0x14 }
  - { offsetInCU: 0xDD18, offset: 0xDD18, size: 0x8, addend: 0x0, symName: __ZNKSt3__112basic_stringIcNS_11char_traitsIcEENS_9allocatorIcEEE15__get_long_sizeB8ue170006Ev, symObjAddr: 0x2614, symBinAddr: 0x100006874, symSize: 0x28 }
  - { offsetInCU: 0xDD3E, offset: 0xDD3E, size: 0x8, addend: 0x0, symName: __ZNKSt3__112basic_stringIcNS_11char_traitsIcEENS_9allocatorIcEEE16__get_short_sizeB8ue170006Ev, symObjAddr: 0x263C, symBinAddr: 0x10000689C, symSize: 0x34 }
  - { offsetInCU: 0xDD64, offset: 0xDD64, size: 0x8, addend: 0x0, symName: __ZN5Eigen16GenericNumTraitsIdE8digits10Ev, symObjAddr: 0x2670, symBinAddr: 0x1000068D0, symSize: 0x14 }
  - { offsetInCU: 0xDD78, offset: 0xDD78, size: 0x8, addend: 0x0, symName: __ZN5Eigen8internal21default_digits10_implIdLb1ELb0EE3runEv, symObjAddr: 0x2684, symBinAddr: 0x1000068E4, symSize: 0x8 }
  - { offsetInCU: 0xDD8C, offset: 0xDD8C, size: 0x8, addend: 0x0, symName: __ZNSt3__19basic_iosIcNS_11char_traitsIcEEEC2B8ue170006Ev, symObjAddr: 0x268C, symBinAddr: 0x1000068EC, symSize: 0x44 }
  - { offsetInCU: 0xDDB6, offset: 0xDDB6, size: 0x8, addend: 0x0, symName: __ZNSt3__114basic_iostreamIcNS_11char_traitsIcEEEC2B8ue170006EPNS_15basic_streambufIcS2_EE, symObjAddr: 0x26D0, symBinAddr: 0x100006930, symSize: 0xAC }
  - { offsetInCU: 0xDDFC, offset: 0xDDFC, size: 0x8, addend: 0x0, symName: __ZNSt3__115basic_stringbufIcNS_11char_traitsIcEENS_9allocatorIcEEEC1B8ue170006Ej, symObjAddr: 0x277C, symBinAddr: 0x1000069DC, symSize: 0x34 }
  - { offsetInCU: 0xDE35, offset: 0xDE35, size: 0x8, addend: 0x0, symName: __ZNSt3__18ios_baseC2B8ue170006Ev, symObjAddr: 0x27B0, symBinAddr: 0x100006A10, symSize: 0x24 }
  - { offsetInCU: 0xDE5F, offset: 0xDE5F, size: 0x8, addend: 0x0, symName: __ZNSt3__113basic_istreamIcNS_11char_traitsIcEEEC2B8ue170006EPNS_15basic_streambufIcS2_EE, symObjAddr: 0x27D4, symBinAddr: 0x100006A34, symSize: 0x64 }
  - { offsetInCU: 0xDEA4, offset: 0xDEA4, size: 0x8, addend: 0x0, symName: __ZNSt3__113basic_ostreamIcNS_11char_traitsIcEEEC2B8ue170006Ev, symObjAddr: 0x2838, symBinAddr: 0x100006A98, symSize: 0x34 }
  - { offsetInCU: 0xDEDB, offset: 0xDEDB, size: 0x8, addend: 0x0, symName: __ZNSt3__19basic_iosIcNS_11char_traitsIcEEE4initB8ue170006EPNS_15basic_streambufIcS2_EE, symObjAddr: 0x286C, symBinAddr: 0x100006ACC, symSize: 0x44 }
  - { offsetInCU: 0xDF12, offset: 0xDF12, size: 0x8, addend: 0x0, symName: __ZNSt3__111char_traitsIcE3eofB8ue170006Ev, symObjAddr: 0x28B0, symBinAddr: 0x100006B10, symSize: 0x8 }
  - { offsetInCU: 0xDF26, offset: 0xDF26, size: 0x8, addend: 0x0, symName: __ZNSt3__115basic_stringbufIcNS_11char_traitsIcEENS_9allocatorIcEEEC2B8ue170006Ej, symObjAddr: 0x28B8, symBinAddr: 0x100006B18, symSize: 0x60 }
  - { offsetInCU: 0xDF5F, offset: 0xDF5F, size: 0x8, addend: 0x0, symName: __ZNSt3__112basic_stringIcNS_11char_traitsIcEENS_9allocatorIcEEEC1B8ue170006Ev, symObjAddr: 0x2918, symBinAddr: 0x100006B78, symSize: 0x2C }
  - { offsetInCU: 0xDF89, offset: 0xDF89, size: 0x8, addend: 0x0, symName: __ZNSt3__112basic_stringIcNS_11char_traitsIcEENS_9allocatorIcEEEC2B8ue170006Ev, symObjAddr: 0x2944, symBinAddr: 0x100006BA4, symSize: 0x48 }
  - { offsetInCU: 0xDFB3, offset: 0xDFB3, size: 0x8, addend: 0x0, symName: __ZNSt3__112basic_stringIcNS_11char_traitsIcEENS_9allocatorIcEEE14__default_initB8ue170006Ev, symObjAddr: 0x298C, symBinAddr: 0x100006BEC, symSize: 0x40 }
  - { offsetInCU: 0xDFD9, offset: 0xDFD9, size: 0x8, addend: 0x0, symName: __ZNSt3__117__compressed_pairINS_12basic_stringIcNS_11char_traitsIcEENS_9allocatorIcEEE5__repES5_E5firstB8ue170006Ev, symObjAddr: 0x29CC, symBinAddr: 0x100006C2C, symSize: 0x24 }
  - { offsetInCU: 0xDFFF, offset: 0xDFFF, size: 0x8, addend: 0x0, symName: __ZNSt3__122__compressed_pair_elemINS_12basic_stringIcNS_11char_traitsIcEENS_9allocatorIcEEE5__repELi0ELb0EE5__getB8ue170006Ev, symObjAddr: 0x29F0, symBinAddr: 0x100006C50, symSize: 0x14 }
  - { offsetInCU: 0xE039, offset: 0xE039, size: 0x8, addend: 0x0, symName: __ZNKSt3__16__lessIvvEclB8ue170006IllEEbRKT_RKT0_, symObjAddr: 0x2A58, symBinAddr: 0x100006CB8, symSize: 0x34 }
  - { offsetInCU: 0xE08D, offset: 0xE08D, size: 0x8, addend: 0x0, symName: __ZNSt3__118basic_stringstreamIcNS_11char_traitsIcEENS_9allocatorIcEEED2Ev, symObjAddr: 0x2A8C, symBinAddr: 0x100006CEC, symSize: 0x6C }
  - { offsetInCU: 0xE0C7, offset: 0xE0C7, size: 0x8, addend: 0x0, symName: __ZThn16_NSt3__118basic_stringstreamIcNS_11char_traitsIcEENS_9allocatorIcEEED1Ev, symObjAddr: 0x2AF8, symBinAddr: 0x100006D58, symSize: 0x1C }
  - { offsetInCU: 0xE0DE, offset: 0xE0DE, size: 0x8, addend: 0x0, symName: __ZTv0_n24_NSt3__118basic_stringstreamIcNS_11char_traitsIcEENS_9allocatorIcEEED1Ev, symObjAddr: 0x2B14, symBinAddr: 0x100006D74, symSize: 0x28 }
  - { offsetInCU: 0xE0FA, offset: 0xE0FA, size: 0x8, addend: 0x0, symName: __ZNSt3__115basic_stringbufIcNS_11char_traitsIcEENS_9allocatorIcEEED1Ev, symObjAddr: 0x2B3C, symBinAddr: 0x100006D9C, symSize: 0x2C }
  - { offsetInCU: 0xE127, offset: 0xE127, size: 0x8, addend: 0x0, symName: __ZNSt3__115basic_stringbufIcNS_11char_traitsIcEENS_9allocatorIcEEED2Ev, symObjAddr: 0x2B68, symBinAddr: 0x100006DC8, symSize: 0x48 }
  - { offsetInCU: 0xE154, offset: 0xE154, size: 0x8, addend: 0x0, symName: __ZNSt3__111char_traitsIcE11eq_int_typeB8ue170006Eii, symObjAddr: 0x2BB0, symBinAddr: 0x100006E10, symSize: 0x28 }
  - { offsetInCU: 0xE187, offset: 0xE187, size: 0x8, addend: 0x0, symName: __ZNKSt3__19basic_iosIcNS_11char_traitsIcEEE5widenB8ue170006Ec, symObjAddr: 0x2BD8, symBinAddr: 0x100006E38, symSize: 0x84 }
  - { offsetInCU: 0xE1F5, offset: 0xE1F5, size: 0x8, addend: 0x0, symName: __ZNKSt3__15ctypeIcE5widenB8ue170006Ec, symObjAddr: 0x2C88, symBinAddr: 0x100006EE8, symSize: 0x38 }
  - { offsetInCU: 0xE22A, offset: 0xE22A, size: 0x8, addend: 0x0, symName: __ZNSt3__112basic_stringIcNS_11char_traitsIcEENS_9allocatorIcEEEC2B8ue170006ILi0EEEPKc, symObjAddr: 0x2CC0, symBinAddr: 0x100006F20, symSize: 0x58 }
  - { offsetInCU: 0xE269, offset: 0xE269, size: 0x8, addend: 0x0, symName: __ZNSt3__111char_traitsIcE6lengthB8ue170006EPKc, symObjAddr: 0x2D18, symBinAddr: 0x100006F78, symSize: 0x34 }
  - { offsetInCU: 0xE28C, offset: 0xE28C, size: 0x8, addend: 0x0, symName: __ZN5Eigen8IOFormatC2EiiRKNSt3__112basic_stringIcNS1_11char_traitsIcEENS1_9allocatorIcEEEES9_S9_S9_S9_S9_c, symObjAddr: 0x2D70, symBinAddr: 0x100006FD0, symSize: 0x284 }
  - { offsetInCU: 0xE34B, offset: 0xE34B, size: 0x8, addend: 0x0, symName: __ZNSt3__112basic_stringIcNS_11char_traitsIcEENS_9allocatorIcEEEixB8ue170006Em, symObjAddr: 0x2FF4, symBinAddr: 0x100007254, symSize: 0x30 }
  - { offsetInCU: 0xE380, offset: 0xE380, size: 0x8, addend: 0x0, symName: __ZNSt3__112basic_stringIcNS_11char_traitsIcEENS_9allocatorIcEEEpLB8ue170006Ec, symObjAddr: 0x3024, symBinAddr: 0x100007284, symSize: 0x34 }
  - { offsetInCU: 0xE3B5, offset: 0xE3B5, size: 0x8, addend: 0x0, symName: __ZNSt3__112basic_stringIcNS_11char_traitsIcEENS_9allocatorIcEEE13__get_pointerB8ue170006Ev, symObjAddr: 0x3058, symBinAddr: 0x1000072B8, symSize: 0x54 }
  - { offsetInCU: 0xE3DB, offset: 0xE3DB, size: 0x8, addend: 0x0, symName: __ZNSt3__112basic_stringIcNS_11char_traitsIcEENS_9allocatorIcEEE18__get_long_pointerB8ue170006Ev, symObjAddr: 0x30AC, symBinAddr: 0x10000730C, symSize: 0x28 }
  - { offsetInCU: 0xE401, offset: 0xE401, size: 0x8, addend: 0x0, symName: __ZNSt3__112basic_stringIcNS_11char_traitsIcEENS_9allocatorIcEEE19__get_short_pointerB8ue170006Ev, symObjAddr: 0x30D4, symBinAddr: 0x100007334, symSize: 0x28 }
  - { offsetInCU: 0xE427, offset: 0xE427, size: 0x8, addend: 0x0, symName: __ZNSt3__114pointer_traitsIPcE10pointer_toB8ue170006ERc, symObjAddr: 0x30FC, symBinAddr: 0x10000735C, symSize: 0x14 }
  - { offsetInCU: 0xE44A, offset: 0xE44A, size: 0x8, addend: 0x0, symName: __ZN5Eigen8IOFormatD2Ev, symObjAddr: 0x3110, symBinAddr: 0x100007370, symSize: 0x74 }
...
