---
triple:          'arm64-apple-darwin'
binary-path:     '/Users/shiqing/Desktop/High-Order-Diff-Opt/xtensor_test/myProgram.out'
relocations:
  - { offsetInCU: 0x18C, offset: 0x18C, size: 0x8, addend: 0x0, symName: __ZN2xt13print_options13print_optionsEv, symObjAddr: 0xA2D0, symBinAddr: 0x10000D158, symSize: 0xC }
  - { offsetInCU: 0x1B5, offset: 0x1B5, size: 0x8, addend: 0x0, symName: __ZZN2xt13print_options13print_optionsEvE2po, symObjAddr: 0x167A0, symBinAddr: 0x100020040, symSize: 0x0 }
  - { offsetInCU: 0x2921, offset: 0x2921, size: 0x8, addend: 0x0, symName: __ZN2xt6detail15compute_stridesILNS_11layout_typeE2ENS_7svectorImLm4ENSt3__19allocatorImEELb1EEENS3_IlLm4ENS5_IlEELb1EEEPS9_EEmRKT0_S2_RT1_T2_, symObjAddr: 0x3730, symBinAddr: 0x1000065B8, symSize: 0x198 }
  - { offsetInCU: 0x2A50, offset: 0x2A50, size: 0x8, addend: 0x0, symName: __ZN2xt6detail15compute_stridesILNS_11layout_typeE1ENS_7svectorImLm4ENSt3__19allocatorImEELb1EEENS3_IlLm4ENS5_IlEELb1EEEPS9_EEmRKT0_S2_RT1_T2_, symObjAddr: 0x89A0, symBinAddr: 0x10000B828, symSize: 0xDC }
  - { offsetInCU: 0x2B08, offset: 0x2B08, size: 0x8, addend: 0x0, symName: __ZN2xt6detail17initializer_shapeINS_7svectorImLm4ENSt3__19allocatorImEELb1EEESt16initializer_listIS7_IdEEJLm0ELm1EEEET_T0_NS3_16integer_sequenceImJXspT1_EEEE, symObjAddr: 0x8AA8, symBinAddr: 0x10000B930, symSize: 0xC4 }
  - { offsetInCU: 0x2B6D, offset: 0x2B6D, size: 0x8, addend: 0x0, symName: __ZN2xt6detail17compute_size_implINS_7svectorImLm4ENSt3__19allocatorImEELb1EEEEEmRKT_NS3_17integral_constantIbLb0EEE, symObjAddr: 0x9F1C, symBinAddr: 0x10000CDA4, symSize: 0x40 }
  - { offsetInCU: 0x2BBB, offset: 0x2BBB, size: 0x8, addend: 0x0, symName: __ZN2xt6detail12recurser_runINS0_7printerINS_16xarray_containerINS_7uvectorIdNSt3__19allocatorIdEEEELNS_11layout_typeE2ENS_7svectorImLm4ENS6_ImEELb1EEENS_22xtensor_expression_tagEEEvEESE_EEvRT_RKT0_RNS5_6vectorIN5mpark7variantIJlNS_14xrange_adaptorINS_12placeholders5xtuphEllEENSO_IlSQ_lEENSO_IllSQ_EENSO_IlSQ_SQ_EENSO_ISQ_lSQ_EENSO_ISQ_SQ_lEENSO_IlllEENSO_ISQ_SQ_SQ_EENS_6xrangeIlEENS_14xstepped_rangeIlEENS_8xall_tagENS_13xellipsis_tagENS_12xnewaxis_tagEEEENS6_IS16_EEEEm, symObjAddr: 0x9454, symBinAddr: 0x10000C2DC, symSize: 0x26C }
  - { offsetInCU: 0x30C0, offset: 0x30C0, size: 0x8, addend: 0x0, symName: __ZN2xt6detail7xoutputINS_16xarray_containerINS_7uvectorIdNSt3__19allocatorIdEEEELNS_11layout_typeE2ENS_7svectorImLm4ENS5_ImEELb1EEENS_22xtensor_expression_tagEEENS0_7printerISD_vEEEERNS4_13basic_ostreamIcNS4_11char_traitsIcEEEESK_RKT_RNS4_6vectorIN5mpark7variantIJlNS_14xrange_adaptorINS_12placeholders5xtuphEllEENSR_IlST_lEENSR_IllST_EENSR_IlST_ST_EENSR_IST_lST_EENSR_IST_ST_lEENSR_IlllEENSR_IST_ST_ST_EENS_6xrangeIlEENS_14xstepped_rangeIlEENS_8xall_tagENS_13xellipsis_tagENS_12xnewaxis_tagEEEENS5_IS19_EEEERT0_mlmm, symObjAddr: 0x9854, symBinAddr: 0x10000C6DC, symSize: 0x5DC }
  - { offsetInCU: 0x31CD, offset: 0x31CD, size: 0x8, addend: 0x0, symName: __ZN2xt6detail21resize_data_containerINS_7uvectorIdNSt3__19allocatorIdEEEEmEEvRT_T0_, symObjAddr: 0xF60, symBinAddr: 0x100003DE8, symSize: 0x2C }
  - { offsetInCU: 0x3218, offset: 0x3218, size: 0x8, addend: 0x0, symName: __ZN2xt6detail23safe_destroy_deallocateINSt3__19allocatorImEEEEvRT_NS2_16allocator_traitsIS5_E7pointerENS8_9size_typeE, symObjAddr: 0x1EE0, symBinAddr: 0x100004D68, symSize: 0x4C }
  - { offsetInCU: 0x3265, offset: 0x3265, size: 0x8, addend: 0x0, symName: __ZN2xt6detail23safe_destroy_deallocateINSt3__19allocatorIlEEEEvRT_NS2_16allocator_traitsIS5_E7pointerENS8_9size_typeE, symObjAddr: 0x27FC, symBinAddr: 0x100005684, symSize: 0x4C }
  - { offsetInCU: 0x32B2, offset: 0x32B2, size: 0x8, addend: 0x0, symName: __ZN2xt6detail18safe_init_allocateINSt3__19allocatorIdEEEENS2_16allocator_traitsIT_E7pointerERS6_NS7_9size_typeE, symObjAddr: 0x2B00, symBinAddr: 0x100005988, symSize: 0x34 }
  - { offsetInCU: 0x330E, offset: 0x330E, size: 0x8, addend: 0x0, symName: __ZN2xt6detail23safe_destroy_deallocateINSt3__19allocatorIdEEEEvRT_NS2_16allocator_traitsIS5_E7pointerENS8_9size_typeE, symObjAddr: 0x2B34, symBinAddr: 0x1000059BC, symSize: 0x4C }
  - { offsetInCU: 0x335B, offset: 0x335B, size: 0x8, addend: 0x0, symName: __ZN2xt6detail13adapt_stridesINS_7svectorImLm4ENSt3__19allocatorImEELb1EEENS2_IlLm4ENS4_IlEELb1EEEPS8_EEvRKT_RT0_T1_NSD_9size_typeE, symObjAddr: 0x38EC, symBinAddr: 0x100006774, symSize: 0xA4 }
  - { offsetInCU: 0x33CD, offset: 0x33CD, size: 0x8, addend: 0x0, symName: __ZN2xt6detail16is_linear_assignINS_16xarray_containerINS_7uvectorIdNSt3__19allocatorIdEEEELNS_11layout_typeE2ENS_7svectorImLm4ENS5_ImEELb1EEENS_22xtensor_expression_tagEEENS2_IS7_LS8_1ESB_SC_EEEENS4_9enable_ifIXsr11has_stridesIT_EE5valueEbE4typeERKSG_RKT0_, symObjAddr: 0x3B7C, symBinAddr: 0x100006A04, symSize: 0x64 }
  - { offsetInCU: 0x341C, offset: 0x341C, size: 0x8, addend: 0x0, symName: __ZN2xt6detail18safe_init_allocateINSt3__19allocatorIiEEEENS2_16allocator_traitsIT_E7pointerERS6_NS7_9size_typeE, symObjAddr: 0x5B00, symBinAddr: 0x100008988, symSize: 0x34 }
  - { offsetInCU: 0x3478, offset: 0x3478, size: 0x8, addend: 0x0, symName: __ZN2xt6detail23safe_destroy_deallocateINSt3__19allocatorIiEEEEvRT_NS2_16allocator_traitsIS5_E7pointerENS8_9size_typeE, symObjAddr: 0x6758, symBinAddr: 0x1000095E0, symSize: 0x4C }
  - { offsetInCU: 0x36BD, offset: 0x36BD, size: 0x8, addend: 0x0, symName: __ZN2xt6detail11get_stridesILNS_11layout_typeE1EKNS_16xarray_containerINS_7uvectorIdNSt3__19allocatorIdEEEELS2_2ENS_7svectorImLm4ENS6_ImEELb1EEENS_22xtensor_expression_tagEEEEEDcRT0_, symObjAddr: 0xB334, symBinAddr: 0x10000E1BC, symSize: 0x24 }
  - { offsetInCU: 0x36FE, offset: 0x36FE, size: 0x8, addend: 0x0, symName: __ZN2xt6detail10get_offsetILNS_11layout_typeE1EKNS_16xarray_containerINS_7uvectorIdNSt3__19allocatorIdEEEELS2_2ENS_7svectorImLm4ENS6_ImEELb1EEENS_22xtensor_expression_tagEEEEEDaRT0_, symObjAddr: 0xB358, symBinAddr: 0x10000E1E0, symSize: 0x24 }
  - { offsetInCU: 0x4DFA, offset: 0x4DFA, size: 0x8, addend: 0x0, symName: __ZN2xt16strided_data_endINS_10xcontainerINS_16xarray_containerINS_7uvectorIdNSt3__19allocatorIdEEEELNS_11layout_typeE2ENS_7svectorImLm4ENS5_ImEELb1EEENS_22xtensor_expression_tagEEEEEPdmEET0_RKT_SG_S8_T1_, symObjAddr: 0x525C, symBinAddr: 0x1000080E4, symSize: 0x148 }
  - { offsetInCU: 0x4E92, offset: 0x4E92, size: 0x8, addend: 0x0, symName: __ZN2xt16strided_data_endINS_10xcontainerINS_16xarray_containerINS_7uvectorIdNSt3__19allocatorIdEEEELNS_11layout_typeE1ENS_7svectorImLm4ENS5_ImEELb1EEENS_22xtensor_expression_tagEEEEEPKdmEET0_RKT_SH_S8_T1_, symObjAddr: 0x546C, symBinAddr: 0x1000082F4, symSize: 0x148 }
  - { offsetInCU: 0x6227, offset: 0x6227, size: 0x8, addend: 0x0, symName: __ZN2xt16do_strides_matchINS_7svectorImLm4ENSt3__19allocatorImEELb1EEENS1_IlLm4ENS3_IlEELb1EEEEEbRKT_RKT0_NS_11layout_typeEb, symObjAddr: 0xB760, symBinAddr: 0x10000E5E8, symSize: 0x200 }
  - { offsetInCU: 0x6FEE, offset: 0x6FEE, size: 0x8, addend: 0x0, symName: __ZN2xtlsINS_16xarray_containerINS_7uvectorIdNSt3__19allocatorIdEEEELNS_11layout_typeE2ENS_7svectorImLm4ENS4_ImEELb1EEENS_22xtensor_expression_tagEEEEERNS3_13basic_ostreamIcNS3_11char_traitsIcEEEESH_RKNS_11xexpressionIT_EE, symObjAddr: 0x3FC, symBinAddr: 0x100003284, symSize: 0x2C }
  - { offsetInCU: 0x7039, offset: 0x7039, size: 0x8, addend: 0x0, symName: __ZN2xt6linalg5solveINS_16xarray_containerINS_7uvectorIdNSt3__19allocatorIdEEEELNS_11layout_typeE1ENS_7svectorImLm4ENS5_ImEELb1EEENS_22xtensor_expression_tagEEESD_EEDaRKNS_11xexpressionIT_EERKNSF_IT0_EE, symObjAddr: 0x428, symBinAddr: 0x1000032B0, symSize: 0x144 }
  - { offsetInCU: 0x70B0, offset: 0x70B0, size: 0x8, addend: 0x0, symName: __ZN2xt6linalg16solve_triangularINS_16xarray_containerINS_7uvectorIdNSt3__19allocatorIdEEEELNS_11layout_typeE1ENS_7svectorImLm4ENS5_ImEELb1EEENS_22xtensor_expression_tagEEESD_EEDaRKNS_11xexpressionIT_EERKNSF_IT0_EE, symObjAddr: 0x61C, symBinAddr: 0x1000034A4, symSize: 0x150 }
  - { offsetInCU: 0x712D, offset: 0x712D, size: 0x8, addend: 0x0, symName: __ZN2xt6linalg14solve_choleskyINS_16xarray_containerINS_7uvectorIdNSt3__19allocatorIdEEEELNS_11layout_typeE1ENS_7svectorImLm4ENS5_ImEELb1EEENS_22xtensor_expression_tagEEESD_EEDaRKNS_11xexpressionIT_EERKNSF_IT0_EE, symObjAddr: 0x76C, symBinAddr: 0x1000035F4, symSize: 0x148 }
  - { offsetInCU: 0x71AB, offset: 0x71AB, size: 0x8, addend: 0x0, symName: __ZN2xt16assert_nd_squareINS_16xarray_containerINS_7uvectorIdNSt3__19allocatorIdEEEELNS_11layout_typeE1ENS_7svectorImLm4ENS4_ImEELb1EEENS_22xtensor_expression_tagEEEEEvRKNS_11xexpressionIT_EE, symObjAddr: 0x8E0, symBinAddr: 0x100003768, symSize: 0xE8 }
  - { offsetInCU: 0x71EA, offset: 0x71EA, size: 0x8, addend: 0x0, symName: __ZN2xt14copy_to_layoutILNS_11layout_typeE2ERKNS_16xarray_containerINS_7uvectorIdNSt3__19allocatorIdEEEELS1_1ENS_7svectorImLm4ENS5_ImEELb1EEENS_22xtensor_expression_tagEEESC_EENS4_9enable_ifIXaanesr3std7decay_tIT0_EE13static_layoutT_ntsr6detail8is_arrayINT1_10shape_typeEEE5valueENS2_INS3_INSH_10value_typeENS5_ISJ_EEEEXT_ENS8_INSL_9size_typeELm4ENS5_INS4_6vectorISJ_SK_E9size_typeEEELb1EEESB_EEE4typeEOSG_, symObjAddr: 0x9C8, symBinAddr: 0x100003850, symSize: 0x3C }
  - { offsetInCU: 0x7237, offset: 0x7237, size: 0x8, addend: 0x0, symName: __ZN2xt6lapack4gesvINS_16xarray_containerINS_7uvectorIdNSt3__19allocatorIdEEEELNS_11layout_typeE2ENS_7svectorImLm4ENS5_ImEELb1EEENS_22xtensor_expression_tagEEESD_EEiRT_RT0_, symObjAddr: 0xA1C, symBinAddr: 0x1000038A4, symSize: 0x1B8 }
  - { offsetInCU: 0x72BC, offset: 0x72BC, size: 0x8, addend: 0x0, symName: __ZN2xt6lapack5trtrsINS_16xarray_containerINS_7uvectorIdNSt3__19allocatorIdEEEELNS_11layout_typeE2ENS_7svectorImLm4ENS5_ImEELb1EEENS_22xtensor_expression_tagEEESD_EEiRT_RT0_ccc, symObjAddr: 0x7E20, symBinAddr: 0x10000ACA8, symSize: 0xDC }
  - { offsetInCU: 0x7347, offset: 0x7347, size: 0x8, addend: 0x0, symName: __ZN2xt6lapack5potrsINS_16xarray_containerINS_7uvectorIdNSt3__19allocatorIdEEEELNS_11layout_typeE2ENS_7svectorImLm4ENS5_ImEELb1EEENS_22xtensor_expression_tagEEESD_EEiRT_RT0_c, symObjAddr: 0x8008, symBinAddr: 0x10000AE90, symSize: 0xB8 }
  - { offsetInCU: 0x73B5, offset: 0x73B5, size: 0x8, addend: 0x0, symName: __ZN2xt16resize_containerINS_7uvectorIdNSt3__19allocatorIdEEEEEEbRT_NS6_9size_typeE, symObjAddr: 0x29EC, symBinAddr: 0x100005874, symSize: 0x34 }
  - { offsetInCU: 0x73FB, offset: 0x73FB, size: 0x8, addend: 0x0, symName: __ZN2xt18assign_xexpressionINS_16xarray_containerINS_7uvectorIdNSt3__19allocatorIdEEEELNS_11layout_typeE2ENS_7svectorImLm4ENS4_ImEELb1EEENS_22xtensor_expression_tagEEENS1_IS6_LS7_1ESA_SB_EEEEvRNS_11xexpressionIT_EERKNSE_IT0_EE, symObjAddr: 0x2CD4, symBinAddr: 0x100005B5C, symSize: 0x4C }
  - { offsetInCU: 0x754C, offset: 0x754C, size: 0x8, addend: 0x0, symName: __ZN2xt16resize_containerINS_7svectorIlLm4ENSt3__19allocatorIlEELb1EEEEEbRT_NS6_9size_typeE, symObjAddr: 0x319C, symBinAddr: 0x100006024, symSize: 0x34 }
  - { offsetInCU: 0x7592, offset: 0x7592, size: 0x8, addend: 0x0, symName: __ZN2xt15compute_stridesILNS_11layout_typeE2ENS_7svectorImLm4ENSt3__19allocatorImEELb1EEENS2_IlLm4ENS4_IlEELb1EEES8_EEmRKT0_S1_RT1_RT2_, symObjAddr: 0x31D0, symBinAddr: 0x100006058, symSize: 0x3C }
  - { offsetInCU: 0x7710, offset: 0x7710, size: 0x8, addend: 0x0, symName: __ZN2xt12linear_beginINS_16xarray_containerINS_7uvectorIdNSt3__19allocatorIdEEEELNS_11layout_typeE1ENS_7svectorImLm4ENS4_ImEELb1EEENS_22xtensor_expression_tagEEEEEDaRKT_, symObjAddr: 0x44D4, symBinAddr: 0x10000735C, symSize: 0x48 }
  - { offsetInCU: 0x7790, offset: 0x7790, size: 0x8, addend: 0x0, symName: __ZN2xt12linear_beginINS_16xarray_containerINS_7uvectorIdNSt3__19allocatorIdEEEELNS_11layout_typeE2ENS_7svectorImLm4ENS4_ImEELb1EEENS_22xtensor_expression_tagEEEEEDaRT_, symObjAddr: 0x451C, symBinAddr: 0x1000073A4, symSize: 0x48 }
  - { offsetInCU: 0x7810, offset: 0x7810, size: 0x8, addend: 0x0, symName: __ZN2xt16conditional_castILb0EdRKdEEDaOT1_, symObjAddr: 0x4AAC, symBinAddr: 0x100007934, symSize: 0x2C }
  - { offsetInCU: 0x785A, offset: 0x785A, size: 0x8, addend: 0x0, symName: __ZN2xt11stride_backINS_16xarray_containerINS_7uvectorIdNSt3__19allocatorIdEEEELNS_11layout_typeE2ENS_7svectorImLm4ENS4_ImEELb1EEENS_22xtensor_expression_tagEEEEEiRKT_, symObjAddr: 0x588C, symBinAddr: 0x100008714, symSize: 0x68 }
  - { offsetInCU: 0x788F, offset: 0x788F, size: 0x8, addend: 0x0, symName: __ZN2xt5shapeINS_7svectorImLm4ENSt3__19allocatorImEELb1EEESt16initializer_listIS6_IdEEEET_T0_, symObjAddr: 0x8688, symBinAddr: 0x10000B510, symSize: 0x3C }
  - { offsetInCU: 0x78CD, offset: 0x78CD, size: 0x8, addend: 0x0, symName: __ZN2xt11nested_copyIPdSt16initializer_listIdEEEvOT_S2_IT0_E, symObjAddr: 0x86C4, symBinAddr: 0x10000B54C, symSize: 0x8C }
  - { offsetInCU: 0x7935, offset: 0x7935, size: 0x8, addend: 0x0, symName: __ZN2xt15compute_stridesILNS_11layout_typeE1ENS_7svectorImLm4ENSt3__19allocatorImEELb1EEENS2_IlLm4ENS4_IlEELb1EEES8_EEmRKT0_S1_RT1_RT2_, symObjAddr: 0x8880, symBinAddr: 0x10000B708, symSize: 0x3C }
  - { offsetInCU: 0x79B5, offset: 0x79B5, size: 0x8, addend: 0x0, symName: __ZN2xt11nested_copyIPddEEvOT_St16initializer_listIT0_E, symObjAddr: 0x8DB0, symBinAddr: 0x10000BC38, symSize: 0x7C }
  - { offsetInCU: 0x7A1D, offset: 0x7A1D, size: 0x8, addend: 0x0, symName: __ZN2xt11nested_copyIPddEEvOT_RKT0_, symObjAddr: 0x8E64, symBinAddr: 0x10000BCEC, symSize: 0x30 }
  - { offsetInCU: 0x7A68, offset: 0x7A68, size: 0x8, addend: 0x0, symName: __ZN2xt12pretty_printINS_16xarray_containerINS_7uvectorIdNSt3__19allocatorIdEEEELNS_11layout_typeE2ENS_7svectorImLm4ENS4_ImEELb1EEENS_22xtensor_expression_tagEEEEERNS3_13basic_ostreamIcNS3_11char_traitsIcEEEERKNS_11xexpressionIT_EESH_, symObjAddr: 0x8E94, symBinAddr: 0x10000BD1C, symSize: 0x260 }
  - { offsetInCU: 0x7B3C, offset: 0x7B3C, size: 0x8, addend: 0x0, symName: __ZN2xt12compute_sizeINS_7svectorImLm4ENSt3__19allocatorImEELb1EEEEEmRKT_, symObjAddr: 0x9140, symBinAddr: 0x10000BFC8, symSize: 0x34 }
  - { offsetInCU: 0x7B73, offset: 0x7B73, size: 0x8, addend: 0x0, symName: __ZN2xt17get_print_optionsERNSt3__113basic_ostreamIcNS0_11char_traitsIcEEEE, symObjAddr: 0x9174, symBinAddr: 0x10000BFFC, symSize: 0x23C }
  - { offsetInCU: 0x7BD0, offset: 0x7BD0, size: 0x8, addend: 0x0, symName: __ZN2xt12strided_viewIRKNS_16xarray_containerINS_7uvectorIdNSt3__19allocatorIdEEEELNS_11layout_typeE2ENS_7svectorImLm4ENS4_ImEELb1EEENS_22xtensor_expression_tagEEEEEDaOT_RKNS3_6vectorIN5mpark7variantIJlNS_14xrange_adaptorINS_12placeholders5xtuphEllEENSL_IlSN_lEENSL_IllSN_EENSL_IlSN_SN_EENSL_ISN_lSN_EENSL_ISN_SN_lEENSL_IlllEENSL_ISN_SN_SN_EENS_6xrangeIlEENS_14xstepped_rangeIlEENS_8xall_tagENS_13xellipsis_tagENS_12xnewaxis_tagEEEENS4_IS13_EEEE, symObjAddr: 0xA644, symBinAddr: 0x10000D4CC, symSize: 0xFC }
  - { offsetInCU: 0x7C3E, offset: 0x7C3E, size: 0x8, addend: 0x0, symName: __ZN2xt22stride_match_conditionIlmEEbRKT_RKT0_S3_b, symObjAddr: 0x1126C, symBinAddr: 0x1000140F4, symSize: 0x90 }
  - { offsetInCU: 0x7CAB, offset: 0x7CAB, size: 0x8, addend: 0x0, symName: __ZN2xt13adapt_stridesINS_7svectorImLm4ENSt3__19allocatorImEELb1EEENS1_IlLm4ENS3_IlEELb1EEES7_EEvRKT_RT0_RT1_, symObjAddr: 0x115A8, symBinAddr: 0x100014430, symSize: 0x78 }
  - { offsetInCU: 0x7D4D, offset: 0x7D4D, size: 0x8, addend: 0x0, symName: __ZN2xt13print_options10edge_items2idEv, symObjAddr: 0xA020, symBinAddr: 0x10000CEA8, symSize: 0xAC }
  - { offsetInCU: 0x7D6C, offset: 0x7D6C, size: 0x8, addend: 0x0, symName: __ZZN2xt13print_options10edge_items2idEvE2id, symObjAddr: 0x16760, symBinAddr: 0x100020000, symSize: 0x0 }
  - { offsetInCU: 0x7D85, offset: 0x7D85, size: 0x8, addend: 0x0, symName: __ZN2xt13print_options10line_width2idEv, symObjAddr: 0xA0CC, symBinAddr: 0x10000CF54, symSize: 0xAC }
  - { offsetInCU: 0x7DA4, offset: 0x7DA4, size: 0x8, addend: 0x0, symName: __ZZN2xt13print_options10line_width2idEvE2id, symObjAddr: 0x16770, symBinAddr: 0x100020010, symSize: 0x0 }
  - { offsetInCU: 0x7DBD, offset: 0x7DBD, size: 0x8, addend: 0x0, symName: __ZN2xt13print_options9threshold2idEv, symObjAddr: 0xA178, symBinAddr: 0x10000D000, symSize: 0xAC }
  - { offsetInCU: 0x7DDC, offset: 0x7DDC, size: 0x8, addend: 0x0, symName: __ZZN2xt13print_options9threshold2idEvE2id, symObjAddr: 0x16780, symBinAddr: 0x100020020, symSize: 0x0 }
  - { offsetInCU: 0x7DF5, offset: 0x7DF5, size: 0x8, addend: 0x0, symName: __ZN2xt13print_options9precision2idEv, symObjAddr: 0xA224, symBinAddr: 0x10000D0AC, symSize: 0xAC }
  - { offsetInCU: 0x7E14, offset: 0x7E14, size: 0x8, addend: 0x0, symName: __ZZN2xt13print_options9precision2idEvE2id, symObjAddr: 0x16790, symBinAddr: 0x100020030, symSize: 0x0 }
  - { offsetInCU: 0xA93E, offset: 0xA93E, size: 0x8, addend: 0x0, symName: __ZN5mpark6detail14generic_get_ifILm13EKNS_7variantIJlN2xt14xrange_adaptorINS3_12placeholders5xtuphEllEENS4_IlS6_lEENS4_IllS6_EENS4_IlS6_S6_EENS4_IS6_lS6_EENS4_IS6_S6_lEENS4_IlllEENS4_IS6_S6_S6_EENS3_6xrangeIlEENS3_14xstepped_rangeIlEENS3_8xall_tagENS3_13xellipsis_tagENS3_12xnewaxis_tagEEEEEEDaPT0_, symObjAddr: 0xBA68, symBinAddr: 0x10000E8F0, symSize: 0x74 }
  - { offsetInCU: 0xBF7E, offset: 0xBF7E, size: 0x8, addend: 0x0, symName: __ZN5mpark6detail4dataERKNS0_4baseILNS0_5TraitE0EJlN2xt14xrange_adaptorINS3_12placeholders5xtuphEllEENS4_IlS6_lEENS4_IllS6_EENS4_IlS6_S6_EENS4_IS6_lS6_EENS4_IS6_S6_lEENS4_IlllEENS4_IS6_S6_S6_EENS3_6xrangeIlEENS3_14xstepped_rangeIlEENS3_8xall_tagENS3_13xellipsis_tagENS3_12xnewaxis_tagEEEE, symObjAddr: 0xBC48, symBinAddr: 0x10000EAD0, symSize: 0x14 }
  - { offsetInCU: 0xBFAC, offset: 0xBFAC, size: 0x8, addend: 0x0, symName: __ZN5mpark6detail14generic_get_ifILm0EKNS_7variantIJlN2xt14xrange_adaptorINS3_12placeholders5xtuphEllEENS4_IlS6_lEENS4_IllS6_EENS4_IlS6_S6_EENS4_IS6_lS6_EENS4_IS6_S6_lEENS4_IlllEENS4_IS6_S6_S6_EENS3_6xrangeIlEENS3_14xstepped_rangeIlEENS3_8xall_tagENS3_13xellipsis_tagENS3_12xnewaxis_tagEEEEEEDaPT0_, symObjAddr: 0xBFB0, symBinAddr: 0x10000EE38, symSize: 0x74 }
  - { offsetInCU: 0xBFED, offset: 0xBFED, size: 0x8, addend: 0x0, symName: __ZN5mpark6detail14generic_get_ifILm12EKNS_7variantIJlN2xt14xrange_adaptorINS3_12placeholders5xtuphEllEENS4_IlS6_lEENS4_IllS6_EENS4_IlS6_S6_EENS4_IS6_lS6_EENS4_IS6_S6_lEENS4_IlllEENS4_IS6_S6_S6_EENS3_6xrangeIlEENS3_14xstepped_rangeIlEENS3_8xall_tagENS3_13xellipsis_tagENS3_12xnewaxis_tagEEEEEEDaPT0_, symObjAddr: 0xC104, symBinAddr: 0x10000EF8C, symSize: 0x74 }
  - { offsetInCU: 0xC02E, offset: 0xC02E, size: 0x8, addend: 0x0, symName: __ZN5mpark6detail14generic_get_ifILm11EKNS_7variantIJlN2xt14xrange_adaptorINS3_12placeholders5xtuphEllEENS4_IlS6_lEENS4_IllS6_EENS4_IlS6_S6_EENS4_IS6_lS6_EENS4_IS6_S6_lEENS4_IlllEENS4_IS6_S6_S6_EENS3_6xrangeIlEENS3_14xstepped_rangeIlEENS3_8xall_tagENS3_13xellipsis_tagENS3_12xnewaxis_tagEEEEEEDaPT0_, symObjAddr: 0xC510, symBinAddr: 0x10000F398, symSize: 0x74 }
  - { offsetInCU: 0xC06F, offset: 0xC06F, size: 0x8, addend: 0x0, symName: __ZN5mpark6detail3anyESt16initializer_listIbE, symObjAddr: 0xC7F8, symBinAddr: 0x10000F680, symSize: 0xC0 }
  - { offsetInCU: 0xC0EC, offset: 0xC0EC, size: 0x8, addend: 0x0, symName: __ZN5mpark6detail7as_baseERKNS0_4baseILNS0_5TraitE0EJlN2xt14xrange_adaptorINS3_12placeholders5xtuphEllEENS4_IlS6_lEENS4_IllS6_EENS4_IlS6_S6_EENS4_IS6_lS6_EENS4_IS6_S6_lEENS4_IlllEENS4_IS6_S6_S6_EENS3_6xrangeIlEENS3_14xstepped_rangeIlEENS3_8xall_tagENS3_13xellipsis_tagENS3_12xnewaxis_tagEEEE, symObjAddr: 0xD350, symBinAddr: 0x1000101D8, symSize: 0x14 }
  - { offsetInCU: 0xC2CC, offset: 0xC2CC, size: 0x8, addend: 0x0, symName: __ZN5mpark6get_ifIN2xt12xnewaxis_tagEJlNS1_14xrange_adaptorINS1_12placeholders5xtuphEllEENS3_IlS5_lEENS3_IllS5_EENS3_IlS5_S5_EENS3_IS5_lS5_EENS3_IS5_S5_lEENS3_IlllEENS3_IS5_S5_S5_EENS1_6xrangeIlEENS1_14xstepped_rangeIlEENS1_8xall_tagENS1_13xellipsis_tagES2_EEENSt3__111add_pointerIKT_E4typeEPKNS_7variantIJDpT0_EEE, symObjAddr: 0xB4F8, symBinAddr: 0x10000E380, symSize: 0x24 }
  - { offsetInCU: 0xC34F, offset: 0xC34F, size: 0x8, addend: 0x0, symName: __ZN5mpark6get_ifIlJlN2xt14xrange_adaptorINS1_12placeholders5xtuphEllEENS2_IlS4_lEENS2_IllS4_EENS2_IlS4_S4_EENS2_IS4_lS4_EENS2_IS4_S4_lEENS2_IlllEENS2_IS4_S4_S4_EENS1_6xrangeIlEENS1_14xstepped_rangeIlEENS1_8xall_tagENS1_13xellipsis_tagENS1_12xnewaxis_tagEEEENSt3__111add_pointerIKT_E4typeEPKNS_7variantIJDpT0_EEE, symObjAddr: 0xB51C, symBinAddr: 0x10000E3A4, symSize: 0x24 }
  - { offsetInCU: 0xC3D2, offset: 0xC3D2, size: 0x8, addend: 0x0, symName: __ZN5mpark6get_ifIN2xt13xellipsis_tagEJlNS1_14xrange_adaptorINS1_12placeholders5xtuphEllEENS3_IlS5_lEENS3_IllS5_EENS3_IlS5_S5_EENS3_IS5_lS5_EENS3_IS5_S5_lEENS3_IlllEENS3_IS5_S5_S5_EENS1_6xrangeIlEENS1_14xstepped_rangeIlEENS1_8xall_tagES2_NS1_12xnewaxis_tagEEEENSt3__111add_pointerIKT_E4typeEPKNS_7variantIJDpT0_EEE, symObjAddr: 0xB540, symBinAddr: 0x10000E3C8, symSize: 0x24 }
  - { offsetInCU: 0xC455, offset: 0xC455, size: 0x8, addend: 0x0, symName: __ZN5mpark6get_ifIN2xt8xall_tagEJlNS1_14xrange_adaptorINS1_12placeholders5xtuphEllEENS3_IlS5_lEENS3_IllS5_EENS3_IlS5_S5_EENS3_IS5_lS5_EENS3_IS5_S5_lEENS3_IlllEENS3_IS5_S5_S5_EENS1_6xrangeIlEENS1_14xstepped_rangeIlEES2_NS1_13xellipsis_tagENS1_12xnewaxis_tagEEEENSt3__111add_pointerIKT_E4typeEPKNS_7variantIJDpT0_EEE, symObjAddr: 0xB660, symBinAddr: 0x10000E4E8, symSize: 0x24 }
  - { offsetInCU: 0xC4D8, offset: 0xC4D8, size: 0x8, addend: 0x0, symName: __ZN5mpark5visitIRN2xt6detail17slice_getter_implINS1_7svectorImLm4ENSt3__19allocatorImEELb1EEEEEJRKNS_7variantIJlNS1_14xrange_adaptorINS1_12placeholders5xtuphEllEENSC_IlSE_lEENSC_IllSE_EENSC_IlSE_SE_EENSC_ISE_lSE_EENSC_ISE_SE_lEENSC_IlllEENSC_ISE_SE_SE_EENS1_6xrangeIlEENS1_14xstepped_rangeIlEENS1_8xall_tagENS1_13xellipsis_tagENS1_12xnewaxis_tagEEEEEEEDcOT_DpOT0_, symObjAddr: 0xB6B8, symBinAddr: 0x10000E540, symSize: 0x88 }
  - { offsetInCU: 0xC529, offset: 0xC529, size: 0x8, addend: 0x0, symName: __ZN5mpark6get_ifILm13EJlN2xt14xrange_adaptorINS1_12placeholders5xtuphEllEENS2_IlS4_lEENS2_IllS4_EENS2_IlS4_S4_EENS2_IS4_lS4_EENS2_IS4_S4_lEENS2_IlllEENS2_IS4_S4_S4_EENS1_6xrangeIlEENS1_14xstepped_rangeIlEENS1_8xall_tagENS1_13xellipsis_tagENS1_12xnewaxis_tagEEEENSt3__111add_pointerIKNS_19variant_alternativeIXT_ENS_7variantIJDpT0_EEEE4typeEE4typeEPKSQ_, symObjAddr: 0xBA44, symBinAddr: 0x10000E8CC, symSize: 0x24 }
  - { offsetInCU: 0xC5AD, offset: 0xC5AD, size: 0x8, addend: 0x0, symName: __ZN5mpark17holds_alternativeILm13EJlN2xt14xrange_adaptorINS1_12placeholders5xtuphEllEENS2_IlS4_lEENS2_IllS4_EENS2_IlS4_S4_EENS2_IS4_lS4_EENS2_IS4_S4_lEENS2_IlllEENS2_IS4_S4_S4_EENS1_6xrangeIlEENS1_14xstepped_rangeIlEENS1_8xall_tagENS1_13xellipsis_tagENS1_12xnewaxis_tagEEEEbRKNS_7variantIJDpT0_EEE, symObjAddr: 0xBADC, symBinAddr: 0x10000E964, symSize: 0x30 }
  - { offsetInCU: 0xC63B, offset: 0xC63B, size: 0x8, addend: 0x0, symName: __ZN5mpark3lib5cpp179addressofIKN2xt12xnewaxis_tagEEEPT_RS6_, symObjAddr: 0xBB0C, symBinAddr: 0x10000E994, symSize: 0x14 }
  - { offsetInCU: 0xC672, offset: 0xC672, size: 0x8, addend: 0x0, symName: __ZN5mpark3lib5cpp179addressofIKlEEPT_RS4_, symObjAddr: 0xC054, symBinAddr: 0x10000EEDC, symSize: 0x14 }
  - { offsetInCU: 0xC6A9, offset: 0xC6A9, size: 0x8, addend: 0x0, symName: __ZN5mpark3lib5cpp179addressofIKN2xt13xellipsis_tagEEEPT_RS6_, symObjAddr: 0xC1A8, symBinAddr: 0x10000F030, symSize: 0x14 }
  - { offsetInCU: 0xC6E0, offset: 0xC6E0, size: 0x8, addend: 0x0, symName: __ZN5mpark3lib5cpp179addressofIKN2xt8xall_tagEEEPT_RS6_, symObjAddr: 0xC5B4, symBinAddr: 0x10000F43C, symSize: 0x14 }
  - { offsetInCU: 0xC717, offset: 0xC717, size: 0x8, addend: 0x0, symName: __ZN5mpark3lib5cpp176invokeINS_6detail10visitation7variant13value_visitorIRN2xt6detail17slice_getter_implINS7_7svectorImLm4ENSt3__19allocatorImEELb1EEEEEEEJRKNS3_3altILm0ElEEEEEDTclsr6detailE6invokeclsr3libE7forwardIT_Efp_Espclsr3libE7forwardIT0_Efp0_EEEOSM_DpOSN_, symObjAddr: 0xD3EC, symBinAddr: 0x100010274, symSize: 0x48 }
  - { offsetInCU: 0xC76D, offset: 0xC76D, size: 0x8, addend: 0x0, symName: __ZN5mpark3lib5cpp176detail6invokeINS_6detail10visitation7variant13value_visitorIRN2xt6detail17slice_getter_implINS8_7svectorImLm4ENSt3__19allocatorImEELb1EEEEEEEJRKNS4_3altILm0ElEEEEEDTclclsr3libE7forwardIT_Efp_Espclsr3libE7forwardIT0_Efp0_EEEOSN_DpOSO_, symObjAddr: 0xD448, symBinAddr: 0x1000102D0, symSize: 0x48 }
  - { offsetInCU: 0xC7BE, offset: 0xC7BE, size: 0x8, addend: 0x0, symName: __ZN5mpark3lib5cpp176detail6invokeIRN2xt6detail17slice_getter_implINS4_7svectorImLm4ENSt3__19allocatorImEELb1EEEEEJRKlEEEDTclclsr3libE7forwardIT_Efp_Espclsr3libE7forwardIT0_Efp0_EEEOSG_DpOSH_, symObjAddr: 0xD580, symBinAddr: 0x100010408, symSize: 0x48 }
  - { offsetInCU: 0xC80F, offset: 0xC80F, size: 0x8, addend: 0x0, symName: __ZN5mpark3lib5cpp176detail6invokeINS_6detail10visitation7variant13value_visitorIRN2xt6detail17slice_getter_implINS8_7svectorImLm4ENSt3__19allocatorImEELb1EEEEEEEJRKNS4_3altILm1ENS8_14xrange_adaptorINS8_12placeholders5xtuphEllEEEEEEEDTclclsr3libE7forwardIT_Efp_Espclsr3libE7forwardIT0_Efp0_EEEOSR_DpOSS_, symObjAddr: 0xD6D4, symBinAddr: 0x10001055C, symSize: 0x48 }
  - { offsetInCU: 0xC860, offset: 0xC860, size: 0x8, addend: 0x0, symName: __ZN5mpark3lib5cpp176detail6invokeIRN2xt6detail17slice_getter_implINS4_7svectorImLm4ENSt3__19allocatorImEELb1EEEEEJRKNS4_14xrange_adaptorINS4_12placeholders5xtuphEllEEEEEDTclclsr3libE7forwardIT_Efp_Espclsr3libE7forwardIT0_Efp0_EEEOSK_DpOSL_, symObjAddr: 0xD80C, symBinAddr: 0x100010694, symSize: 0x48 }
  - { offsetInCU: 0xC8B1, offset: 0xC8B1, size: 0x8, addend: 0x0, symName: __ZN5mpark3lib5cpp176detail6invokeINS_6detail10visitation7variant13value_visitorIRN2xt6detail17slice_getter_implINS8_7svectorImLm4ENSt3__19allocatorImEELb1EEEEEEEJRKNS4_3altILm2ENS8_14xrange_adaptorIlNS8_12placeholders5xtuphElEEEEEEEDTclclsr3libE7forwardIT_Efp_Espclsr3libE7forwardIT0_Efp0_EEEOSR_DpOSS_, symObjAddr: 0xDEE0, symBinAddr: 0x100010D68, symSize: 0x48 }
  - { offsetInCU: 0xC902, offset: 0xC902, size: 0x8, addend: 0x0, symName: __ZN5mpark3lib5cpp176detail6invokeIRN2xt6detail17slice_getter_implINS4_7svectorImLm4ENSt3__19allocatorImEELb1EEEEEJRKNS4_14xrange_adaptorIlNS4_12placeholders5xtuphElEEEEEDTclclsr3libE7forwardIT_Efp_Espclsr3libE7forwardIT0_Efp0_EEEOSK_DpOSL_, symObjAddr: 0xE018, symBinAddr: 0x100010EA0, symSize: 0x48 }
  - { offsetInCU: 0xC953, offset: 0xC953, size: 0x8, addend: 0x0, symName: __ZN5mpark3lib5cpp176detail6invokeINS_6detail10visitation7variant13value_visitorIRN2xt6detail17slice_getter_implINS8_7svectorImLm4ENSt3__19allocatorImEELb1EEEEEEEJRKNS4_3altILm3ENS8_14xrange_adaptorIllNS8_12placeholders5xtuphEEEEEEEEDTclclsr3libE7forwardIT_Efp_Espclsr3libE7forwardIT0_Efp0_EEEOSR_DpOSS_, symObjAddr: 0xE47C, symBinAddr: 0x100011304, symSize: 0x48 }
  - { offsetInCU: 0xC9A4, offset: 0xC9A4, size: 0x8, addend: 0x0, symName: __ZN5mpark3lib5cpp176detail6invokeIRN2xt6detail17slice_getter_implINS4_7svectorImLm4ENSt3__19allocatorImEELb1EEEEEJRKNS4_14xrange_adaptorIllNS4_12placeholders5xtuphEEEEEEDTclclsr3libE7forwardIT_Efp_Espclsr3libE7forwardIT0_Efp0_EEEOSK_DpOSL_, symObjAddr: 0xE5B4, symBinAddr: 0x10001143C, symSize: 0x48 }
  - { offsetInCU: 0xC9F5, offset: 0xC9F5, size: 0x8, addend: 0x0, symName: __ZN5mpark3lib5cpp176detail6invokeINS_6detail10visitation7variant13value_visitorIRN2xt6detail17slice_getter_implINS8_7svectorImLm4ENSt3__19allocatorImEELb1EEEEEEEJRKNS4_3altILm4ENS8_14xrange_adaptorIlNS8_12placeholders5xtuphESM_EEEEEEEDTclclsr3libE7forwardIT_Efp_Espclsr3libE7forwardIT0_Efp0_EEEOSR_DpOSS_, symObjAddr: 0xE9F0, symBinAddr: 0x100011878, symSize: 0x48 }
  - { offsetInCU: 0xCA46, offset: 0xCA46, size: 0x8, addend: 0x0, symName: __ZN5mpark3lib5cpp176detail6invokeIRN2xt6detail17slice_getter_implINS4_7svectorImLm4ENSt3__19allocatorImEELb1EEEEEJRKNS4_14xrange_adaptorIlNS4_12placeholders5xtuphESG_EEEEEDTclclsr3libE7forwardIT_Efp_Espclsr3libE7forwardIT0_Efp0_EEEOSK_DpOSL_, symObjAddr: 0xEB28, symBinAddr: 0x1000119B0, symSize: 0x48 }
  - { offsetInCU: 0xCA97, offset: 0xCA97, size: 0x8, addend: 0x0, symName: __ZN5mpark3lib5cpp176detail6invokeINS_6detail10visitation7variant13value_visitorIRN2xt6detail17slice_getter_implINS8_7svectorImLm4ENSt3__19allocatorImEELb1EEEEEEEJRKNS4_3altILm5ENS8_14xrange_adaptorINS8_12placeholders5xtuphElSM_EEEEEEEDTclclsr3libE7forwardIT_Efp_Espclsr3libE7forwardIT0_Efp0_EEEOSR_DpOSS_, symObjAddr: 0xEE70, symBinAddr: 0x100011CF8, symSize: 0x48 }
  - { offsetInCU: 0xCAE8, offset: 0xCAE8, size: 0x8, addend: 0x0, symName: __ZN5mpark3lib5cpp176detail6invokeIRN2xt6detail17slice_getter_implINS4_7svectorImLm4ENSt3__19allocatorImEELb1EEEEEJRKNS4_14xrange_adaptorINS4_12placeholders5xtuphElSG_EEEEEDTclclsr3libE7forwardIT_Efp_Espclsr3libE7forwardIT0_Efp0_EEEOSK_DpOSL_, symObjAddr: 0xEFA8, symBinAddr: 0x100011E30, symSize: 0x48 }
  - { offsetInCU: 0xCB39, offset: 0xCB39, size: 0x8, addend: 0x0, symName: __ZN5mpark3lib5cpp176detail6invokeINS_6detail10visitation7variant13value_visitorIRN2xt6detail17slice_getter_implINS8_7svectorImLm4ENSt3__19allocatorImEELb1EEEEEEEJRKNS4_3altILm6ENS8_14xrange_adaptorINS8_12placeholders5xtuphESM_lEEEEEEEDTclclsr3libE7forwardIT_Efp_Espclsr3libE7forwardIT0_Efp0_EEEOSR_DpOSS_, symObjAddr: 0xF318, symBinAddr: 0x1000121A0, symSize: 0x48 }
  - { offsetInCU: 0xCB8A, offset: 0xCB8A, size: 0x8, addend: 0x0, symName: __ZN5mpark3lib5cpp176detail6invokeIRN2xt6detail17slice_getter_implINS4_7svectorImLm4ENSt3__19allocatorImEELb1EEEEEJRKNS4_14xrange_adaptorINS4_12placeholders5xtuphESG_lEEEEEDTclclsr3libE7forwardIT_Efp_Espclsr3libE7forwardIT0_Efp0_EEEOSK_DpOSL_, symObjAddr: 0xF450, symBinAddr: 0x1000122D8, symSize: 0x48 }
  - { offsetInCU: 0xCBDB, offset: 0xCBDB, size: 0x8, addend: 0x0, symName: __ZN5mpark3lib5cpp176detail6invokeINS_6detail10visitation7variant13value_visitorIRN2xt6detail17slice_getter_implINS8_7svectorImLm4ENSt3__19allocatorImEELb1EEEEEEEJRKNS4_3altILm7ENS8_14xrange_adaptorIlllEEEEEEEDTclclsr3libE7forwardIT_Efp_Espclsr3libE7forwardIT0_Efp0_EEEOSP_DpOSQ_, symObjAddr: 0xF7C0, symBinAddr: 0x100012648, symSize: 0x48 }
  - { offsetInCU: 0xCC2C, offset: 0xCC2C, size: 0x8, addend: 0x0, symName: __ZN5mpark3lib5cpp176detail6invokeIRN2xt6detail17slice_getter_implINS4_7svectorImLm4ENSt3__19allocatorImEELb1EEEEEJRKNS4_14xrange_adaptorIlllEEEEEDTclclsr3libE7forwardIT_Efp_Espclsr3libE7forwardIT0_Efp0_EEEOSI_DpOSJ_, symObjAddr: 0xF8F8, symBinAddr: 0x100012780, symSize: 0x48 }
  - { offsetInCU: 0xCC7D, offset: 0xCC7D, size: 0x8, addend: 0x0, symName: __ZN5mpark3lib5cpp176detail6invokeINS_6detail10visitation7variant13value_visitorIRN2xt6detail17slice_getter_implINS8_7svectorImLm4ENSt3__19allocatorImEELb1EEEEEEEJRKNS4_3altILm8ENS8_14xrange_adaptorINS8_12placeholders5xtuphESM_SM_EEEEEEEDTclclsr3libE7forwardIT_Efp_Espclsr3libE7forwardIT0_Efp0_EEEOSR_DpOSS_, symObjAddr: 0xFDCC, symBinAddr: 0x100012C54, symSize: 0x48 }
  - { offsetInCU: 0xCCCE, offset: 0xCCCE, size: 0x8, addend: 0x0, symName: __ZN5mpark3lib5cpp176detail6invokeIRN2xt6detail17slice_getter_implINS4_7svectorImLm4ENSt3__19allocatorImEELb1EEEEEJRKNS4_14xrange_adaptorINS4_12placeholders5xtuphESG_SG_EEEEEDTclclsr3libE7forwardIT_Efp_Espclsr3libE7forwardIT0_Efp0_EEEOSK_DpOSL_, symObjAddr: 0xFF04, symBinAddr: 0x100012D8C, symSize: 0x48 }
  - { offsetInCU: 0xCD1F, offset: 0xCD1F, size: 0x8, addend: 0x0, symName: __ZN5mpark3lib5cpp176detail6invokeINS_6detail10visitation7variant13value_visitorIRN2xt6detail17slice_getter_implINS8_7svectorImLm4ENSt3__19allocatorImEELb1EEEEEEEJRKNS4_3altILm9ENS8_6xrangeIlEEEEEEEDTclclsr3libE7forwardIT_Efp_Espclsr3libE7forwardIT0_Efp0_EEEOSP_DpOSQ_, symObjAddr: 0x102DC, symBinAddr: 0x100013164, symSize: 0x48 }
  - { offsetInCU: 0xCD70, offset: 0xCD70, size: 0x8, addend: 0x0, symName: __ZN5mpark3lib5cpp176detail6invokeIRN2xt6detail17slice_getter_implINS4_7svectorImLm4ENSt3__19allocatorImEELb1EEEEEJRKNS4_6xrangeIlEEEEEDTclclsr3libE7forwardIT_Efp_Espclsr3libE7forwardIT0_Efp0_EEEOSI_DpOSJ_, symObjAddr: 0x10414, symBinAddr: 0x10001329C, symSize: 0x48 }
  - { offsetInCU: 0xCDC1, offset: 0xCDC1, size: 0x8, addend: 0x0, symName: __ZN5mpark3lib5cpp176detail6invokeINS_6detail10visitation7variant13value_visitorIRN2xt6detail17slice_getter_implINS8_7svectorImLm4ENSt3__19allocatorImEELb1EEEEEEEJRKNS4_3altILm10ENS8_14xstepped_rangeIlEEEEEEEDTclclsr3libE7forwardIT_Efp_Espclsr3libE7forwardIT0_Efp0_EEEOSP_DpOSQ_, symObjAddr: 0x10708, symBinAddr: 0x100013590, symSize: 0x48 }
  - { offsetInCU: 0xCE12, offset: 0xCE12, size: 0x8, addend: 0x0, symName: __ZN5mpark3lib5cpp176detail6invokeIRN2xt6detail17slice_getter_implINS4_7svectorImLm4ENSt3__19allocatorImEELb1EEEEEJRKNS4_14xstepped_rangeIlEEEEEDTclclsr3libE7forwardIT_Efp_Espclsr3libE7forwardIT0_Efp0_EEEOSI_DpOSJ_, symObjAddr: 0x10840, symBinAddr: 0x1000136C8, symSize: 0x48 }
  - { offsetInCU: 0xCE63, offset: 0xCE63, size: 0x8, addend: 0x0, symName: __ZN5mpark3lib5cpp176detail6invokeINS_6detail10visitation7variant13value_visitorIRN2xt6detail17slice_getter_implINS8_7svectorImLm4ENSt3__19allocatorImEELb1EEEEEEEJRKNS4_3altILm11ENS8_8xall_tagEEEEEEDTclclsr3libE7forwardIT_Efp_Espclsr3libE7forwardIT0_Efp0_EEEOSO_DpOSP_, symObjAddr: 0x10B98, symBinAddr: 0x100013A20, symSize: 0x48 }
  - { offsetInCU: 0xCEB4, offset: 0xCEB4, size: 0x8, addend: 0x0, symName: __ZN5mpark3lib5cpp176detail6invokeIRN2xt6detail17slice_getter_implINS4_7svectorImLm4ENSt3__19allocatorImEELb1EEEEEJRKNS4_8xall_tagEEEEDTclclsr3libE7forwardIT_Efp_Espclsr3libE7forwardIT0_Efp0_EEEOSH_DpOSI_, symObjAddr: 0x10CD0, symBinAddr: 0x100013B58, symSize: 0x48 }
  - { offsetInCU: 0xCF05, offset: 0xCF05, size: 0x8, addend: 0x0, symName: __ZN5mpark3lib5cpp176detail6invokeINS_6detail10visitation7variant13value_visitorIRN2xt6detail17slice_getter_implINS8_7svectorImLm4ENSt3__19allocatorImEELb1EEEEEEEJRKNS4_3altILm12ENS8_13xellipsis_tagEEEEEEDTclclsr3libE7forwardIT_Efp_Espclsr3libE7forwardIT0_Efp0_EEEOSO_DpOSP_, symObjAddr: 0x10E24, symBinAddr: 0x100013CAC, symSize: 0x48 }
  - { offsetInCU: 0xCF56, offset: 0xCF56, size: 0x8, addend: 0x0, symName: __ZN5mpark3lib5cpp176detail6invokeIRN2xt6detail17slice_getter_implINS4_7svectorImLm4ENSt3__19allocatorImEELb1EEEEEJRKNS4_13xellipsis_tagEEEEDTclclsr3libE7forwardIT_Efp_Espclsr3libE7forwardIT0_Efp0_EEEOSH_DpOSI_, symObjAddr: 0x10F5C, symBinAddr: 0x100013DE4, symSize: 0x48 }
  - { offsetInCU: 0xCFA7, offset: 0xCFA7, size: 0x8, addend: 0x0, symName: __ZN5mpark3lib5cpp176detail6invokeINS_6detail10visitation7variant13value_visitorIRN2xt6detail17slice_getter_implINS8_7svectorImLm4ENSt3__19allocatorImEELb1EEEEEEEJRKNS4_3altILm13ENS8_12xnewaxis_tagEEEEEEDTclclsr3libE7forwardIT_Efp_Espclsr3libE7forwardIT0_Efp0_EEEOSO_DpOSP_, symObjAddr: 0x110B0, symBinAddr: 0x100013F38, symSize: 0x48 }
  - { offsetInCU: 0xCFF8, offset: 0xCFF8, size: 0x8, addend: 0x0, symName: __ZN5mpark3lib5cpp176detail6invokeIRN2xt6detail17slice_getter_implINS4_7svectorImLm4ENSt3__19allocatorImEELb1EEEEEJRKNS4_12xnewaxis_tagEEEEDTclclsr3libE7forwardIT_Efp_Espclsr3libE7forwardIT0_Efp0_EEEOSH_DpOSI_, symObjAddr: 0x111E8, symBinAddr: 0x100014070, symSize: 0x48 }
  - { offsetInCU: 0xD04A, offset: 0xD04A, size: 0x8, addend: 0x0, symName: __ZN5mpark3lib5cpp176invokeIRN2xt6detail17slice_getter_implINS3_7svectorImLm4ENSt3__19allocatorImEELb1EEEEEJRKlEEEDTclsr6detailE6invokeclsr3libE7forwardIT_Efp_Espclsr3libE7forwardIT0_Efp0_EEEOSF_DpOSG_, symObjAddr: 0xD524, symBinAddr: 0x1000103AC, symSize: 0x48 }
  - { offsetInCU: 0xD09B, offset: 0xD09B, size: 0x8, addend: 0x0, symName: __ZN5mpark3lib5cpp176invokeINS_6detail10visitation7variant13value_visitorIRN2xt6detail17slice_getter_implINS7_7svectorImLm4ENSt3__19allocatorImEELb1EEEEEEEJRKNS3_3altILm1ENS7_14xrange_adaptorINS7_12placeholders5xtuphEllEEEEEEEDTclsr6detailE6invokeclsr3libE7forwardIT_Efp_Espclsr3libE7forwardIT0_Efp0_EEEOSQ_DpOSR_, symObjAddr: 0xD678, symBinAddr: 0x100010500, symSize: 0x48 }
  - { offsetInCU: 0xD0EC, offset: 0xD0EC, size: 0x8, addend: 0x0, symName: __ZN5mpark3lib5cpp176invokeIRN2xt6detail17slice_getter_implINS3_7svectorImLm4ENSt3__19allocatorImEELb1EEEEEJRKNS3_14xrange_adaptorINS3_12placeholders5xtuphEllEEEEEDTclsr6detailE6invokeclsr3libE7forwardIT_Efp_Espclsr3libE7forwardIT0_Efp0_EEEOSJ_DpOSK_, symObjAddr: 0xD7B0, symBinAddr: 0x100010638, symSize: 0x48 }
  - { offsetInCU: 0xD13D, offset: 0xD13D, size: 0x8, addend: 0x0, symName: __ZN5mpark3lib5cpp176invokeINS_6detail10visitation7variant13value_visitorIRN2xt6detail17slice_getter_implINS7_7svectorImLm4ENSt3__19allocatorImEELb1EEEEEEEJRKNS3_3altILm2ENS7_14xrange_adaptorIlNS7_12placeholders5xtuphElEEEEEEEDTclsr6detailE6invokeclsr3libE7forwardIT_Efp_Espclsr3libE7forwardIT0_Efp0_EEEOSQ_DpOSR_, symObjAddr: 0xDE84, symBinAddr: 0x100010D0C, symSize: 0x48 }
  - { offsetInCU: 0xD18E, offset: 0xD18E, size: 0x8, addend: 0x0, symName: __ZN5mpark3lib5cpp176invokeIRN2xt6detail17slice_getter_implINS3_7svectorImLm4ENSt3__19allocatorImEELb1EEEEEJRKNS3_14xrange_adaptorIlNS3_12placeholders5xtuphElEEEEEDTclsr6detailE6invokeclsr3libE7forwardIT_Efp_Espclsr3libE7forwardIT0_Efp0_EEEOSJ_DpOSK_, symObjAddr: 0xDFBC, symBinAddr: 0x100010E44, symSize: 0x48 }
  - { offsetInCU: 0xD1DF, offset: 0xD1DF, size: 0x8, addend: 0x0, symName: __ZN5mpark3lib5cpp176invokeINS_6detail10visitation7variant13value_visitorIRN2xt6detail17slice_getter_implINS7_7svectorImLm4ENSt3__19allocatorImEELb1EEEEEEEJRKNS3_3altILm3ENS7_14xrange_adaptorIllNS7_12placeholders5xtuphEEEEEEEEDTclsr6detailE6invokeclsr3libE7forwardIT_Efp_Espclsr3libE7forwardIT0_Efp0_EEEOSQ_DpOSR_, symObjAddr: 0xE420, symBinAddr: 0x1000112A8, symSize: 0x48 }
  - { offsetInCU: 0xD230, offset: 0xD230, size: 0x8, addend: 0x0, symName: __ZN5mpark3lib5cpp176invokeIRN2xt6detail17slice_getter_implINS3_7svectorImLm4ENSt3__19allocatorImEELb1EEEEEJRKNS3_14xrange_adaptorIllNS3_12placeholders5xtuphEEEEEEDTclsr6detailE6invokeclsr3libE7forwardIT_Efp_Espclsr3libE7forwardIT0_Efp0_EEEOSJ_DpOSK_, symObjAddr: 0xE558, symBinAddr: 0x1000113E0, symSize: 0x48 }
  - { offsetInCU: 0xD281, offset: 0xD281, size: 0x8, addend: 0x0, symName: __ZN5mpark3lib5cpp176invokeINS_6detail10visitation7variant13value_visitorIRN2xt6detail17slice_getter_implINS7_7svectorImLm4ENSt3__19allocatorImEELb1EEEEEEEJRKNS3_3altILm4ENS7_14xrange_adaptorIlNS7_12placeholders5xtuphESL_EEEEEEEDTclsr6detailE6invokeclsr3libE7forwardIT_Efp_Espclsr3libE7forwardIT0_Efp0_EEEOSQ_DpOSR_, symObjAddr: 0xE994, symBinAddr: 0x10001181C, symSize: 0x48 }
  - { offsetInCU: 0xD2D2, offset: 0xD2D2, size: 0x8, addend: 0x0, symName: __ZN5mpark3lib5cpp176invokeIRN2xt6detail17slice_getter_implINS3_7svectorImLm4ENSt3__19allocatorImEELb1EEEEEJRKNS3_14xrange_adaptorIlNS3_12placeholders5xtuphESF_EEEEEDTclsr6detailE6invokeclsr3libE7forwardIT_Efp_Espclsr3libE7forwardIT0_Efp0_EEEOSJ_DpOSK_, symObjAddr: 0xEACC, symBinAddr: 0x100011954, symSize: 0x48 }
  - { offsetInCU: 0xD323, offset: 0xD323, size: 0x8, addend: 0x0, symName: __ZN5mpark3lib5cpp176invokeINS_6detail10visitation7variant13value_visitorIRN2xt6detail17slice_getter_implINS7_7svectorImLm4ENSt3__19allocatorImEELb1EEEEEEEJRKNS3_3altILm5ENS7_14xrange_adaptorINS7_12placeholders5xtuphElSL_EEEEEEEDTclsr6detailE6invokeclsr3libE7forwardIT_Efp_Espclsr3libE7forwardIT0_Efp0_EEEOSQ_DpOSR_, symObjAddr: 0xEE14, symBinAddr: 0x100011C9C, symSize: 0x48 }
  - { offsetInCU: 0xD374, offset: 0xD374, size: 0x8, addend: 0x0, symName: __ZN5mpark3lib5cpp176invokeIRN2xt6detail17slice_getter_implINS3_7svectorImLm4ENSt3__19allocatorImEELb1EEEEEJRKNS3_14xrange_adaptorINS3_12placeholders5xtuphElSF_EEEEEDTclsr6detailE6invokeclsr3libE7forwardIT_Efp_Espclsr3libE7forwardIT0_Efp0_EEEOSJ_DpOSK_, symObjAddr: 0xEF4C, symBinAddr: 0x100011DD4, symSize: 0x48 }
  - { offsetInCU: 0xD3C5, offset: 0xD3C5, size: 0x8, addend: 0x0, symName: __ZN5mpark3lib5cpp176invokeINS_6detail10visitation7variant13value_visitorIRN2xt6detail17slice_getter_implINS7_7svectorImLm4ENSt3__19allocatorImEELb1EEEEEEEJRKNS3_3altILm6ENS7_14xrange_adaptorINS7_12placeholders5xtuphESL_lEEEEEEEDTclsr6detailE6invokeclsr3libE7forwardIT_Efp_Espclsr3libE7forwardIT0_Efp0_EEEOSQ_DpOSR_, symObjAddr: 0xF2BC, symBinAddr: 0x100012144, symSize: 0x48 }
  - { offsetInCU: 0xD416, offset: 0xD416, size: 0x8, addend: 0x0, symName: __ZN5mpark3lib5cpp176invokeIRN2xt6detail17slice_getter_implINS3_7svectorImLm4ENSt3__19allocatorImEELb1EEEEEJRKNS3_14xrange_adaptorINS3_12placeholders5xtuphESF_lEEEEEDTclsr6detailE6invokeclsr3libE7forwardIT_Efp_Espclsr3libE7forwardIT0_Efp0_EEEOSJ_DpOSK_, symObjAddr: 0xF3F4, symBinAddr: 0x10001227C, symSize: 0x48 }
  - { offsetInCU: 0xD467, offset: 0xD467, size: 0x8, addend: 0x0, symName: __ZN5mpark3lib5cpp176invokeINS_6detail10visitation7variant13value_visitorIRN2xt6detail17slice_getter_implINS7_7svectorImLm4ENSt3__19allocatorImEELb1EEEEEEEJRKNS3_3altILm7ENS7_14xrange_adaptorIlllEEEEEEEDTclsr6detailE6invokeclsr3libE7forwardIT_Efp_Espclsr3libE7forwardIT0_Efp0_EEEOSO_DpOSP_, symObjAddr: 0xF764, symBinAddr: 0x1000125EC, symSize: 0x48 }
  - { offsetInCU: 0xD4B8, offset: 0xD4B8, size: 0x8, addend: 0x0, symName: __ZN5mpark3lib5cpp176invokeIRN2xt6detail17slice_getter_implINS3_7svectorImLm4ENSt3__19allocatorImEELb1EEEEEJRKNS3_14xrange_adaptorIlllEEEEEDTclsr6detailE6invokeclsr3libE7forwardIT_Efp_Espclsr3libE7forwardIT0_Efp0_EEEOSH_DpOSI_, symObjAddr: 0xF89C, symBinAddr: 0x100012724, symSize: 0x48 }
  - { offsetInCU: 0xD509, offset: 0xD509, size: 0x8, addend: 0x0, symName: __ZN5mpark3lib5cpp176invokeINS_6detail10visitation7variant13value_visitorIRN2xt6detail17slice_getter_implINS7_7svectorImLm4ENSt3__19allocatorImEELb1EEEEEEEJRKNS3_3altILm8ENS7_14xrange_adaptorINS7_12placeholders5xtuphESL_SL_EEEEEEEDTclsr6detailE6invokeclsr3libE7forwardIT_Efp_Espclsr3libE7forwardIT0_Efp0_EEEOSQ_DpOSR_, symObjAddr: 0xFD70, symBinAddr: 0x100012BF8, symSize: 0x48 }
  - { offsetInCU: 0xD55A, offset: 0xD55A, size: 0x8, addend: 0x0, symName: __ZN5mpark3lib5cpp176invokeIRN2xt6detail17slice_getter_implINS3_7svectorImLm4ENSt3__19allocatorImEELb1EEEEEJRKNS3_14xrange_adaptorINS3_12placeholders5xtuphESF_SF_EEEEEDTclsr6detailE6invokeclsr3libE7forwardIT_Efp_Espclsr3libE7forwardIT0_Efp0_EEEOSJ_DpOSK_, symObjAddr: 0xFEA8, symBinAddr: 0x100012D30, symSize: 0x48 }
  - { offsetInCU: 0xD5AB, offset: 0xD5AB, size: 0x8, addend: 0x0, symName: __ZN5mpark3lib5cpp176invokeINS_6detail10visitation7variant13value_visitorIRN2xt6detail17slice_getter_implINS7_7svectorImLm4ENSt3__19allocatorImEELb1EEEEEEEJRKNS3_3altILm9ENS7_6xrangeIlEEEEEEEDTclsr6detailE6invokeclsr3libE7forwardIT_Efp_Espclsr3libE7forwardIT0_Efp0_EEEOSO_DpOSP_, symObjAddr: 0x10280, symBinAddr: 0x100013108, symSize: 0x48 }
  - { offsetInCU: 0xD5FC, offset: 0xD5FC, size: 0x8, addend: 0x0, symName: __ZN5mpark3lib5cpp176invokeIRN2xt6detail17slice_getter_implINS3_7svectorImLm4ENSt3__19allocatorImEELb1EEEEEJRKNS3_6xrangeIlEEEEEDTclsr6detailE6invokeclsr3libE7forwardIT_Efp_Espclsr3libE7forwardIT0_Efp0_EEEOSH_DpOSI_, symObjAddr: 0x103B8, symBinAddr: 0x100013240, symSize: 0x48 }
  - { offsetInCU: 0xD64D, offset: 0xD64D, size: 0x8, addend: 0x0, symName: __ZN5mpark3lib5cpp176invokeINS_6detail10visitation7variant13value_visitorIRN2xt6detail17slice_getter_implINS7_7svectorImLm4ENSt3__19allocatorImEELb1EEEEEEEJRKNS3_3altILm10ENS7_14xstepped_rangeIlEEEEEEEDTclsr6detailE6invokeclsr3libE7forwardIT_Efp_Espclsr3libE7forwardIT0_Efp0_EEEOSO_DpOSP_, symObjAddr: 0x106AC, symBinAddr: 0x100013534, symSize: 0x48 }
  - { offsetInCU: 0xD69E, offset: 0xD69E, size: 0x8, addend: 0x0, symName: __ZN5mpark3lib5cpp176invokeIRN2xt6detail17slice_getter_implINS3_7svectorImLm4ENSt3__19allocatorImEELb1EEEEEJRKNS3_14xstepped_rangeIlEEEEEDTclsr6detailE6invokeclsr3libE7forwardIT_Efp_Espclsr3libE7forwardIT0_Efp0_EEEOSH_DpOSI_, symObjAddr: 0x107E4, symBinAddr: 0x10001366C, symSize: 0x48 }
  - { offsetInCU: 0xD6EF, offset: 0xD6EF, size: 0x8, addend: 0x0, symName: __ZN5mpark3lib5cpp176invokeINS_6detail10visitation7variant13value_visitorIRN2xt6detail17slice_getter_implINS7_7svectorImLm4ENSt3__19allocatorImEELb1EEEEEEEJRKNS3_3altILm11ENS7_8xall_tagEEEEEEDTclsr6detailE6invokeclsr3libE7forwardIT_Efp_Espclsr3libE7forwardIT0_Efp0_EEEOSN_DpOSO_, symObjAddr: 0x10B3C, symBinAddr: 0x1000139C4, symSize: 0x48 }
  - { offsetInCU: 0xD740, offset: 0xD740, size: 0x8, addend: 0x0, symName: __ZN5mpark3lib5cpp176invokeIRN2xt6detail17slice_getter_implINS3_7svectorImLm4ENSt3__19allocatorImEELb1EEEEEJRKNS3_8xall_tagEEEEDTclsr6detailE6invokeclsr3libE7forwardIT_Efp_Espclsr3libE7forwardIT0_Efp0_EEEOSG_DpOSH_, symObjAddr: 0x10C74, symBinAddr: 0x100013AFC, symSize: 0x48 }
  - { offsetInCU: 0xD791, offset: 0xD791, size: 0x8, addend: 0x0, symName: __ZN5mpark3lib5cpp176invokeINS_6detail10visitation7variant13value_visitorIRN2xt6detail17slice_getter_implINS7_7svectorImLm4ENSt3__19allocatorImEELb1EEEEEEEJRKNS3_3altILm12ENS7_13xellipsis_tagEEEEEEDTclsr6detailE6invokeclsr3libE7forwardIT_Efp_Espclsr3libE7forwardIT0_Efp0_EEEOSN_DpOSO_, symObjAddr: 0x10DC8, symBinAddr: 0x100013C50, symSize: 0x48 }
  - { offsetInCU: 0xD7E2, offset: 0xD7E2, size: 0x8, addend: 0x0, symName: __ZN5mpark3lib5cpp176invokeIRN2xt6detail17slice_getter_implINS3_7svectorImLm4ENSt3__19allocatorImEELb1EEEEEJRKNS3_13xellipsis_tagEEEEDTclsr6detailE6invokeclsr3libE7forwardIT_Efp_Espclsr3libE7forwardIT0_Efp0_EEEOSG_DpOSH_, symObjAddr: 0x10F00, symBinAddr: 0x100013D88, symSize: 0x48 }
  - { offsetInCU: 0xD833, offset: 0xD833, size: 0x8, addend: 0x0, symName: __ZN5mpark3lib5cpp176invokeINS_6detail10visitation7variant13value_visitorIRN2xt6detail17slice_getter_implINS7_7svectorImLm4ENSt3__19allocatorImEELb1EEEEEEEJRKNS3_3altILm13ENS7_12xnewaxis_tagEEEEEEDTclsr6detailE6invokeclsr3libE7forwardIT_Efp_Espclsr3libE7forwardIT0_Efp0_EEEOSN_DpOSO_, symObjAddr: 0x11054, symBinAddr: 0x100013EDC, symSize: 0x48 }
  - { offsetInCU: 0xD884, offset: 0xD884, size: 0x8, addend: 0x0, symName: __ZN5mpark3lib5cpp176invokeIRN2xt6detail17slice_getter_implINS3_7svectorImLm4ENSt3__19allocatorImEELb1EEEEEJRKNS3_12xnewaxis_tagEEEEDTclsr6detailE6invokeclsr3libE7forwardIT_Efp_Espclsr3libE7forwardIT0_Efp0_EEEOSG_DpOSH_, symObjAddr: 0x1118C, symBinAddr: 0x100014014, symSize: 0x48 }
  - { offsetInCU: 0xD8DB, offset: 0xD8DB, size: 0x8, addend: 0x0, symName: __ZN5mpark3lib5cpp147forwardIRKNS_7variantIJlN2xt14xrange_adaptorINS4_12placeholders5xtuphEllEENS5_IlS7_lEENS5_IllS7_EENS5_IlS7_S7_EENS5_IS7_lS7_EENS5_IS7_S7_lEENS5_IlllEENS5_IS7_S7_S7_EENS4_6xrangeIlEENS4_14xstepped_rangeIlEENS4_8xall_tagENS4_13xellipsis_tagENS4_12xnewaxis_tagEEEEEEOT_RNSt3__116remove_referenceISQ_E4typeE, symObjAddr: 0xBC0C, symBinAddr: 0x10000EA94, symSize: 0x14 }
  - { offsetInCU: 0xD912, offset: 0xD912, size: 0x8, addend: 0x0, symName: __ZN5mpark3lib5cpp147forwardIRKNS_6detail4implIJlN2xt14xrange_adaptorINS5_12placeholders5xtuphEllEENS6_IlS8_lEENS6_IllS8_EENS6_IlS8_S8_EENS6_IS8_lS8_EENS6_IS8_S8_lEENS6_IlllEENS6_IS8_S8_S8_EENS5_6xrangeIlEENS5_14xstepped_rangeIlEENS5_8xall_tagENS5_13xellipsis_tagENS5_12xnewaxis_tagEEEEEEOT_RNSt3__116remove_referenceISR_E4typeE, symObjAddr: 0xBC5C, symBinAddr: 0x10000EAE4, symSize: 0x14 }
  - { offsetInCU: 0xD949, offset: 0xD949, size: 0x8, addend: 0x0, symName: __ZN5mpark3lib5cpp147forwardIRKNS_6detail15recursive_unionILNS3_5TraitE0ELm0EJlN2xt14xrange_adaptorINS6_12placeholders5xtuphEllEENS7_IlS9_lEENS7_IllS9_EENS7_IlS9_S9_EENS7_IS9_lS9_EENS7_IS9_S9_lEENS7_IlllEENS7_IS9_S9_S9_EENS6_6xrangeIlEENS6_14xstepped_rangeIlEENS6_8xall_tagENS6_13xellipsis_tagENS6_12xnewaxis_tagEEEEEEOT_RNSt3__116remove_referenceISS_E4typeE, symObjAddr: 0xBC98, symBinAddr: 0x10000EB20, symSize: 0x14 }
  - { offsetInCU: 0xD980, offset: 0xD980, size: 0x8, addend: 0x0, symName: __ZN5mpark3lib5cpp147forwardIRKNS_6detail15recursive_unionILNS3_5TraitE0ELm1EJN2xt14xrange_adaptorINS6_12placeholders5xtuphEllEENS7_IlS9_lEENS7_IllS9_EENS7_IlS9_S9_EENS7_IS9_lS9_EENS7_IS9_S9_lEENS7_IlllEENS7_IS9_S9_S9_EENS6_6xrangeIlEENS6_14xstepped_rangeIlEENS6_8xall_tagENS6_13xellipsis_tagENS6_12xnewaxis_tagEEEEEEOT_RNSt3__116remove_referenceISS_E4typeE, symObjAddr: 0xBCD4, symBinAddr: 0x10000EB5C, symSize: 0x14 }
  - { offsetInCU: 0xD9B7, offset: 0xD9B7, size: 0x8, addend: 0x0, symName: __ZN5mpark3lib5cpp147forwardIRKNS_6detail15recursive_unionILNS3_5TraitE0ELm2EJN2xt14xrange_adaptorIlNS6_12placeholders5xtuphElEENS7_IllS9_EENS7_IlS9_S9_EENS7_IS9_lS9_EENS7_IS9_S9_lEENS7_IlllEENS7_IS9_S9_S9_EENS6_6xrangeIlEENS6_14xstepped_rangeIlEENS6_8xall_tagENS6_13xellipsis_tagENS6_12xnewaxis_tagEEEEEEOT_RNSt3__116remove_referenceISR_E4typeE, symObjAddr: 0xBD10, symBinAddr: 0x10000EB98, symSize: 0x14 }
  - { offsetInCU: 0xD9EE, offset: 0xD9EE, size: 0x8, addend: 0x0, symName: __ZN5mpark3lib5cpp147forwardIRKNS_6detail15recursive_unionILNS3_5TraitE0ELm3EJN2xt14xrange_adaptorIllNS6_12placeholders5xtuphEEENS7_IlS9_S9_EENS7_IS9_lS9_EENS7_IS9_S9_lEENS7_IlllEENS7_IS9_S9_S9_EENS6_6xrangeIlEENS6_14xstepped_rangeIlEENS6_8xall_tagENS6_13xellipsis_tagENS6_12xnewaxis_tagEEEEEEOT_RNSt3__116remove_referenceISQ_E4typeE, symObjAddr: 0xBD4C, symBinAddr: 0x10000EBD4, symSize: 0x14 }
  - { offsetInCU: 0xDA25, offset: 0xDA25, size: 0x8, addend: 0x0, symName: __ZN5mpark3lib5cpp147forwardIRKNS_6detail15recursive_unionILNS3_5TraitE0ELm4EJN2xt14xrange_adaptorIlNS6_12placeholders5xtuphES9_EENS7_IS9_lS9_EENS7_IS9_S9_lEENS7_IlllEENS7_IS9_S9_S9_EENS6_6xrangeIlEENS6_14xstepped_rangeIlEENS6_8xall_tagENS6_13xellipsis_tagENS6_12xnewaxis_tagEEEEEEOT_RNSt3__116remove_referenceISP_E4typeE, symObjAddr: 0xBD88, symBinAddr: 0x10000EC10, symSize: 0x14 }
  - { offsetInCU: 0xDA5C, offset: 0xDA5C, size: 0x8, addend: 0x0, symName: __ZN5mpark3lib5cpp147forwardIRKNS_6detail15recursive_unionILNS3_5TraitE0ELm5EJN2xt14xrange_adaptorINS6_12placeholders5xtuphElS9_EENS7_IS9_S9_lEENS7_IlllEENS7_IS9_S9_S9_EENS6_6xrangeIlEENS6_14xstepped_rangeIlEENS6_8xall_tagENS6_13xellipsis_tagENS6_12xnewaxis_tagEEEEEEOT_RNSt3__116remove_referenceISO_E4typeE, symObjAddr: 0xBDC4, symBinAddr: 0x10000EC4C, symSize: 0x14 }
  - { offsetInCU: 0xDA93, offset: 0xDA93, size: 0x8, addend: 0x0, symName: __ZN5mpark3lib5cpp147forwardIRKNS_6detail15recursive_unionILNS3_5TraitE0ELm6EJN2xt14xrange_adaptorINS6_12placeholders5xtuphES9_lEENS7_IlllEENS7_IS9_S9_S9_EENS6_6xrangeIlEENS6_14xstepped_rangeIlEENS6_8xall_tagENS6_13xellipsis_tagENS6_12xnewaxis_tagEEEEEEOT_RNSt3__116remove_referenceISN_E4typeE, symObjAddr: 0xBE00, symBinAddr: 0x10000EC88, symSize: 0x14 }
  - { offsetInCU: 0xDACA, offset: 0xDACA, size: 0x8, addend: 0x0, symName: __ZN5mpark3lib5cpp147forwardIRKNS_6detail15recursive_unionILNS3_5TraitE0ELm7EJN2xt14xrange_adaptorIlllEENS7_INS6_12placeholders5xtuphESA_SA_EENS6_6xrangeIlEENS6_14xstepped_rangeIlEENS6_8xall_tagENS6_13xellipsis_tagENS6_12xnewaxis_tagEEEEEEOT_RNSt3__116remove_referenceISM_E4typeE, symObjAddr: 0xBE3C, symBinAddr: 0x10000ECC4, symSize: 0x14 }
  - { offsetInCU: 0xDB01, offset: 0xDB01, size: 0x8, addend: 0x0, symName: __ZN5mpark3lib5cpp147forwardIRKNS_6detail15recursive_unionILNS3_5TraitE0ELm8EJN2xt14xrange_adaptorINS6_12placeholders5xtuphES9_S9_EENS6_6xrangeIlEENS6_14xstepped_rangeIlEENS6_8xall_tagENS6_13xellipsis_tagENS6_12xnewaxis_tagEEEEEEOT_RNSt3__116remove_referenceISL_E4typeE, symObjAddr: 0xBE78, symBinAddr: 0x10000ED00, symSize: 0x14 }
  - { offsetInCU: 0xDB38, offset: 0xDB38, size: 0x8, addend: 0x0, symName: __ZN5mpark3lib5cpp147forwardIRKNS_6detail15recursive_unionILNS3_5TraitE0ELm9EJN2xt6xrangeIlEENS6_14xstepped_rangeIlEENS6_8xall_tagENS6_13xellipsis_tagENS6_12xnewaxis_tagEEEEEEOT_RNSt3__116remove_referenceISH_E4typeE, symObjAddr: 0xBEB4, symBinAddr: 0x10000ED3C, symSize: 0x14 }
  - { offsetInCU: 0xDB6F, offset: 0xDB6F, size: 0x8, addend: 0x0, symName: __ZN5mpark3lib5cpp147forwardIRKNS_6detail15recursive_unionILNS3_5TraitE0ELm10EJN2xt14xstepped_rangeIlEENS6_8xall_tagENS6_13xellipsis_tagENS6_12xnewaxis_tagEEEEEEOT_RNSt3__116remove_referenceISF_E4typeE, symObjAddr: 0xBEF0, symBinAddr: 0x10000ED78, symSize: 0x14 }
  - { offsetInCU: 0xDBA6, offset: 0xDBA6, size: 0x8, addend: 0x0, symName: __ZN5mpark3lib5cpp147forwardIRKNS_6detail15recursive_unionILNS3_5TraitE0ELm11EJN2xt8xall_tagENS6_13xellipsis_tagENS6_12xnewaxis_tagEEEEEEOT_RNSt3__116remove_referenceISD_E4typeE, symObjAddr: 0xBF2C, symBinAddr: 0x10000EDB4, symSize: 0x14 }
  - { offsetInCU: 0xDBDD, offset: 0xDBDD, size: 0x8, addend: 0x0, symName: __ZN5mpark3lib5cpp147forwardIRKNS_6detail15recursive_unionILNS3_5TraitE0ELm12EJN2xt13xellipsis_tagENS6_12xnewaxis_tagEEEEEEOT_RNSt3__116remove_referenceISC_E4typeE, symObjAddr: 0xBF64, symBinAddr: 0x10000EDEC, symSize: 0x14 }
  - { offsetInCU: 0xDC14, offset: 0xDC14, size: 0x8, addend: 0x0, symName: __ZN5mpark3lib5cpp147forwardIRKNS_6detail15recursive_unionILNS3_5TraitE0ELm13EJN2xt12xnewaxis_tagEEEEEEOT_RNSt3__116remove_referenceISB_E4typeE, symObjAddr: 0xBF78, symBinAddr: 0x10000EE00, symSize: 0x14 }
  - { offsetInCU: 0xDC4B, offset: 0xDC4B, size: 0x8, addend: 0x0, symName: __ZN5mpark3lib5cpp147forwardIRN2xt6detail17slice_getter_implINS3_7svectorImLm4ENSt3__19allocatorImEELb1EEEEEEEOT_RNS7_16remove_referenceISD_E4typeE, symObjAddr: 0xC96C, symBinAddr: 0x10000F7F4, symSize: 0x14 }
  - { offsetInCU: 0xDC82, offset: 0xDC82, size: 0x8, addend: 0x0, symName: __ZN5mpark3lib5cpp147forwardINS_6detail10visitation7variant13value_visitorIRN2xt6detail17slice_getter_implINS7_7svectorImLm4ENSt3__19allocatorImEELb1EEEEEEEEEOT_RNSB_16remove_referenceISI_E4typeE, symObjAddr: 0xD33C, symBinAddr: 0x1000101C4, symSize: 0x14 }
  - { offsetInCU: 0xDCB9, offset: 0xDCB9, size: 0x8, addend: 0x0, symName: __ZN5mpark3lib5cpp147forwardIRKNS_6detail4baseILNS3_5TraitE0EJlN2xt14xrange_adaptorINS6_12placeholders5xtuphEllEENS7_IlS9_lEENS7_IllS9_EENS7_IlS9_S9_EENS7_IS9_lS9_EENS7_IS9_S9_lEENS7_IlllEENS7_IS9_S9_S9_EENS6_6xrangeIlEENS6_14xstepped_rangeIlEENS6_8xall_tagENS6_13xellipsis_tagENS6_12xnewaxis_tagEEEEEEOT_RNSt3__116remove_referenceISS_E4typeE, symObjAddr: 0xD364, symBinAddr: 0x1000101EC, symSize: 0x14 }
  - { offsetInCU: 0xDCF0, offset: 0xDCF0, size: 0x8, addend: 0x0, symName: __ZN5mpark3lib5cpp147forwardIRKNS_6detail3altILm0ElEEEEOT_RNSt3__116remove_referenceIS8_E4typeE, symObjAddr: 0xD434, symBinAddr: 0x1000102BC, symSize: 0x14 }
  - { offsetInCU: 0xDD27, offset: 0xDD27, size: 0x8, addend: 0x0, symName: __ZN5mpark3lib5cpp147forwardIRKlEEOT_RNSt3__116remove_referenceIS5_E4typeE, symObjAddr: 0xD56C, symBinAddr: 0x1000103F4, symSize: 0x14 }
  - { offsetInCU: 0xDD5E, offset: 0xDD5E, size: 0x8, addend: 0x0, symName: __ZN5mpark3lib5cpp147forwardIRKNS_6detail3altILm1EN2xt14xrange_adaptorINS5_12placeholders5xtuphEllEEEEEEOT_RNSt3__116remove_referenceISD_E4typeE, symObjAddr: 0xD6C0, symBinAddr: 0x100010548, symSize: 0x14 }
  - { offsetInCU: 0xDD95, offset: 0xDD95, size: 0x8, addend: 0x0, symName: __ZN5mpark3lib5cpp147forwardIRKN2xt14xrange_adaptorINS3_12placeholders5xtuphEllEEEEOT_RNSt3__116remove_referenceISA_E4typeE, symObjAddr: 0xD7F8, symBinAddr: 0x100010680, symSize: 0x14 }
  - { offsetInCU: 0xDDCC, offset: 0xDDCC, size: 0x8, addend: 0x0, symName: __ZN5mpark3lib5cpp147forwardIRKNS_6detail3altILm2EN2xt14xrange_adaptorIlNS5_12placeholders5xtuphElEEEEEEOT_RNSt3__116remove_referenceISD_E4typeE, symObjAddr: 0xDECC, symBinAddr: 0x100010D54, symSize: 0x14 }
  - { offsetInCU: 0xDE03, offset: 0xDE03, size: 0x8, addend: 0x0, symName: __ZN5mpark3lib5cpp147forwardIRKN2xt14xrange_adaptorIlNS3_12placeholders5xtuphElEEEEOT_RNSt3__116remove_referenceISA_E4typeE, symObjAddr: 0xE004, symBinAddr: 0x100010E8C, symSize: 0x14 }
  - { offsetInCU: 0xDE3A, offset: 0xDE3A, size: 0x8, addend: 0x0, symName: __ZN5mpark3lib5cpp147forwardIRKNS_6detail3altILm3EN2xt14xrange_adaptorIllNS5_12placeholders5xtuphEEEEEEEOT_RNSt3__116remove_referenceISD_E4typeE, symObjAddr: 0xE468, symBinAddr: 0x1000112F0, symSize: 0x14 }
  - { offsetInCU: 0xDE71, offset: 0xDE71, size: 0x8, addend: 0x0, symName: __ZN5mpark3lib5cpp147forwardIRKN2xt14xrange_adaptorIllNS3_12placeholders5xtuphEEEEEOT_RNSt3__116remove_referenceISA_E4typeE, symObjAddr: 0xE5A0, symBinAddr: 0x100011428, symSize: 0x14 }
  - { offsetInCU: 0xDEA8, offset: 0xDEA8, size: 0x8, addend: 0x0, symName: __ZN5mpark3lib5cpp147forwardIRKNS_6detail3altILm4EN2xt14xrange_adaptorIlNS5_12placeholders5xtuphES8_EEEEEEOT_RNSt3__116remove_referenceISD_E4typeE, symObjAddr: 0xE9DC, symBinAddr: 0x100011864, symSize: 0x14 }
  - { offsetInCU: 0xDEDF, offset: 0xDEDF, size: 0x8, addend: 0x0, symName: __ZN5mpark3lib5cpp147forwardIRKN2xt14xrange_adaptorIlNS3_12placeholders5xtuphES6_EEEEOT_RNSt3__116remove_referenceISA_E4typeE, symObjAddr: 0xEB14, symBinAddr: 0x10001199C, symSize: 0x14 }
  - { offsetInCU: 0xDF16, offset: 0xDF16, size: 0x8, addend: 0x0, symName: __ZN5mpark3lib5cpp147forwardIRKNS_6detail3altILm5EN2xt14xrange_adaptorINS5_12placeholders5xtuphElS8_EEEEEEOT_RNSt3__116remove_referenceISD_E4typeE, symObjAddr: 0xEE5C, symBinAddr: 0x100011CE4, symSize: 0x14 }
  - { offsetInCU: 0xDF4D, offset: 0xDF4D, size: 0x8, addend: 0x0, symName: __ZN5mpark3lib5cpp147forwardIRKN2xt14xrange_adaptorINS3_12placeholders5xtuphElS6_EEEEOT_RNSt3__116remove_referenceISA_E4typeE, symObjAddr: 0xEF94, symBinAddr: 0x100011E1C, symSize: 0x14 }
  - { offsetInCU: 0xDF84, offset: 0xDF84, size: 0x8, addend: 0x0, symName: __ZN5mpark3lib5cpp147forwardIRKNS_6detail3altILm6EN2xt14xrange_adaptorINS5_12placeholders5xtuphES8_lEEEEEEOT_RNSt3__116remove_referenceISD_E4typeE, symObjAddr: 0xF304, symBinAddr: 0x10001218C, symSize: 0x14 }
  - { offsetInCU: 0xDFBB, offset: 0xDFBB, size: 0x8, addend: 0x0, symName: __ZN5mpark3lib5cpp147forwardIRKN2xt14xrange_adaptorINS3_12placeholders5xtuphES6_lEEEEOT_RNSt3__116remove_referenceISA_E4typeE, symObjAddr: 0xF43C, symBinAddr: 0x1000122C4, symSize: 0x14 }
  - { offsetInCU: 0xDFF2, offset: 0xDFF2, size: 0x8, addend: 0x0, symName: __ZN5mpark3lib5cpp147forwardIRKNS_6detail3altILm7EN2xt14xrange_adaptorIlllEEEEEEOT_RNSt3__116remove_referenceISB_E4typeE, symObjAddr: 0xF7AC, symBinAddr: 0x100012634, symSize: 0x14 }
  - { offsetInCU: 0xE029, offset: 0xE029, size: 0x8, addend: 0x0, symName: __ZN5mpark3lib5cpp147forwardIRKN2xt14xrange_adaptorIlllEEEEOT_RNSt3__116remove_referenceIS8_E4typeE, symObjAddr: 0xF8E4, symBinAddr: 0x10001276C, symSize: 0x14 }
  - { offsetInCU: 0xE060, offset: 0xE060, size: 0x8, addend: 0x0, symName: __ZN5mpark3lib5cpp147forwardIRKNS_6detail3altILm8EN2xt14xrange_adaptorINS5_12placeholders5xtuphES8_S8_EEEEEEOT_RNSt3__116remove_referenceISD_E4typeE, symObjAddr: 0xFDB8, symBinAddr: 0x100012C40, symSize: 0x14 }
  - { offsetInCU: 0xE097, offset: 0xE097, size: 0x8, addend: 0x0, symName: __ZN5mpark3lib5cpp147forwardIRKN2xt14xrange_adaptorINS3_12placeholders5xtuphES6_S6_EEEEOT_RNSt3__116remove_referenceISA_E4typeE, symObjAddr: 0xFEF0, symBinAddr: 0x100012D78, symSize: 0x14 }
  - { offsetInCU: 0xE0CE, offset: 0xE0CE, size: 0x8, addend: 0x0, symName: __ZN5mpark3lib5cpp147forwardIRKNS_6detail3altILm9EN2xt6xrangeIlEEEEEEOT_RNSt3__116remove_referenceISB_E4typeE, symObjAddr: 0x102C8, symBinAddr: 0x100013150, symSize: 0x14 }
  - { offsetInCU: 0xE105, offset: 0xE105, size: 0x8, addend: 0x0, symName: __ZN5mpark3lib5cpp147forwardIRKN2xt6xrangeIlEEEEOT_RNSt3__116remove_referenceIS8_E4typeE, symObjAddr: 0x10400, symBinAddr: 0x100013288, symSize: 0x14 }
  - { offsetInCU: 0xE13C, offset: 0xE13C, size: 0x8, addend: 0x0, symName: __ZN5mpark3lib5cpp147forwardIRKNS_6detail3altILm10EN2xt14xstepped_rangeIlEEEEEEOT_RNSt3__116remove_referenceISB_E4typeE, symObjAddr: 0x106F4, symBinAddr: 0x10001357C, symSize: 0x14 }
  - { offsetInCU: 0xE173, offset: 0xE173, size: 0x8, addend: 0x0, symName: __ZN5mpark3lib5cpp147forwardIRKN2xt14xstepped_rangeIlEEEEOT_RNSt3__116remove_referenceIS8_E4typeE, symObjAddr: 0x1082C, symBinAddr: 0x1000136B4, symSize: 0x14 }
  - { offsetInCU: 0xE1AA, offset: 0xE1AA, size: 0x8, addend: 0x0, symName: __ZN5mpark3lib5cpp147forwardIRKNS_6detail3altILm11EN2xt8xall_tagEEEEEOT_RNSt3__116remove_referenceISA_E4typeE, symObjAddr: 0x10B84, symBinAddr: 0x100013A0C, symSize: 0x14 }
  - { offsetInCU: 0xE1E1, offset: 0xE1E1, size: 0x8, addend: 0x0, symName: __ZN5mpark3lib5cpp147forwardIRKN2xt8xall_tagEEEOT_RNSt3__116remove_referenceIS7_E4typeE, symObjAddr: 0x10CBC, symBinAddr: 0x100013B44, symSize: 0x14 }
  - { offsetInCU: 0xE218, offset: 0xE218, size: 0x8, addend: 0x0, symName: __ZN5mpark3lib5cpp147forwardIRKNS_6detail3altILm12EN2xt13xellipsis_tagEEEEEOT_RNSt3__116remove_referenceISA_E4typeE, symObjAddr: 0x10E10, symBinAddr: 0x100013C98, symSize: 0x14 }
  - { offsetInCU: 0xE24F, offset: 0xE24F, size: 0x8, addend: 0x0, symName: __ZN5mpark3lib5cpp147forwardIRKN2xt13xellipsis_tagEEEOT_RNSt3__116remove_referenceIS7_E4typeE, symObjAddr: 0x10F48, symBinAddr: 0x100013DD0, symSize: 0x14 }
  - { offsetInCU: 0xE286, offset: 0xE286, size: 0x8, addend: 0x0, symName: __ZN5mpark3lib5cpp147forwardIRKNS_6detail3altILm13EN2xt12xnewaxis_tagEEEEEOT_RNSt3__116remove_referenceISA_E4typeE, symObjAddr: 0x1109C, symBinAddr: 0x100013F24, symSize: 0x14 }
  - { offsetInCU: 0xE2BD, offset: 0xE2BD, size: 0x8, addend: 0x0, symName: __ZN5mpark3lib5cpp147forwardIRKN2xt12xnewaxis_tagEEEOT_RNSt3__116remove_referenceIS7_E4typeE, symObjAddr: 0x111D4, symBinAddr: 0x10001405C, symSize: 0x14 }
  - { offsetInCU: 0xE2F4, offset: 0xE2F4, size: 0x8, addend: 0x0, symName: __ZN5mpark3lib5cpp147forwardIiEEOT_RNSt3__116remove_referenceIS3_E4typeE, symObjAddr: 0x14454, symBinAddr: 0x1000172DC, symSize: 0x14 }
  - { offsetInCU: 0xEDB7, offset: 0xEDB7, size: 0x8, addend: 0x0, symName: __ZN5mpark6get_ifILm0EJlN2xt14xrange_adaptorINS1_12placeholders5xtuphEllEENS2_IlS4_lEENS2_IllS4_EENS2_IlS4_S4_EENS2_IS4_lS4_EENS2_IS4_S4_lEENS2_IlllEENS2_IS4_S4_S4_EENS1_6xrangeIlEENS1_14xstepped_rangeIlEENS1_8xall_tagENS1_13xellipsis_tagENS1_12xnewaxis_tagEEEENSt3__111add_pointerIKNS_19variant_alternativeIXT_ENS_7variantIJDpT0_EEEE4typeEE4typeEPKSQ_, symObjAddr: 0xBF8C, symBinAddr: 0x10000EE14, symSize: 0x24 }
  - { offsetInCU: 0xEE3B, offset: 0xEE3B, size: 0x8, addend: 0x0, symName: __ZN5mpark17holds_alternativeILm0EJlN2xt14xrange_adaptorINS1_12placeholders5xtuphEllEENS2_IlS4_lEENS2_IllS4_EENS2_IlS4_S4_EENS2_IS4_lS4_EENS2_IS4_S4_lEENS2_IlllEENS2_IS4_S4_S4_EENS1_6xrangeIlEENS1_14xstepped_rangeIlEENS1_8xall_tagENS1_13xellipsis_tagENS1_12xnewaxis_tagEEEEbRKNS_7variantIJDpT0_EEE, symObjAddr: 0xC024, symBinAddr: 0x10000EEAC, symSize: 0x30 }
  - { offsetInCU: 0xEEBF, offset: 0xEEBF, size: 0x8, addend: 0x0, symName: __ZN5mpark6get_ifILm12EJlN2xt14xrange_adaptorINS1_12placeholders5xtuphEllEENS2_IlS4_lEENS2_IllS4_EENS2_IlS4_S4_EENS2_IS4_lS4_EENS2_IS4_S4_lEENS2_IlllEENS2_IS4_S4_S4_EENS1_6xrangeIlEENS1_14xstepped_rangeIlEENS1_8xall_tagENS1_13xellipsis_tagENS1_12xnewaxis_tagEEEENSt3__111add_pointerIKNS_19variant_alternativeIXT_ENS_7variantIJDpT0_EEEE4typeEE4typeEPKSQ_, symObjAddr: 0xC0E0, symBinAddr: 0x10000EF68, symSize: 0x24 }
  - { offsetInCU: 0xEF43, offset: 0xEF43, size: 0x8, addend: 0x0, symName: __ZN5mpark17holds_alternativeILm12EJlN2xt14xrange_adaptorINS1_12placeholders5xtuphEllEENS2_IlS4_lEENS2_IllS4_EENS2_IlS4_S4_EENS2_IS4_lS4_EENS2_IS4_S4_lEENS2_IlllEENS2_IS4_S4_S4_EENS1_6xrangeIlEENS1_14xstepped_rangeIlEENS1_8xall_tagENS1_13xellipsis_tagENS1_12xnewaxis_tagEEEEbRKNS_7variantIJDpT0_EEE, symObjAddr: 0xC178, symBinAddr: 0x10000F000, symSize: 0x30 }
  - { offsetInCU: 0xEFC7, offset: 0xEFC7, size: 0x8, addend: 0x0, symName: __ZN5mpark6get_ifILm11EJlN2xt14xrange_adaptorINS1_12placeholders5xtuphEllEENS2_IlS4_lEENS2_IllS4_EENS2_IlS4_S4_EENS2_IS4_lS4_EENS2_IS4_S4_lEENS2_IlllEENS2_IS4_S4_S4_EENS1_6xrangeIlEENS1_14xstepped_rangeIlEENS1_8xall_tagENS1_13xellipsis_tagENS1_12xnewaxis_tagEEEENSt3__111add_pointerIKNS_19variant_alternativeIXT_ENS_7variantIJDpT0_EEEE4typeEE4typeEPKSQ_, symObjAddr: 0xC4EC, symBinAddr: 0x10000F374, symSize: 0x24 }
  - { offsetInCU: 0xF04B, offset: 0xF04B, size: 0x8, addend: 0x0, symName: __ZN5mpark17holds_alternativeILm11EJlN2xt14xrange_adaptorINS1_12placeholders5xtuphEllEENS2_IlS4_lEENS2_IllS4_EENS2_IlS4_S4_EENS2_IS4_lS4_EENS2_IS4_S4_lEENS2_IlllEENS2_IS4_S4_S4_EENS1_6xrangeIlEENS1_14xstepped_rangeIlEENS1_8xall_tagENS1_13xellipsis_tagENS1_12xnewaxis_tagEEEEbRKNS_7variantIJDpT0_EEE, symObjAddr: 0xC584, symBinAddr: 0x10000F40C, symSize: 0x30 }
  - { offsetInCU: 0xF0CF, offset: 0xF0CF, size: 0x8, addend: 0x0, symName: __ZN5mpark24throw_bad_variant_accessEv, symObjAddr: 0xC8E0, symBinAddr: 0x10000F768, symSize: 0x38 }
  - { offsetInCU: 0x151DA, offset: 0x151DA, size: 0x8, addend: 0x0, symName: __ZNSt3__124__put_character_sequenceB8ue170006IcNS_11char_traitsIcEEEERNS_13basic_ostreamIT_T0_EES7_PKS4_m, symObjAddr: 0x5C0C, symBinAddr: 0x100008A94, symSize: 0x1EC }
  - { offsetInCU: 0x1A382, offset: 0x1A382, size: 0x8, addend: 0x0, symName: __ZNSt3__14endlB8ue170006IcNS_11char_traitsIcEEEERNS_13basic_ostreamIT_T0_EES7_, symObjAddr: 0x598, symBinAddr: 0x100003420, symSize: 0x58 }
  - { offsetInCU: 0x1A3C2, offset: 0x1A3C2, size: 0x8, addend: 0x0, symName: __ZNSt3__15beginB8ue170006ImLm4EEEPT_RAT0__S1_, symObjAddr: 0x1394, symBinAddr: 0x10000421C, symSize: 0x14 }
  - { offsetInCU: 0x1A401, offset: 0x1A401, size: 0x8, addend: 0x0, symName: __ZNSt3__13endB8ue170006ImLm4EEEPT_RAT0__S1_, symObjAddr: 0x13A8, symBinAddr: 0x100004230, symSize: 0x18 }
  - { offsetInCU: 0x1A440, offset: 0x1A440, size: 0x8, addend: 0x0, symName: __ZNSt3__15beginB8ue170006IlLm4EEEPT_RAT0__S1_, symObjAddr: 0x14E0, symBinAddr: 0x100004368, symSize: 0x14 }
  - { offsetInCU: 0x1A47F, offset: 0x1A47F, size: 0x8, addend: 0x0, symName: __ZNSt3__13endB8ue170006IlLm4EEEPT_RAT0__S1_, symObjAddr: 0x14F4, symBinAddr: 0x10000437C, symSize: 0x18 }
  - { offsetInCU: 0x1A4BE, offset: 0x1A4BE, size: 0x8, addend: 0x0, symName: __ZNSt3__14fillB8ue170006IPmmEEvT_S2_RKT0_, symObjAddr: 0x1810, symBinAddr: 0x100004698, symSize: 0x34 }
  - { offsetInCU: 0x1A514, offset: 0x1A514, size: 0x8, addend: 0x0, symName: __ZNSt3__118uninitialized_copyB8ue170006IPmS1_EET0_T_S3_S2_, symObjAddr: 0x18CC, symBinAddr: 0x100004754, symSize: 0x40 }
  - { offsetInCU: 0x1A57C, offset: 0x1A57C, size: 0x8, addend: 0x0, symName: __ZNSt3__117__libcpp_allocateB8ue170006Emm, symObjAddr: 0x19A4, symBinAddr: 0x10000482C, symSize: 0x28 }
  - { offsetInCU: 0x1A5B9, offset: 0x1A5B9, size: 0x8, addend: 0x0, symName: __ZNSt3__121__libcpp_operator_newB8ue170006IJmEEEPvDpT_, symObjAddr: 0x19E0, symBinAddr: 0x100004868, symSize: 0x24 }
  - { offsetInCU: 0x1A619, offset: 0x1A619, size: 0x8, addend: 0x0, symName: __ZNSt3__120__uninitialized_copyB8ue170006ImPmS1_S1_NS_22__unreachable_sentinelEEENS_4pairIT0_T2_EES4_T1_S5_T3_, symObjAddr: 0x1A04, symBinAddr: 0x10000488C, symSize: 0xCC }
  - { offsetInCU: 0x1A6C9, offset: 0x1A6C9, size: 0x8, addend: 0x0, symName: __ZNSt3__1neB8ue170006IPmEEbRKT_NS_22__unreachable_sentinelE, symObjAddr: 0x1AD0, symBinAddr: 0x100004958, symSize: 0x18 }
  - { offsetInCU: 0x1A704, offset: 0x1A704, size: 0x8, addend: 0x0, symName: __ZNSt3__19__destroyB8ue170006IPmEET_S2_S2_, symObjAddr: 0x1AE8, symBinAddr: 0x100004970, symSize: 0x5C }
  - { offsetInCU: 0x1A84B, offset: 0x1A84B, size: 0x8, addend: 0x0, symName: __ZNSt3__112__destroy_atB8ue170006ImLi0EEEvPT_, symObjAddr: 0x1B80, symBinAddr: 0x100004A08, symSize: 0x10 }
  - { offsetInCU: 0x1A882, offset: 0x1A882, size: 0x8, addend: 0x0, symName: __ZNSt3__119__libcpp_deallocateB8ue170006EPvmm, symObjAddr: 0x1BC4, symBinAddr: 0x100004A4C, symSize: 0x30 }
  - { offsetInCU: 0x1A8CA, offset: 0x1A8CA, size: 0x8, addend: 0x0, symName: __ZNSt3__127__do_deallocate_handle_sizeB8ue170006IJEEEvPvmDpT_, symObjAddr: 0x1BF4, symBinAddr: 0x100004A7C, symSize: 0x28 }
  - { offsetInCU: 0x1A908, offset: 0x1A908, size: 0x8, addend: 0x0, symName: __ZNSt3__124__libcpp_operator_deleteB8ue170006IJPvEEEvDpT_, symObjAddr: 0x1C1C, symBinAddr: 0x100004AA4, symSize: 0x24 }
  - { offsetInCU: 0x1A93D, offset: 0x1A93D, size: 0x8, addend: 0x0, symName: __ZNSt3__16__fillB8ue170006IPmmEEvT_S2_RKT0_NS_26random_access_iterator_tagE, symObjAddr: 0x1C40, symBinAddr: 0x100004AC8, symSize: 0x44 }
  - { offsetInCU: 0x1A99D, offset: 0x1A99D, size: 0x8, addend: 0x0, symName: __ZNSt3__16fill_nB8ue170006IPmlmEET_S2_T0_RKT1_, symObjAddr: 0x1C84, symBinAddr: 0x100004B0C, symSize: 0x44 }
  - { offsetInCU: 0x1AA00, offset: 0x1AA00, size: 0x8, addend: 0x0, symName: __ZNSt3__18__fill_nB8ue170006IPmlmEET_S2_T0_RKT1_, symObjAddr: 0x1CC8, symBinAddr: 0x100004B50, symSize: 0x64 }
  - { offsetInCU: 0x1AA63, offset: 0x1AA63, size: 0x8, addend: 0x0, symName: __ZNSt3__121__convert_to_integralB8ue170006El, symObjAddr: 0x1D2C, symBinAddr: 0x100004BB4, symSize: 0x14 }
  - { offsetInCU: 0x1AA8F, offset: 0x1AA8F, size: 0x8, addend: 0x0, symName: __ZNSt3__14fillB8ue170006IPllEEvT_S2_RKT0_, symObjAddr: 0x2264, symBinAddr: 0x1000050EC, symSize: 0x34 }
  - { offsetInCU: 0x1AAE5, offset: 0x1AAE5, size: 0x8, addend: 0x0, symName: __ZNSt3__118uninitialized_copyB8ue170006IPlS1_EET0_T_S3_S2_, symObjAddr: 0x2348, symBinAddr: 0x1000051D0, symSize: 0x40 }
  - { offsetInCU: 0x1AB74, offset: 0x1AB74, size: 0x8, addend: 0x0, symName: __ZNSt3__120__uninitialized_copyB8ue170006IlPlS1_S1_NS_22__unreachable_sentinelEEENS_4pairIT0_T2_EES4_T1_S5_T3_, symObjAddr: 0x2400, symBinAddr: 0x100005288, symSize: 0xCC }
  - { offsetInCU: 0x1AC24, offset: 0x1AC24, size: 0x8, addend: 0x0, symName: __ZNSt3__1neB8ue170006IPlEEbRKT_NS_22__unreachable_sentinelE, symObjAddr: 0x24CC, symBinAddr: 0x100005354, symSize: 0x18 }
  - { offsetInCU: 0x1AC5F, offset: 0x1AC5F, size: 0x8, addend: 0x0, symName: __ZNSt3__19__destroyB8ue170006IPlEET_S2_S2_, symObjAddr: 0x24E4, symBinAddr: 0x10000536C, symSize: 0x5C }
  - { offsetInCU: 0x1ADA6, offset: 0x1ADA6, size: 0x8, addend: 0x0, symName: __ZNSt3__112__destroy_atB8ue170006IlLi0EEEvPT_, symObjAddr: 0x257C, symBinAddr: 0x100005404, symSize: 0x10 }
  - { offsetInCU: 0x1ADDD, offset: 0x1ADDD, size: 0x8, addend: 0x0, symName: __ZNSt3__16__fillB8ue170006IPllEEvT_S2_RKT0_NS_26random_access_iterator_tagE, symObjAddr: 0x25C0, symBinAddr: 0x100005448, symSize: 0x44 }
  - { offsetInCU: 0x1AE3D, offset: 0x1AE3D, size: 0x8, addend: 0x0, symName: __ZNSt3__16fill_nB8ue170006IPlllEET_S2_T0_RKT1_, symObjAddr: 0x2604, symBinAddr: 0x10000548C, symSize: 0x44 }
  - { offsetInCU: 0x1AEA0, offset: 0x1AEA0, size: 0x8, addend: 0x0, symName: __ZNSt3__18__fill_nB8ue170006IPlllEET_S2_T0_RKT1_, symObjAddr: 0x2648, symBinAddr: 0x1000054D0, symSize: 0x64 }
  - { offsetInCU: 0x1AF03, offset: 0x1AF03, size: 0x8, addend: 0x0, symName: __ZNSt3__15equalB8ue170006IPKmPmEEbT_S4_T0_, symObjAddr: 0x3084, symBinAddr: 0x100005F0C, symSize: 0x38 }
  - { offsetInCU: 0x1AF5D, offset: 0x1AF5D, size: 0x8, addend: 0x0, symName: __ZNSt3__15beginB8ue170006IN2xt7svectorImLm4ENS_9allocatorImEELb1EEEEEDTcldtfp_5beginEERKT_, symObjAddr: 0x30BC, symBinAddr: 0x100005F44, symSize: 0x24 }
  - { offsetInCU: 0x1AF92, offset: 0x1AF92, size: 0x8, addend: 0x0, symName: __ZNSt3__13endB8ue170006IN2xt7svectorImLm4ENS_9allocatorImEELb1EEEEEDTcldtfp_3endEERKT_, symObjAddr: 0x30E0, symBinAddr: 0x100005F68, symSize: 0x24 }
  - { offsetInCU: 0x1AFC7, offset: 0x1AFC7, size: 0x8, addend: 0x0, symName: __ZNSt3__15beginB8ue170006IN2xt7svectorImLm4ENS_9allocatorImEELb1EEEEEDTcldtfp_5beginEERT_, symObjAddr: 0x3104, symBinAddr: 0x100005F8C, symSize: 0x24 }
  - { offsetInCU: 0x1AFFC, offset: 0x1AFFC, size: 0x8, addend: 0x0, symName: __ZNSt3__15equalB8ue170006IPKmPmNS_10__equal_toEEEbT_S5_T0_T1_, symObjAddr: 0x3234, symBinAddr: 0x1000060BC, symSize: 0x5C }
  - { offsetInCU: 0x1B06D, offset: 0x1B06D, size: 0x8, addend: 0x0, symName: __ZNSt3__117__equal_iter_implB8ue170006IKmmNS_10__equal_toELi0EEEbPT_S4_PT0_RT1_, symObjAddr: 0x3290, symBinAddr: 0x100006118, symSize: 0x4C }
  - { offsetInCU: 0x1B0E0, offset: 0x1B0E0, size: 0x8, addend: 0x0, symName: __ZNSt3__113__unwrap_iterB8ue170006IPKmNS_18__unwrap_iter_implIS2_Lb1EEELi0EEEDTclsrT0_8__unwrapclsr3stdE7declvalIT_EEEES6_, symObjAddr: 0x32DC, symBinAddr: 0x100006164, symSize: 0x24 }
  - { offsetInCU: 0x1B124, offset: 0x1B124, size: 0x8, addend: 0x0, symName: __ZNSt3__113__unwrap_iterB8ue170006IPmNS_18__unwrap_iter_implIS1_Lb1EEELi0EEEDTclsrT0_8__unwrapclsr3stdE7declvalIT_EEEES5_, symObjAddr: 0x3300, symBinAddr: 0x100006188, symSize: 0x24 }
  - { offsetInCU: 0x1B168, offset: 0x1B168, size: 0x8, addend: 0x0, symName: __ZNSt3__124__constexpr_memcmp_equalB8ue170006ImmEEbPKT_PKT0_NS_15__element_countE, symObjAddr: 0x3324, symBinAddr: 0x1000061AC, symSize: 0x4C }
  - { offsetInCU: 0x1B224, offset: 0x1B224, size: 0x8, addend: 0x0, symName: __ZNSt3__112__to_addressB8ue170006IKmEEPT_S3_, symObjAddr: 0x3394, symBinAddr: 0x10000621C, symSize: 0x14 }
  - { offsetInCU: 0x1B2AD, offset: 0x1B2AD, size: 0x8, addend: 0x0, symName: __ZNSt3__112__to_addressB8ue170006ImEEPT_S2_, symObjAddr: 0x33CC, symBinAddr: 0x100006254, symSize: 0x14 }
  - { offsetInCU: 0x1B2E2, offset: 0x1B2E2, size: 0x8, addend: 0x0, symName: __ZNSt3__118uninitialized_copyB8ue170006IPKmPmEET0_T_S5_S4_, symObjAddr: 0x34D8, symBinAddr: 0x100006360, symSize: 0x40 }
  - { offsetInCU: 0x1B34A, offset: 0x1B34A, size: 0x8, addend: 0x0, symName: __ZNSt3__120__uninitialized_copyB8ue170006ImPKmS2_PmNS_22__unreachable_sentinelEEENS_4pairIT0_T2_EES6_T1_S7_T3_, symObjAddr: 0x3518, symBinAddr: 0x1000063A0, symSize: 0xBC }
  - { offsetInCU: 0x1B4CE, offset: 0x1B4CE, size: 0x8, addend: 0x0, symName: __ZNSt3__111find_if_notB8ue170006INS_16reverse_iteratorIPKlEEZNK2xt18xstrided_containerINS5_16xarray_containerINS5_7uvectorIdNS_9allocatorIdEEEELNS5_11layout_typeE2ENS5_7svectorImLm4ENS9_ImEELb1EEENS5_22xtensor_expression_tagEEEE13is_contiguousEvEUlT_E_EESJ_SJ_SJ_T0_, symObjAddr: 0x3F0C, symBinAddr: 0x100006D94, symSize: 0x80 }
  - { offsetInCU: 0x1B528, offset: 0x1B528, size: 0x8, addend: 0x0, symName: __ZNSt3__1eqB8ue170006IPKlS2_EEbRKNS_16reverse_iteratorIT_EERKNS3_IT0_EE, symObjAddr: 0x3FF4, symBinAddr: 0x100006E7C, symSize: 0x48 }
  - { offsetInCU: 0x1B574, offset: 0x1B574, size: 0x8, addend: 0x0, symName: __ZNSt3__111find_if_notB8ue170006IPKlZNK2xt18xstrided_containerINS3_16xarray_containerINS3_7uvectorIdNS_9allocatorIdEEEELNS3_11layout_typeE2ENS3_7svectorImLm4ENS7_ImEELb1EEENS3_22xtensor_expression_tagEEEE13is_contiguousEvEUlT_E_EESH_SH_SH_T0_, symObjAddr: 0x4064, symBinAddr: 0x100006EEC, symSize: 0x70 }
  - { offsetInCU: 0x1B5CE, offset: 0x1B5CE, size: 0x8, addend: 0x0, symName: __ZNSt3__1neB8ue170006IPKlS2_EEbRKNS_16reverse_iteratorIT_EERKNS3_IT0_EE, symObjAddr: 0x412C, symBinAddr: 0x100006FB4, symSize: 0x48 }
  - { offsetInCU: 0x1B61A, offset: 0x1B61A, size: 0x8, addend: 0x0, symName: __ZNSt3__15equalB8ue170006IPKlS2_EEbT_S3_T0_, symObjAddr: 0x4254, symBinAddr: 0x1000070DC, symSize: 0x38 }
  - { offsetInCU: 0x1B674, offset: 0x1B674, size: 0x8, addend: 0x0, symName: __ZNSt3__15equalB8ue170006IPKlS2_NS_10__equal_toEEEbT_S4_T0_T1_, symObjAddr: 0x42D4, symBinAddr: 0x10000715C, symSize: 0x5C }
  - { offsetInCU: 0x1B6E5, offset: 0x1B6E5, size: 0x8, addend: 0x0, symName: __ZNSt3__117__equal_iter_implB8ue170006IKlS1_NS_10__equal_toELi0EEEbPT_S4_PT0_RT1_, symObjAddr: 0x4330, symBinAddr: 0x1000071B8, symSize: 0x4C }
  - { offsetInCU: 0x1B758, offset: 0x1B758, size: 0x8, addend: 0x0, symName: __ZNSt3__113__unwrap_iterB8ue170006IPKlNS_18__unwrap_iter_implIS2_Lb1EEELi0EEEDTclsrT0_8__unwrapclsr3stdE7declvalIT_EEEES6_, symObjAddr: 0x437C, symBinAddr: 0x100007204, symSize: 0x24 }
  - { offsetInCU: 0x1B79C, offset: 0x1B79C, size: 0x8, addend: 0x0, symName: __ZNSt3__124__constexpr_memcmp_equalB8ue170006IllEEbPKT_PKT0_NS_15__element_countE, symObjAddr: 0x43A0, symBinAddr: 0x100007228, symSize: 0x4C }
  - { offsetInCU: 0x1B858, offset: 0x1B858, size: 0x8, addend: 0x0, symName: __ZNSt3__112__to_addressB8ue170006IKlEEPT_S3_, symObjAddr: 0x4410, symBinAddr: 0x100007298, symSize: 0x14 }
  - { offsetInCU: 0x1B88D, offset: 0x1B88D, size: 0x8, addend: 0x0, symName: __ZNSt3__19transformB8ue170006IPKmPmZN2xt13stepper_toolsILNS4_11layout_typeE2EE17increment_stepperINS4_16stepper_assignerINS4_16xarray_containerINS4_7uvectorIdNS_9allocatorIdEEEELS6_2ENS4_7svectorImLm4ENSC_ImEELb1EEENS4_22xtensor_expression_tagEEENSA_ISE_LS6_1ESH_SI_EELS6_2EEESH_SH_EEvRT_RT0_RKT1_EUlRKSM_E_EESO_SM_SM_SO_SQ_, symObjAddr: 0x4D80, symBinAddr: 0x100007C08, symSize: 0x78 }
  - { offsetInCU: 0x1B8FE, offset: 0x1B8FE, size: 0x8, addend: 0x0, symName: __ZNSt3__134__libcpp_atomic_refcount_decrementB8ue170006IlEET_RS1_, symObjAddr: 0x57C0, symBinAddr: 0x100008648, symSize: 0x30 }
  - { offsetInCU: 0x1B933, offset: 0x1B933, size: 0x8, addend: 0x0, symName: __ZNSt3__1lsB8ue170006INS_11char_traitsIcEEEERNS_13basic_ostreamIcT_EES6_PKc, symObjAddr: 0x5BC4, symBinAddr: 0x100008A4C, symSize: 0x48 }
  - { offsetInCU: 0x1B979, offset: 0x1B979, size: 0x8, addend: 0x0, symName: __ZNSt3__116__pad_and_outputB8ue170006IcNS_11char_traitsIcEEEENS_19ostreambuf_iteratorIT_T0_EES6_PKS4_S8_S8_RNS_8ios_baseES4_, symObjAddr: 0x5E48, symBinAddr: 0x100008CD0, symSize: 0x240 }
  - { offsetInCU: 0x1BA48, offset: 0x1BA48, size: 0x8, addend: 0x0, symName: __ZNSt3__112__to_addressB8ue170006IKcEEPT_S3_, symObjAddr: 0x63B0, symBinAddr: 0x100009238, symSize: 0x14 }
  - { offsetInCU: 0x1BAB0, offset: 0x1BAB0, size: 0x8, addend: 0x0, symName: __ZNSt3__19use_facetB8ue170006INS_5ctypeIcEEEERKT_RKNS_6localeE, symObjAddr: 0x6630, symBinAddr: 0x1000094B8, symSize: 0x2C }
  - { offsetInCU: 0x1BF7E, offset: 0x1BF7E, size: 0x8, addend: 0x0, symName: __ZNSt3__118__constexpr_strlenB8ue170006EPKc, symObjAddr: 0x66C8, symBinAddr: 0x100009550, symSize: 0x24 }
  - { offsetInCU: 0x1BFAA, offset: 0x1BFAA, size: 0x8, addend: 0x0, symName: __ZNSt3__14swapB8ue170006IPmEENS_9enable_ifIXaasr21is_move_constructibleIT_EE5valuesr18is_move_assignableIS3_EE5valueEvE4typeERS3_S6_, symObjAddr: 0x6D1C, symBinAddr: 0x100009BA4, symSize: 0x3C }
  - { offsetInCU: 0x1BFFB, offset: 0x1BFFB, size: 0x8, addend: 0x0, symName: __ZNSt3__13minB8ue170006ImEERKT_S3_S3_, symObjAddr: 0x6E44, symBinAddr: 0x100009CCC, symSize: 0x2C }
  - { offsetInCU: 0x1C03E, offset: 0x1C03E, size: 0x8, addend: 0x0, symName: __ZNSt3__14swapB8ue170006ImEENS_9enable_ifIXaasr21is_move_constructibleIT_EE5valuesr18is_move_assignableIS2_EE5valueEvE4typeERS2_S5_, symObjAddr: 0x6E70, symBinAddr: 0x100009CF8, symSize: 0x3C }
  - { offsetInCU: 0x1C08F, offset: 0x1C08F, size: 0x8, addend: 0x0, symName: __ZNSt3__14copyB8ue170006IPmS1_EET0_T_S3_S2_, symObjAddr: 0x6EAC, symBinAddr: 0x100009D34, symSize: 0x40 }
  - { offsetInCU: 0x1C0E9, offset: 0x1C0E9, size: 0x8, addend: 0x0, symName: __ZNSt3__13minB8ue170006ImNS_6__lessIvvEEEERKT_S5_S5_T0_, symObjAddr: 0x6F04, symBinAddr: 0x100009D8C, symSize: 0x54 }
  - { offsetInCU: 0x1C1B9, offset: 0x1C1B9, size: 0x8, addend: 0x0, symName: __ZNSt3__16__copyB8ue170006INS_17_ClassicAlgPolicyEPmS2_S2_EENS_4pairIT0_T2_EES4_T1_S5_, symObjAddr: 0x6F8C, symBinAddr: 0x100009E14, symSize: 0x44 }
  - { offsetInCU: 0x1C225, offset: 0x1C225, size: 0x8, addend: 0x0, symName: __ZNSt3__123__dispatch_copy_or_moveB8ue170006INS_17_ClassicAlgPolicyENS_11__copy_loopIS1_EENS_14__copy_trivialEPmS5_S5_EENS_4pairIT2_T4_EES7_T3_S8_, symObjAddr: 0x6FD0, symBinAddr: 0x100009E58, symSize: 0x44 }
  - { offsetInCU: 0x1C2A3, offset: 0x1C2A3, size: 0x8, addend: 0x0, symName: __ZNSt3__121__unwrap_and_dispatchB8ue170006INS_10__overloadINS_11__copy_loopINS_17_ClassicAlgPolicyEEENS_14__copy_trivialEEEPmS7_S7_Li0EEENS_4pairIT0_T2_EES9_T1_SA_, symObjAddr: 0x7014, symBinAddr: 0x100009E9C, symSize: 0xB4 }
  - { offsetInCU: 0x1C331, offset: 0x1C331, size: 0x8, addend: 0x0, symName: __ZNSt3__114__unwrap_rangeB8ue170006IPmS1_EENS_4pairIT0_S3_EET_S5_, symObjAddr: 0x70C8, symBinAddr: 0x100009F50, symSize: 0x60 }
  - { offsetInCU: 0x1C3FF, offset: 0x1C3FF, size: 0x8, addend: 0x0, symName: __ZNSt3__19make_pairB8ue170006IPmS1_EENS_4pairINS_18__unwrap_ref_decayIT_E4typeENS3_IT0_E4typeEEEOS4_OS7_, symObjAddr: 0x7170, symBinAddr: 0x100009FF8, symSize: 0x38 }
  - { offsetInCU: 0x1C44E, offset: 0x1C44E, size: 0x8, addend: 0x0, symName: __ZNSt3__114__rewrap_rangeB8ue170006IPmS1_EET_S2_T0_, symObjAddr: 0x71A8, symBinAddr: 0x10000A030, symSize: 0x2C }
  - { offsetInCU: 0x1C49A, offset: 0x1C49A, size: 0x8, addend: 0x0, symName: __ZNSt3__113__rewrap_iterB8ue170006IPmS1_NS_18__unwrap_iter_implIS1_Lb1EEEEET_S4_T0_, symObjAddr: 0x71D4, symBinAddr: 0x10000A05C, symSize: 0x3C }
  - { offsetInCU: 0x1C4EF, offset: 0x1C4EF, size: 0x8, addend: 0x0, symName: __ZNSt3__119__copy_trivial_implB8ue170006ImmEENS_4pairIPT_PT0_EES3_S3_S5_, symObjAddr: 0x7210, symBinAddr: 0x10000A098, symSize: 0x80 }
  - { offsetInCU: 0x1C557, offset: 0x1C557, size: 0x8, addend: 0x0, symName: __ZNSt3__119__constexpr_memmoveB8ue170006ImmLi0EEEPT_S2_PT0_NS_15__element_countE, symObjAddr: 0x7290, symBinAddr: 0x10000A118, symSize: 0x64 }
  - { offsetInCU: 0x1C5C5, offset: 0x1C5C5, size: 0x8, addend: 0x0, symName: __ZNSt3__19make_pairB8ue170006IRPmS1_EENS_4pairINS_18__unwrap_ref_decayIT_E4typeENS4_IT0_E4typeEEEOS5_OS8_, symObjAddr: 0x72F4, symBinAddr: 0x10000A17C, symSize: 0x38 }
  - { offsetInCU: 0x1C614, offset: 0x1C614, size: 0x8, addend: 0x0, symName: __ZNSt3__14swapB8ue170006IPlEENS_9enable_ifIXaasr21is_move_constructibleIT_EE5valuesr18is_move_assignableIS3_EE5valueEvE4typeERS3_S6_, symObjAddr: 0x7734, symBinAddr: 0x10000A5BC, symSize: 0x3C }
  - { offsetInCU: 0x1C665, offset: 0x1C665, size: 0x8, addend: 0x0, symName: __ZNSt3__14swapB8ue170006IlEENS_9enable_ifIXaasr21is_move_constructibleIT_EE5valuesr18is_move_assignableIS2_EE5valueEvE4typeERS2_S5_, symObjAddr: 0x7770, symBinAddr: 0x10000A5F8, symSize: 0x3C }
  - { offsetInCU: 0x1C6B6, offset: 0x1C6B6, size: 0x8, addend: 0x0, symName: __ZNSt3__14copyB8ue170006IPlS1_EET0_T_S3_S2_, symObjAddr: 0x77AC, symBinAddr: 0x10000A634, symSize: 0x40 }
  - { offsetInCU: 0x1C710, offset: 0x1C710, size: 0x8, addend: 0x0, symName: __ZNSt3__16__copyB8ue170006INS_17_ClassicAlgPolicyEPlS2_S2_EENS_4pairIT0_T2_EES4_T1_S5_, symObjAddr: 0x7804, symBinAddr: 0x10000A68C, symSize: 0x44 }
  - { offsetInCU: 0x1C77C, offset: 0x1C77C, size: 0x8, addend: 0x0, symName: __ZNSt3__123__dispatch_copy_or_moveB8ue170006INS_17_ClassicAlgPolicyENS_11__copy_loopIS1_EENS_14__copy_trivialEPlS5_S5_EENS_4pairIT2_T4_EES7_T3_S8_, symObjAddr: 0x7848, symBinAddr: 0x10000A6D0, symSize: 0x44 }
  - { offsetInCU: 0x1C7FA, offset: 0x1C7FA, size: 0x8, addend: 0x0, symName: __ZNSt3__121__unwrap_and_dispatchB8ue170006INS_10__overloadINS_11__copy_loopINS_17_ClassicAlgPolicyEEENS_14__copy_trivialEEEPlS7_S7_Li0EEENS_4pairIT0_T2_EES9_T1_SA_, symObjAddr: 0x788C, symBinAddr: 0x10000A714, symSize: 0xB4 }
  - { offsetInCU: 0x1C888, offset: 0x1C888, size: 0x8, addend: 0x0, symName: __ZNSt3__114__unwrap_rangeB8ue170006IPlS1_EENS_4pairIT0_S3_EET_S5_, symObjAddr: 0x7940, symBinAddr: 0x10000A7C8, symSize: 0x60 }
  - { offsetInCU: 0x1C8D4, offset: 0x1C8D4, size: 0x8, addend: 0x0, symName: __ZNSt3__113__unwrap_iterB8ue170006IPlNS_18__unwrap_iter_implIS1_Lb1EEELi0EEEDTclsrT0_8__unwrapclsr3stdE7declvalIT_EEEES5_, symObjAddr: 0x79E8, symBinAddr: 0x10000A870, symSize: 0x24 }
  - { offsetInCU: 0x1C918, offset: 0x1C918, size: 0x8, addend: 0x0, symName: __ZNSt3__19make_pairB8ue170006IPlS1_EENS_4pairINS_18__unwrap_ref_decayIT_E4typeENS3_IT0_E4typeEEEOS4_OS7_, symObjAddr: 0x7A0C, symBinAddr: 0x10000A894, symSize: 0x38 }
  - { offsetInCU: 0x1C967, offset: 0x1C967, size: 0x8, addend: 0x0, symName: __ZNSt3__114__rewrap_rangeB8ue170006IPlS1_EET_S2_T0_, symObjAddr: 0x7A44, symBinAddr: 0x10000A8CC, symSize: 0x2C }
  - { offsetInCU: 0x1C9B3, offset: 0x1C9B3, size: 0x8, addend: 0x0, symName: __ZNSt3__113__rewrap_iterB8ue170006IPlS1_NS_18__unwrap_iter_implIS1_Lb1EEEEET_S4_T0_, symObjAddr: 0x7A70, symBinAddr: 0x10000A8F8, symSize: 0x3C }
  - { offsetInCU: 0x1CA08, offset: 0x1CA08, size: 0x8, addend: 0x0, symName: __ZNSt3__119__copy_trivial_implB8ue170006IllEENS_4pairIPT_PT0_EES3_S3_S5_, symObjAddr: 0x7AAC, symBinAddr: 0x10000A934, symSize: 0x80 }
  - { offsetInCU: 0x1CA70, offset: 0x1CA70, size: 0x8, addend: 0x0, symName: __ZNSt3__119__constexpr_memmoveB8ue170006IllLi0EEEPT_S2_PT0_NS_15__element_countE, symObjAddr: 0x7B2C, symBinAddr: 0x10000A9B4, symSize: 0x64 }
  - { offsetInCU: 0x1CADE, offset: 0x1CADE, size: 0x8, addend: 0x0, symName: __ZNSt3__19make_pairB8ue170006IRPlS1_EENS_4pairINS_18__unwrap_ref_decayIT_E4typeENS4_IT0_E4typeEEEOS5_OS8_, symObjAddr: 0x7B90, symBinAddr: 0x10000AA18, symSize: 0x38 }
  - { offsetInCU: 0x1CB81, offset: 0x1CB81, size: 0x8, addend: 0x0, symName: __ZNSt3__112__to_addressB8ue170006IlEEPT_S2_, symObjAddr: 0x7C5C, symBinAddr: 0x10000AAE4, symSize: 0x14 }
  - { offsetInCU: 0x1CBB6, offset: 0x1CBB6, size: 0x8, addend: 0x0, symName: __ZNSt3__15equalB8ue170006IPmS1_EEbT_S2_T0_, symObjAddr: 0x8800, symBinAddr: 0x10000B688, symSize: 0x38 }
  - { offsetInCU: 0x1CC10, offset: 0x1CC10, size: 0x8, addend: 0x0, symName: __ZNSt3__13endB8ue170006IN2xt7svectorImLm4ENS_9allocatorImEELb1EEEEEDTcldtfp_3endEERT_, symObjAddr: 0x8838, symBinAddr: 0x10000B6C0, symSize: 0x24 }
  - { offsetInCU: 0x1CC45, offset: 0x1CC45, size: 0x8, addend: 0x0, symName: __ZNSt3__15equalB8ue170006IPmS1_NS_10__equal_toEEEbT_S3_T0_T1_, symObjAddr: 0x88E4, symBinAddr: 0x10000B76C, symSize: 0x5C }
  - { offsetInCU: 0x1CCB6, offset: 0x1CCB6, size: 0x8, addend: 0x0, symName: __ZNSt3__117__equal_iter_implB8ue170006ImmNS_10__equal_toELi0EEEbPT_S3_PT0_RT1_, symObjAddr: 0x8940, symBinAddr: 0x10000B7C8, symSize: 0x4C }
  - { offsetInCU: 0x1CD34, offset: 0x1CD34, size: 0x8, addend: 0x0, symName: __ZNSt3__110accumulateB8ue170006IPKmmNS_10multipliesImEEEET0_T_S6_S5_T1_, symObjAddr: 0x9F5C, symBinAddr: 0x10000CDE4, symSize: 0x6C }
  - { offsetInCU: 0x1CE0D, offset: 0x1CE0D, size: 0x8, addend: 0x0, symName: __ZNSt3__1neB8ue170006IPKN5mpark7variantIJlN2xt14xrange_adaptorINS3_12placeholders5xtuphEllEENS4_IlS6_lEENS4_IllS6_EENS4_IlS6_S6_EENS4_IS6_lS6_EENS4_IS6_S6_lEENS4_IlllEENS4_IS6_S6_S6_EENS3_6xrangeIlEENS3_14xstepped_rangeIlEENS3_8xall_tagENS3_13xellipsis_tagENS3_12xnewaxis_tagEEEEEEbRKNS_11__wrap_iterIT_EEST_, symObjAddr: 0xB4AC, symBinAddr: 0x10000E334, symSize: 0x34 }
  - { offsetInCU: 0x1CE50, offset: 0x1CE50, size: 0x8, addend: 0x0, symName: __ZNSt3__1eqB8ue170006IPKN5mpark7variantIJlN2xt14xrange_adaptorINS3_12placeholders5xtuphEllEENS4_IlS6_lEENS4_IllS6_EENS4_IlS6_S6_EENS4_IS6_lS6_EENS4_IS6_S6_lEENS4_IlllEENS4_IS6_S6_S6_EENS3_6xrangeIlEENS3_14xstepped_rangeIlEENS3_8xall_tagENS3_13xellipsis_tagENS3_12xnewaxis_tagEEEEEEbRKNS_11__wrap_iterIT_EEST_, symObjAddr: 0xB9E4, symBinAddr: 0x10000E86C, symSize: 0x48 }
  - { offsetInCU: 0x1DA82, offset: 0x1DA82, size: 0x8, addend: 0x0, symName: __ZNSt3__13maxB8ue170006IlEERKT_S3_S3_, symObjAddr: 0xDB70, symBinAddr: 0x1000109F8, symSize: 0x2C }
  - { offsetInCU: 0x1DAC5, offset: 0x1DAC5, size: 0x8, addend: 0x0, symName: __ZNSt3__13minB8ue170006IlEERKT_S3_S3_, symObjAddr: 0xDB9C, symBinAddr: 0x100010A24, symSize: 0x2C }
  - { offsetInCU: 0x1DB08, offset: 0x1DB08, size: 0x8, addend: 0x0, symName: __ZNSt3__13maxB8ue170006IlNS_6__lessIvvEEEERKT_S5_S5_T0_, symObjAddr: 0xDC0C, symBinAddr: 0x100010A94, symSize: 0x54 }
  - { offsetInCU: 0x1DB62, offset: 0x1DB62, size: 0x8, addend: 0x0, symName: __ZNSt3__13minB8ue170006IlNS_6__lessIvvEEEERKT_S5_S5_T0_, symObjAddr: 0xDC94, symBinAddr: 0x100010B1C, symSize: 0x54 }
  - { offsetInCU: 0x1DC7D, offset: 0x1DC7D, size: 0x8, addend: 0x0, symName: __ZNSt3__112__to_addressB8ue170006IdEEPT_S2_, symObjAddr: 0x119DC, symBinAddr: 0x100014864, symSize: 0x14 }
  - { offsetInCU: 0x1DCB2, offset: 0x1DCB2, size: 0x8, addend: 0x0, symName: __ZNSt3__13maxB8ue170006ImEERKT_S3_S3_, symObjAddr: 0x11DF8, symBinAddr: 0x100014C80, symSize: 0x2C }
  - { offsetInCU: 0x1DEF7, offset: 0x1DEF7, size: 0x8, addend: 0x0, symName: __ZNSt3__120__throw_length_errorB8ue170006EPKc, symObjAddr: 0x11EA0, symBinAddr: 0x100014D28, symSize: 0x64 }
  - { offsetInCU: 0x1DF21, offset: 0x1DF21, size: 0x8, addend: 0x0, symName: __ZNSt3__13maxB8ue170006ImNS_6__lessIvvEEEERKT_S5_S5_T0_, symObjAddr: 0x11FE4, symBinAddr: 0x100014E6C, symSize: 0x54 }
  - { offsetInCU: 0x1DF7B, offset: 0x1DF7B, size: 0x8, addend: 0x0, symName: __ZNSt3__119__allocate_at_leastB8ue170006INS_9allocatorIdEEEENS_19__allocation_resultINS_16allocator_traitsIT_E7pointerEEERS5_m, symObjAddr: 0x12148, symBinAddr: 0x100014FD0, symSize: 0x40 }
  - { offsetInCU: 0x1DFBE, offset: 0x1DFBE, size: 0x8, addend: 0x0, symName: __ZNSt3__142__uninitialized_allocator_move_if_noexceptB8ue170006INS_9allocatorIdEENS_16reverse_iteratorIPdEES5_dvEET1_RT_T0_S9_S6_, symObjAddr: 0x1235C, symBinAddr: 0x1000151E4, symSize: 0x78 }
  - { offsetInCU: 0x1E03B, offset: 0x1E03B, size: 0x8, addend: 0x0, symName: __ZNSt3__14swapB8ue170006IPdEENS_9enable_ifIXaasr21is_move_constructibleIT_EE5valuesr18is_move_assignableIS3_EE5valueEvE4typeERS3_S6_, symObjAddr: 0x12420, symBinAddr: 0x1000152A8, symSize: 0x3C }
  - { offsetInCU: 0x1E08C, offset: 0x1E08C, size: 0x8, addend: 0x0, symName: __ZNSt3__14moveB8ue170006INS_16reverse_iteratorIPdEES3_EET0_T_S5_S4_, symObjAddr: 0x12550, symBinAddr: 0x1000153D8, symSize: 0x78 }
  - { offsetInCU: 0x1E0E6, offset: 0x1E0E6, size: 0x8, addend: 0x0, symName: __ZNSt3__16__moveB8ue170006INS_17_ClassicAlgPolicyENS_16reverse_iteratorIPdEES4_S4_EENS_4pairIT0_T2_EES6_T1_S7_, symObjAddr: 0x125C8, symBinAddr: 0x100015450, symSize: 0x64 }
  - { offsetInCU: 0x1E152, offset: 0x1E152, size: 0x8, addend: 0x0, symName: __ZNSt3__123__dispatch_copy_or_moveB8ue170006INS_17_ClassicAlgPolicyENS_11__move_loopIS1_EENS_14__move_trivialENS_16reverse_iteratorIPdEES7_S7_EENS_4pairIT2_T4_EES9_T3_SA_, symObjAddr: 0x1262C, symBinAddr: 0x1000154B4, symSize: 0x64 }
  - { offsetInCU: 0x1E1D0, offset: 0x1E1D0, size: 0x8, addend: 0x0, symName: __ZNSt3__121__unwrap_and_dispatchB8ue170006INS_10__overloadINS_11__move_loopINS_17_ClassicAlgPolicyEEENS_14__move_trivialEEENS_16reverse_iteratorIPdEES9_S9_Li0EEENS_4pairIT0_T2_EESB_T1_SC_, symObjAddr: 0x12690, symBinAddr: 0x100015518, symSize: 0x12C }
  - { offsetInCU: 0x1E260, offset: 0x1E260, size: 0x8, addend: 0x0, symName: __ZNSt3__114__unwrap_rangeB8ue170006INS_16reverse_iteratorIPdEES3_EENS_4pairIT0_S5_EET_S7_, symObjAddr: 0x127BC, symBinAddr: 0x100015644, symSize: 0x84 }
  - { offsetInCU: 0x1E41A, offset: 0x1E41A, size: 0x8, addend: 0x0, symName: __ZNSt3__113__unwrap_iterB8ue170006INS_16reverse_iteratorIPdEENS_18__unwrap_iter_implIS3_Lb0EEELi0EEEDTclsrT0_8__unwrapclsr3stdE7declvalIT_EEEES7_, symObjAddr: 0x128E0, symBinAddr: 0x100015768, symSize: 0x44 }
  - { offsetInCU: 0x1E45E, offset: 0x1E45E, size: 0x8, addend: 0x0, symName: __ZNSt3__19make_pairB8ue170006INS_16reverse_iteratorIPdEES3_EENS_4pairINS_18__unwrap_ref_decayIT_E4typeENS5_IT0_E4typeEEEOS6_OS9_, symObjAddr: 0x12924, symBinAddr: 0x1000157AC, symSize: 0x38 }
  - { offsetInCU: 0x1E4AD, offset: 0x1E4AD, size: 0x8, addend: 0x0, symName: __ZNSt3__114__rewrap_rangeB8ue170006INS_16reverse_iteratorIPdEES3_EET_S4_T0_, symObjAddr: 0x1295C, symBinAddr: 0x1000157E4, symSize: 0x5C }
  - { offsetInCU: 0x1E4F9, offset: 0x1E4F9, size: 0x8, addend: 0x0, symName: __ZNSt3__113__rewrap_iterB8ue170006INS_16reverse_iteratorIPdEES3_NS_18__unwrap_iter_implIS3_Lb0EEEEET_S6_T0_, symObjAddr: 0x129B8, symBinAddr: 0x100015840, symSize: 0x74 }
  - { offsetInCU: 0x1E54E, offset: 0x1E54E, size: 0x8, addend: 0x0, symName: __ZNSt3__1neB8ue170006IPdS1_EEbRKNS_16reverse_iteratorIT_EERKNS2_IT0_EE, symObjAddr: 0x12A2C, symBinAddr: 0x1000158B4, symSize: 0x48 }
  - { offsetInCU: 0x1E680, offset: 0x1E680, size: 0x8, addend: 0x0, symName: __ZNSt3__112__to_addressB8ue170006IN5mpark7variantIJlN2xt14xrange_adaptorINS3_12placeholders5xtuphEllEENS4_IlS6_lEENS4_IllS6_EENS4_IlS6_S6_EENS4_IS6_lS6_EENS4_IS6_S6_lEENS4_IlllEENS4_IS6_S6_S6_EENS3_6xrangeIlEENS3_14xstepped_rangeIlEENS3_8xall_tagENS3_13xellipsis_tagENS3_12xnewaxis_tagEEEEEEPT_SO_, symObjAddr: 0x13080, symBinAddr: 0x100015F08, symSize: 0x14 }
  - { offsetInCU: 0x1E6B5, offset: 0x1E6B5, size: 0x8, addend: 0x0, symName: __ZNSt3__119__allocate_at_leastB8ue170006INS_9allocatorIN5mpark7variantIJlN2xt14xrange_adaptorINS4_12placeholders5xtuphEllEENS5_IlS7_lEENS5_IllS7_EENS5_IlS7_S7_EENS5_IS7_lS7_EENS5_IS7_S7_lEENS5_IlllEENS5_IS7_S7_S7_EENS4_6xrangeIlEENS4_14xstepped_rangeIlEENS4_8xall_tagENS4_13xellipsis_tagENS4_12xnewaxis_tagEEEEEEEENS_19__allocation_resultINS_16allocator_traitsIT_E7pointerEEERSR_m, symObjAddr: 0x13684, symBinAddr: 0x10001650C, symSize: 0x40 }
  - { offsetInCU: 0x1E6F8, offset: 0x1E6F8, size: 0x8, addend: 0x0, symName: __ZNSt3__142__uninitialized_allocator_move_if_noexceptB8ue170006INS_9allocatorIN5mpark7variantIJlN2xt14xrange_adaptorINS4_12placeholders5xtuphEllEENS5_IlS7_lEENS5_IllS7_EENS5_IlS7_S7_EENS5_IS7_lS7_EENS5_IS7_S7_lEENS5_IlllEENS5_IS7_S7_S7_EENS4_6xrangeIlEENS4_14xstepped_rangeIlEENS4_8xall_tagENS4_13xellipsis_tagENS4_12xnewaxis_tagEEEEEENS_16reverse_iteratorIPSN_EESR_SN_vEET1_RT_T0_SV_SS_, symObjAddr: 0x138F0, symBinAddr: 0x100016778, symSize: 0x78 }
  - { offsetInCU: 0x1E775, offset: 0x1E775, size: 0x8, addend: 0x0, symName: __ZNSt3__14swapB8ue170006IPN5mpark7variantIJlN2xt14xrange_adaptorINS3_12placeholders5xtuphEllEENS4_IlS6_lEENS4_IllS6_EENS4_IlS6_S6_EENS4_IS6_lS6_EENS4_IS6_S6_lEENS4_IlllEENS4_IS6_S6_S6_EENS3_6xrangeIlEENS3_14xstepped_rangeIlEENS3_8xall_tagENS3_13xellipsis_tagENS3_12xnewaxis_tagEEEEEENS_9enable_ifIXaasr21is_move_constructibleIT_EE5valuesr18is_move_assignableISP_EE5valueEvE4typeERSP_SS_, symObjAddr: 0x139B4, symBinAddr: 0x10001683C, symSize: 0x3C }
  - { offsetInCU: 0x1E7C6, offset: 0x1E7C6, size: 0x8, addend: 0x0, symName: __ZNSt3__14moveB8ue170006INS_16reverse_iteratorIPN5mpark7variantIJlN2xt14xrange_adaptorINS4_12placeholders5xtuphEllEENS5_IlS7_lEENS5_IllS7_EENS5_IlS7_S7_EENS5_IS7_lS7_EENS5_IS7_S7_lEENS5_IlllEENS5_IS7_S7_S7_EENS4_6xrangeIlEENS4_14xstepped_rangeIlEENS4_8xall_tagENS4_13xellipsis_tagENS4_12xnewaxis_tagEEEEEESP_EET0_T_SR_SQ_, symObjAddr: 0x13AE4, symBinAddr: 0x10001696C, symSize: 0x78 }
  - { offsetInCU: 0x1E820, offset: 0x1E820, size: 0x8, addend: 0x0, symName: __ZNSt3__16__moveB8ue170006INS_17_ClassicAlgPolicyENS_16reverse_iteratorIPN5mpark7variantIJlN2xt14xrange_adaptorINS5_12placeholders5xtuphEllEENS6_IlS8_lEENS6_IllS8_EENS6_IlS8_S8_EENS6_IS8_lS8_EENS6_IS8_S8_lEENS6_IlllEENS6_IS8_S8_S8_EENS5_6xrangeIlEENS5_14xstepped_rangeIlEENS5_8xall_tagENS5_13xellipsis_tagENS5_12xnewaxis_tagEEEEEESQ_SQ_EENS_4pairIT0_T2_EESS_T1_ST_, symObjAddr: 0x13B5C, symBinAddr: 0x1000169E4, symSize: 0x64 }
  - { offsetInCU: 0x1E88C, offset: 0x1E88C, size: 0x8, addend: 0x0, symName: __ZNSt3__123__dispatch_copy_or_moveB8ue170006INS_17_ClassicAlgPolicyENS_11__move_loopIS1_EENS_14__move_trivialENS_16reverse_iteratorIPN5mpark7variantIJlN2xt14xrange_adaptorINS8_12placeholders5xtuphEllEENS9_IlSB_lEENS9_IllSB_EENS9_IlSB_SB_EENS9_ISB_lSB_EENS9_ISB_SB_lEENS9_IlllEENS9_ISB_SB_SB_EENS8_6xrangeIlEENS8_14xstepped_rangeIlEENS8_8xall_tagENS8_13xellipsis_tagENS8_12xnewaxis_tagEEEEEEST_ST_EENS_4pairIT2_T4_EESV_T3_SW_, symObjAddr: 0x13BC0, symBinAddr: 0x100016A48, symSize: 0x64 }
  - { offsetInCU: 0x1E90A, offset: 0x1E90A, size: 0x8, addend: 0x0, symName: __ZNSt3__121__unwrap_and_dispatchB8ue170006INS_10__overloadINS_11__move_loopINS_17_ClassicAlgPolicyEEENS_14__move_trivialEEENS_16reverse_iteratorIPN5mpark7variantIJlN2xt14xrange_adaptorINSA_12placeholders5xtuphEllEENSB_IlSD_lEENSB_IllSD_EENSB_IlSD_SD_EENSB_ISD_lSD_EENSB_ISD_SD_lEENSB_IlllEENSB_ISD_SD_SD_EENSA_6xrangeIlEENSA_14xstepped_rangeIlEENSA_8xall_tagENSA_13xellipsis_tagENSA_12xnewaxis_tagEEEEEESV_SV_Li0EEENS_4pairIT0_T2_EESX_T1_SY_, symObjAddr: 0x13C24, symBinAddr: 0x100016AAC, symSize: 0x12C }
  - { offsetInCU: 0x1E99A, offset: 0x1E99A, size: 0x8, addend: 0x0, symName: __ZNSt3__114__unwrap_rangeB8ue170006INS_16reverse_iteratorIPN5mpark7variantIJlN2xt14xrange_adaptorINS4_12placeholders5xtuphEllEENS5_IlS7_lEENS5_IllS7_EENS5_IlS7_S7_EENS5_IS7_lS7_EENS5_IS7_S7_lEENS5_IlllEENS5_IS7_S7_S7_EENS4_6xrangeIlEENS4_14xstepped_rangeIlEENS4_8xall_tagENS4_13xellipsis_tagENS4_12xnewaxis_tagEEEEEESP_EENS_4pairIT0_SR_EET_ST_, symObjAddr: 0x13D50, symBinAddr: 0x100016BD8, symSize: 0x84 }
  - { offsetInCU: 0x1EABA, offset: 0x1EABA, size: 0x8, addend: 0x0, symName: __ZNSt3__113__unwrap_iterB8ue170006INS_16reverse_iteratorIPN5mpark7variantIJlN2xt14xrange_adaptorINS4_12placeholders5xtuphEllEENS5_IlS7_lEENS5_IllS7_EENS5_IlS7_S7_EENS5_IS7_lS7_EENS5_IS7_S7_lEENS5_IlllEENS5_IS7_S7_S7_EENS4_6xrangeIlEENS4_14xstepped_rangeIlEENS4_8xall_tagENS4_13xellipsis_tagENS4_12xnewaxis_tagEEEEEENS_18__unwrap_iter_implISP_Lb0EEELi0EEEDTclsrT0_8__unwrapclsr3stdE7declvalIT_EEEEST_, symObjAddr: 0x13E7C, symBinAddr: 0x100016D04, symSize: 0x44 }
  - { offsetInCU: 0x1EAFE, offset: 0x1EAFE, size: 0x8, addend: 0x0, symName: __ZNSt3__19make_pairB8ue170006INS_16reverse_iteratorIPN5mpark7variantIJlN2xt14xrange_adaptorINS4_12placeholders5xtuphEllEENS5_IlS7_lEENS5_IllS7_EENS5_IlS7_S7_EENS5_IS7_lS7_EENS5_IS7_S7_lEENS5_IlllEENS5_IS7_S7_S7_EENS4_6xrangeIlEENS4_14xstepped_rangeIlEENS4_8xall_tagENS4_13xellipsis_tagENS4_12xnewaxis_tagEEEEEESP_EENS_4pairINS_18__unwrap_ref_decayIT_E4typeENSR_IT0_E4typeEEEOSS_OSV_, symObjAddr: 0x13EC0, symBinAddr: 0x100016D48, symSize: 0x38 }
  - { offsetInCU: 0x1EB4D, offset: 0x1EB4D, size: 0x8, addend: 0x0, symName: __ZNSt3__114__rewrap_rangeB8ue170006INS_16reverse_iteratorIPN5mpark7variantIJlN2xt14xrange_adaptorINS4_12placeholders5xtuphEllEENS5_IlS7_lEENS5_IllS7_EENS5_IlS7_S7_EENS5_IS7_lS7_EENS5_IS7_S7_lEENS5_IlllEENS5_IS7_S7_S7_EENS4_6xrangeIlEENS4_14xstepped_rangeIlEENS4_8xall_tagENS4_13xellipsis_tagENS4_12xnewaxis_tagEEEEEESP_EET_SQ_T0_, symObjAddr: 0x13EF8, symBinAddr: 0x100016D80, symSize: 0x5C }
  - { offsetInCU: 0x1EB99, offset: 0x1EB99, size: 0x8, addend: 0x0, symName: __ZNSt3__113__rewrap_iterB8ue170006INS_16reverse_iteratorIPN5mpark7variantIJlN2xt14xrange_adaptorINS4_12placeholders5xtuphEllEENS5_IlS7_lEENS5_IllS7_EENS5_IlS7_S7_EENS5_IS7_lS7_EENS5_IS7_S7_lEENS5_IlllEENS5_IS7_S7_S7_EENS4_6xrangeIlEENS4_14xstepped_rangeIlEENS4_8xall_tagENS4_13xellipsis_tagENS4_12xnewaxis_tagEEEEEESP_NS_18__unwrap_iter_implISP_Lb0EEEEET_SS_T0_, symObjAddr: 0x13F54, symBinAddr: 0x100016DDC, symSize: 0x74 }
  - { offsetInCU: 0x1EBEE, offset: 0x1EBEE, size: 0x8, addend: 0x0, symName: __ZNSt3__1neB8ue170006IPN5mpark7variantIJlN2xt14xrange_adaptorINS3_12placeholders5xtuphEllEENS4_IlS6_lEENS4_IllS6_EENS4_IlS6_S6_EENS4_IS6_lS6_EENS4_IS6_S6_lEENS4_IlllEENS4_IS6_S6_S6_EENS3_6xrangeIlEENS3_14xstepped_rangeIlEENS3_8xall_tagENS3_13xellipsis_tagENS3_12xnewaxis_tagEEEESN_EEbRKNS_16reverse_iteratorIT_EERKNSO_IT0_EE, symObjAddr: 0x13FC8, symBinAddr: 0x100016E50, symSize: 0x48 }
  - { offsetInCU: 0x1ECA7, offset: 0x1ECA7, size: 0x8, addend: 0x0, symName: __ZNSt3__1lsB8ue170006INS_11char_traitsIcEEEERNS_13basic_ostreamIcT_EES6_c, symObjAddr: 0x14F80, symBinAddr: 0x100017E08, symSize: 0x34 }
  - { offsetInCU: 0x1ECED, offset: 0x1ECED, size: 0x8, addend: 0x0, symName: __ZNSt3__1lsB8ue170006IcNS_11char_traitsIcEENS_9allocatorIcEEEERNS_13basic_ostreamIT_T0_EES9_RKNS_12basic_stringIS6_S7_T1_EE, symObjAddr: 0x14FB4, symBinAddr: 0x100017E3C, symSize: 0x4C }
  - { offsetInCU: 0x1F683, offset: 0x1F683, size: 0x8, addend: 0x0, symName: __ZNSt3__15fixedB8ue170006ERNS_8ios_baseE, symObjAddr: 0x15144, symBinAddr: 0x100017FCC, symSize: 0x30 }
  - { offsetInCU: 0x1F6BC, offset: 0x1F6BC, size: 0x8, addend: 0x0, symName: __ZNSt3__110scientificB8ue170006ERNS_8ios_baseE, symObjAddr: 0x152A4, symBinAddr: 0x10001812C, symSize: 0x30 }
  - { offsetInCU: 0x20199, offset: 0x20199, size: 0x8, addend: 0x0, symName: __ZSt28__throw_bad_array_new_lengthB8ue170006v, symObjAddr: 0x1970, symBinAddr: 0x1000047F8, symSize: 0x34 }
  - { offsetInCU: 0x20EFF, offset: 0x20EFF, size: 0x8, addend: 0x0, symName: __ZNK2xt18xstrided_containerINS_16xarray_containerINS_7uvectorIdNSt3__19allocatorIdEEEELNS_11layout_typeE2ENS_7svectorImLm4ENS4_ImEELb1EEENS_22xtensor_expression_tagEEEE13is_contiguousEv, symObjAddr: 0x3BE0, symBinAddr: 0x100006A68, symSize: 0x244 }
  - { offsetInCU: 0x20F9D, offset: 0x20F9D, size: 0x8, addend: 0x0, symName: __ZN2xt15linear_assignerILb0EE8run_implINS_16xarray_containerINS_7uvectorIdNSt3__19allocatorIdEEEELNS_11layout_typeE2ENS_7svectorImLm4ENS6_ImEELb1EEENS_22xtensor_expression_tagEEENS3_IS8_LS9_1ESC_SD_EEEEvRT_RKT0_NS5_17integral_constantIbLb1EEE, symObjAddr: 0x443C, symBinAddr: 0x1000072C4, symSize: 0x98 }
  - { offsetInCU: 0x21063, offset: 0x21063, size: 0x8, addend: 0x0, symName: __ZN2xt13stepper_toolsILNS_11layout_typeE2EE17increment_stepperINS_16stepper_assignerINS_16xarray_containerINS_7uvectorIdNSt3__19allocatorIdEEEELS1_2ENS_7svectorImLm4ENS8_ImEELb1EEENS_22xtensor_expression_tagEEENS5_ISA_LS1_1ESD_SE_EELS1_2EEESD_SD_EEvRT_RT0_RKT1_, symObjAddr: 0x4B08, symBinAddr: 0x100007990, symSize: 0x1A8 }
  - { offsetInCU: 0x21112, offset: 0x21112, size: 0x8, addend: 0x0, symName: __ZN2xt8xstepperINS_16xarray_containerINS_7uvectorIdNSt3__19allocatorIdEEEELNS_11layout_typeE2ENS_7svectorImLm4ENS4_ImEELb1EEENS_22xtensor_expression_tagEEEE4stepEmm, symObjAddr: 0x4E6C, symBinAddr: 0x100007CF4, symSize: 0x8C }
  - { offsetInCU: 0x21162, offset: 0x21162, size: 0x8, addend: 0x0, symName: __ZN2xt8xstepperIKNS_16xarray_containerINS_7uvectorIdNSt3__19allocatorIdEEEELNS_11layout_typeE1ENS_7svectorImLm4ENS4_ImEELb1EEENS_22xtensor_expression_tagEEEE4stepEmm, symObjAddr: 0x4EF8, symBinAddr: 0x100007D80, symSize: 0x8C }
  - { offsetInCU: 0x21855, offset: 0x21855, size: 0x8, addend: 0x0, symName: __ZN2xt6detail17strided_view_argsINS0_21no_adj_strides_policyEE9fill_argsINS_7svectorImLm4ENSt3__19allocatorImEELb1EEERKNS5_IlLm4ENS7_IlEELb1EEENS6_6vectorIN5mpark7variantIJlNS_14xrange_adaptorINS_12placeholders5xtuphEllEENSH_IlSJ_lEENSH_IllSJ_EENSH_IlSJ_SJ_EENSH_ISJ_lSJ_EENSH_ISJ_SJ_lEENSH_IlllEENSH_ISJ_SJ_SJ_EENS_6xrangeIlEENS_14xstepped_rangeIlEENS_8xall_tagENS_13xellipsis_tagENS_12xnewaxis_tagEEEENS7_ISZ_EEEEEEvRKT_OT0_mNS_11layout_typeERKT1_, symObjAddr: 0xAAF0, symBinAddr: 0x10000D978, symSize: 0x844 }
  - { offsetInCU: 0x21CAB, offset: 0x21CAB, size: 0x8, addend: 0x0, symName: __Z3powB8ue170006IilENSt3__19enable_ifIXaasr3std13is_arithmeticIT_EE5valuesr3std13is_arithmeticIT0_EE5valueENS0_9__promoteIS2_S3_vEEE4type4typeES2_S3_, symObjAddr: 0x116D4, symBinAddr: 0x10001455C, symSize: 0x3C }
  - { offsetInCU: 0x21E9D, offset: 0x21E9D, size: 0x8, addend: 0x0, symName: __ZNSt3__16vectorIdNS_9allocatorIdEEE26__swap_out_circular_bufferERNS_14__split_bufferIdRS2_EE, symObjAddr: 0x11C00, symBinAddr: 0x100014A88, symSize: 0x110 }
  - { offsetInCU: 0x21EE0, offset: 0x21EE0, size: 0x8, addend: 0x0, symName: __ZNSt3__16vectorIN5mpark7variantIJlN2xt14xrange_adaptorINS3_12placeholders5xtuphEllEENS4_IlS6_lEENS4_IllS6_EENS4_IlS6_S6_EENS4_IS6_lS6_EENS4_IS6_S6_lEENS4_IlllEENS4_IS6_S6_S6_EENS3_6xrangeIlEENS3_14xstepped_rangeIlEENS3_8xall_tagENS3_13xellipsis_tagENS3_12xnewaxis_tagEEEENS_9allocatorISM_EEE26__swap_out_circular_bufferERNS_14__split_bufferISM_RSO_EE, symObjAddr: 0x13284, symBinAddr: 0x10001610C, symSize: 0x110 }
  - { offsetInCU: 0x24272, offset: 0x24272, size: 0x8, addend: 0x0, symName: __ZN3xtl13make_sequenceIN2xt7svectorImLm4ENSt3__19allocatorImEELb1EEEEET_NS7_9size_typeENS7_10value_typeE, symObjAddr: 0x10DC, symBinAddr: 0x100003F64, symSize: 0x34 }
  - { offsetInCU: 0x242B5, offset: 0x242B5, size: 0x8, addend: 0x0, symName: __ZN3xtl13make_sequenceIN2xt7svectorIlLm4ENSt3__19allocatorIlEELb1EEEEET_NS7_9size_typeENS7_10value_typeE, symObjAddr: 0x11BC, symBinAddr: 0x100004044, symSize: 0x34 }
  - { offsetInCU: 0x24435, offset: 0x24435, size: 0x8, addend: 0x0, symName: __ZN3xtl3mpl9static_ifILb0EZN2xt18assign_xexpressionINS2_16xarray_containerINS2_7uvectorIdNSt3__19allocatorIdEEEELNS2_11layout_typeE2ENS2_7svectorImLm4ENS7_ImEELb1EEENS2_22xtensor_expression_tagEEENS4_IS9_LSA_1ESD_SE_EEEEvRNS2_11xexpressionIT_EERKNSH_IT0_EEEUlSI_E_ZNS3_ISF_SG_EEvSK_SO_EUlSI_E0_EEDcRKSL_RKT1_, symObjAddr: 0x2D20, symBinAddr: 0x100005BA8, symSize: 0x2C }
  - { offsetInCU: 0x2448A, offset: 0x2448A, size: 0x8, addend: 0x0, symName: __ZN3xtl3mpl9static_ifIZN2xt18assign_xexpressionINS2_16xarray_containerINS2_7uvectorIdNSt3__19allocatorIdEEEELNS2_11layout_typeE2ENS2_7svectorImLm4ENS7_ImEELb1EEENS2_22xtensor_expression_tagEEENS4_IS9_LSA_1ESD_SE_EEEEvRNS2_11xexpressionIT_EERKNSH_IT0_EEEUlSI_E_ZNS3_ISF_SG_EEvSK_SO_EUlSI_E0_EEDcNS6_17integral_constantIbLb0EEERKSI_RKSL_, symObjAddr: 0x2D4C, symBinAddr: 0x100005BD4, symSize: 0x28 }
  - { offsetInCU: 0x244DC, offset: 0x244DC, size: 0x8, addend: 0x0, symName: __ZN3xtl3mpl9static_ifILb1EZN2xt12linear_beginINS2_16xarray_containerINS2_7uvectorIdNSt3__19allocatorIdEEEELNS2_11layout_typeE1ENS2_7svectorImLm4ENS7_ImEELb1EEENS2_22xtensor_expression_tagEEEEEDaRKT_EUlSH_E_ZNS3_ISF_EESG_SJ_EUlSH_E0_EEDcRKT0_RKT1_, symObjAddr: 0x458C, symBinAddr: 0x100007414, symSize: 0x2C }
  - { offsetInCU: 0x24535, offset: 0x24535, size: 0x8, addend: 0x0, symName: __ZN3xtl3mpl9static_ifIZN2xt12linear_beginINS2_16xarray_containerINS2_7uvectorIdNSt3__19allocatorIdEEEELNS2_11layout_typeE1ENS2_7svectorImLm4ENS7_ImEELb1EEENS2_22xtensor_expression_tagEEEEEDaRKT_EUlSH_E_ZNS3_ISF_EESG_SJ_EUlSH_E0_EEDcNS6_17integral_constantIbLb1EEESJ_RKT0_, symObjAddr: 0x45B8, symBinAddr: 0x100007440, symSize: 0x28 }
  - { offsetInCU: 0x2458B, offset: 0x2458B, size: 0x8, addend: 0x0, symName: __ZN3xtl3mpl9static_ifILb1EZN2xt12linear_beginINS2_16xarray_containerINS2_7uvectorIdNSt3__19allocatorIdEEEELNS2_11layout_typeE2ENS2_7svectorImLm4ENS7_ImEELb1EEENS2_22xtensor_expression_tagEEEEEDaRT_EUlSH_E_ZNS3_ISF_EESG_SI_EUlSH_E0_EEDcRKT0_RKT1_, symObjAddr: 0x46CC, symBinAddr: 0x100007554, symSize: 0x2C }
  - { offsetInCU: 0x245E4, offset: 0x245E4, size: 0x8, addend: 0x0, symName: __ZN3xtl3mpl9static_ifIZN2xt12linear_beginINS2_16xarray_containerINS2_7uvectorIdNSt3__19allocatorIdEEEELNS2_11layout_typeE2ENS2_7svectorImLm4ENS7_ImEELb1EEENS2_22xtensor_expression_tagEEEEEDaRT_EUlSH_E_ZNS3_ISF_EESG_SI_EUlSH_E0_EEDcNS6_17integral_constantIbLb1EEERKSH_RKT0_, symObjAddr: 0x46F8, symBinAddr: 0x100007580, symSize: 0x28 }
  - { offsetInCU: 0x246AE, offset: 0x246AE, size: 0x8, addend: 0x0, symName: __ZN3xtl16forward_sequenceIN2xt7svectorImLm4ENSt3__19allocatorImEELb1EEERKS6_EEDcRNS3_16remove_referenceIT0_E4typeE, symObjAddr: 0x3128, symBinAddr: 0x100005FB0, symSize: 0x24 }
  - { offsetInCU: 0x246EC, offset: 0x246EC, size: 0x8, addend: 0x0, symName: __ZN3xtl16forward_sequenceIN2xt7svectorImLm4ENSt3__19allocatorImEELb1EEES6_EEDcRNS3_16remove_referenceIT0_E4typeE, symObjAddr: 0x885C, symBinAddr: 0x10000B6E4, symSize: 0x24 }
  - { offsetInCU: 0x24736, offset: 0x24736, size: 0x8, addend: 0x0, symName: _main, symObjAddr: 0x0, symBinAddr: 0x100002E88, symSize: 0x3C0 }
  - { offsetInCU: 0x2477E, offset: 0x2477E, size: 0x8, addend: 0x0, symName: __ZN2xt16xarray_containerINS_7uvectorIdNSt3__19allocatorIdEEEELNS_11layout_typeE1ENS_7svectorImLm4ENS3_ImEELb1EEENS_22xtensor_expression_tagEEC1ESt16initializer_listISC_IdEE, symObjAddr: 0x3C0, symBinAddr: 0x100003248, symSize: 0x3C }
  - { offsetInCU: 0x247B8, offset: 0x247B8, size: 0x8, addend: 0x0, symName: __ZNSt3__113basic_ostreamIcNS_11char_traitsIcEEElsB8ue170006EPFRS3_S4_E, symObjAddr: 0x56C, symBinAddr: 0x1000033F4, symSize: 0x2C }
  - { offsetInCU: 0x247EC, offset: 0x247EC, size: 0x8, addend: 0x0, symName: __ZN2xt16xarray_containerINS_7uvectorIdNSt3__19allocatorIdEEEELNS_11layout_typeE2ENS_7svectorImLm4ENS3_ImEELb1EEENS_22xtensor_expression_tagEED1Ev, symObjAddr: 0x5F0, symBinAddr: 0x100003478, symSize: 0x2C }
  - { offsetInCU: 0x24816, offset: 0x24816, size: 0x8, addend: 0x0, symName: __ZN2xt16xarray_containerINS_7uvectorIdNSt3__19allocatorIdEEEELNS_11layout_typeE1ENS_7svectorImLm4ENS3_ImEELb1EEENS_22xtensor_expression_tagEED1Ev, symObjAddr: 0x8B4, symBinAddr: 0x10000373C, symSize: 0x2C }
  - { offsetInCU: 0x24840, offset: 0x24840, size: 0x8, addend: 0x0, symName: __ZNKR2xt11xexpressionINS_16xarray_containerINS_7uvectorIdNSt3__19allocatorIdEEEELNS_11layout_typeE1ENS_7svectorImLm4ENS4_ImEELb1EEENS_22xtensor_expression_tagEEEE12derived_castEv, symObjAddr: 0xA04, symBinAddr: 0x10000388C, symSize: 0x18 }
  - { offsetInCU: 0x24867, offset: 0x24867, size: 0x8, addend: 0x0, symName: __ZN2xt16xarray_containerINS_7uvectorIdNSt3__19allocatorIdEEEELNS_11layout_typeE2ENS_7svectorImLm4ENS3_ImEELb1EEENS_22xtensor_expression_tagEEC1EOSB_, symObjAddr: 0xBD4, symBinAddr: 0x100003A5C, symSize: 0x34 }
  - { offsetInCU: 0x2489B, offset: 0x2489B, size: 0x8, addend: 0x0, symName: __ZNK2xt10xcontainerINS_16xarray_containerINS_7uvectorIdNSt3__19allocatorIdEEEELNS_11layout_typeE1ENS_7svectorImLm4ENS4_ImEELb1EEENS_22xtensor_expression_tagEEEE5shapeEv, symObjAddr: 0xC08, symBinAddr: 0x100003A90, symSize: 0x28 }
  - { offsetInCU: 0x248C3, offset: 0x248C3, size: 0x8, addend: 0x0, symName: __ZNK2xt7svectorImLm4ENSt3__19allocatorImEELb1EEixEm, symObjAddr: 0xC30, symBinAddr: 0x100003AB8, symSize: 0x24 }
  - { offsetInCU: 0x248FA, offset: 0x248FA, size: 0x8, addend: 0x0, symName: __ZNK2xt10xcontainerINS_16xarray_containerINS_7uvectorIdNSt3__19allocatorIdEEEELNS_11layout_typeE1ENS_7svectorImLm4ENS4_ImEELb1EEENS_22xtensor_expression_tagEEEE9dimensionEv, symObjAddr: 0xC54, symBinAddr: 0x100003ADC, symSize: 0x38 }
  - { offsetInCU: 0x24922, offset: 0x24922, size: 0x8, addend: 0x0, symName: __ZNKR2xt10xcontainerINS_16xarray_containerINS_7uvectorIdNSt3__19allocatorIdEEEELNS_11layout_typeE1ENS_7svectorImLm4ENS4_ImEELb1EEENS_22xtensor_expression_tagEEEE12derived_castEv, symObjAddr: 0xC8C, symBinAddr: 0x100003B14, symSize: 0x14 }
  - { offsetInCU: 0x2494A, offset: 0x2494A, size: 0x8, addend: 0x0, symName: __ZNK2xt18xstrided_containerINS_16xarray_containerINS_7uvectorIdNSt3__19allocatorIdEEEELNS_11layout_typeE1ENS_7svectorImLm4ENS4_ImEELb1EEENS_22xtensor_expression_tagEEEE10shape_implEv, symObjAddr: 0xCA0, symBinAddr: 0x100003B28, symSize: 0x14 }
  - { offsetInCU: 0x24972, offset: 0x24972, size: 0x8, addend: 0x0, symName: __ZNK2xt7svectorImLm4ENSt3__19allocatorImEELb1EE4sizeEv, symObjAddr: 0xCB4, symBinAddr: 0x100003B3C, symSize: 0x28 }
  - { offsetInCU: 0x2499A, offset: 0x2499A, size: 0x8, addend: 0x0, symName: __ZN2xt16xarray_containerINS_7uvectorIdNSt3__19allocatorIdEEEELNS_11layout_typeE2ENS_7svectorImLm4ENS3_ImEELb1EEENS_22xtensor_expression_tagEEC1INS0_IS5_LS6_1ES9_SA_EEEERKNS_11xexpressionIT_EE, symObjAddr: 0xCE8, symBinAddr: 0x100003B70, symSize: 0x34 }
  - { offsetInCU: 0x249DD, offset: 0x249DD, size: 0x8, addend: 0x0, symName: __ZN2xt16xarray_containerINS_7uvectorIdNSt3__19allocatorIdEEEELNS_11layout_typeE2ENS_7svectorImLm4ENS3_ImEELb1EEENS_22xtensor_expression_tagEEC2INS0_IS5_LS6_1ES9_SA_EEEERKNS_11xexpressionIT_EE, symObjAddr: 0xD1C, symBinAddr: 0x100003BA4, symSize: 0xE8 }
  - { offsetInCU: 0x24A20, offset: 0x24A20, size: 0x8, addend: 0x0, symName: __ZN2xt18xstrided_containerINS_16xarray_containerINS_7uvectorIdNSt3__19allocatorIdEEEELNS_11layout_typeE2ENS_7svectorImLm4ENS4_ImEELb1EEENS_22xtensor_expression_tagEEEEC2Ev, symObjAddr: 0xE04, symBinAddr: 0x100003C8C, symSize: 0xF0 }
  - { offsetInCU: 0x24A4C, offset: 0x24A4C, size: 0x8, addend: 0x0, symName: __ZN2xt19xcontainer_semanticINS_16xarray_containerINS_7uvectorIdNSt3__19allocatorIdEEEELNS_11layout_typeE2ENS_7svectorImLm4ENS4_ImEELb1EEENS_22xtensor_expression_tagEEEEC2Ev, symObjAddr: 0xEF4, symBinAddr: 0x100003D7C, symSize: 0x2C }
  - { offsetInCU: 0x24A76, offset: 0x24A76, size: 0x8, addend: 0x0, symName: __ZN2xt7uvectorIdNSt3__19allocatorIdEEEC1Ev, symObjAddr: 0xF20, symBinAddr: 0x100003DA8, symSize: 0x40 }
  - { offsetInCU: 0x24AA7, offset: 0x24AA7, size: 0x8, addend: 0x0, symName: __ZN2xt14xsemantic_baseINS_16xarray_containerINS_7uvectorIdNSt3__19allocatorIdEEEELNS_11layout_typeE2ENS_7svectorImLm4ENS4_ImEELb1EEENS_22xtensor_expression_tagEEEE6assignINS1_IS6_LS7_1ESA_SB_EEEERSC_RKNS_11xexpressionIT_EE, symObjAddr: 0xF8C, symBinAddr: 0x100003E14, symSize: 0x34 }
  - { offsetInCU: 0x24AE6, offset: 0x24AE6, size: 0x8, addend: 0x0, symName: __ZN2xt7uvectorIdNSt3__19allocatorIdEEED1Ev, symObjAddr: 0xFC0, symBinAddr: 0x100003E48, symSize: 0x2C }
  - { offsetInCU: 0x24B12, offset: 0x24B12, size: 0x8, addend: 0x0, symName: __ZN2xt19xcontainer_semanticINS_16xarray_containerINS_7uvectorIdNSt3__19allocatorIdEEEELNS_11layout_typeE2ENS_7svectorImLm4ENS4_ImEELb1EEENS_22xtensor_expression_tagEEEED2Ev, symObjAddr: 0xFEC, symBinAddr: 0x100003E74, symSize: 0x2C }
  - { offsetInCU: 0x24B3C, offset: 0x24B3C, size: 0x8, addend: 0x0, symName: __ZN2xt18xstrided_containerINS_16xarray_containerINS_7uvectorIdNSt3__19allocatorIdEEEELNS_11layout_typeE2ENS_7svectorImLm4ENS4_ImEELb1EEENS_22xtensor_expression_tagEEEED2Ev, symObjAddr: 0x1018, symBinAddr: 0x100003EA0, symSize: 0x44 }
  - { offsetInCU: 0x24B66, offset: 0x24B66, size: 0x8, addend: 0x0, symName: __ZN2xt7svectorImLm4ENSt3__19allocatorImEELb1EEC1Ev, symObjAddr: 0x105C, symBinAddr: 0x100003EE4, symSize: 0x40 }
  - { offsetInCU: 0x24B92, offset: 0x24B92, size: 0x8, addend: 0x0, symName: __ZN2xt7svectorIlLm4ENSt3__19allocatorIlEELb1EEC1Ev, symObjAddr: 0x109C, symBinAddr: 0x100003F24, symSize: 0x40 }
  - { offsetInCU: 0x24BBE, offset: 0x24BBE, size: 0x8, addend: 0x0, symName: __ZNK2xt10xcontainerINS_16xarray_containerINS_7uvectorIdNSt3__19allocatorIdEEEELNS_11layout_typeE2ENS_7svectorImLm4ENS4_ImEELb1EEENS_22xtensor_expression_tagEEEE9dimensionEv, symObjAddr: 0x1110, symBinAddr: 0x100003F98, symSize: 0x28 }
  - { offsetInCU: 0x24BE6, offset: 0x24BE6, size: 0x8, addend: 0x0, symName: __ZN2xt7svectorImLm4ENSt3__19allocatorImEELb1EEaSEOS4_, symObjAddr: 0x1138, symBinAddr: 0x100003FC0, symSize: 0x58 }
  - { offsetInCU: 0x24C1D, offset: 0x24C1D, size: 0x8, addend: 0x0, symName: __ZN2xt7svectorImLm4ENSt3__19allocatorImEELb1EED1Ev, symObjAddr: 0x1190, symBinAddr: 0x100004018, symSize: 0x2C }
  - { offsetInCU: 0x24C49, offset: 0x24C49, size: 0x8, addend: 0x0, symName: __ZN2xt7svectorIlLm4ENSt3__19allocatorIlEELb1EEaSEOS4_, symObjAddr: 0x11F0, symBinAddr: 0x100004078, symSize: 0x58 }
  - { offsetInCU: 0x24C80, offset: 0x24C80, size: 0x8, addend: 0x0, symName: __ZN2xt7svectorIlLm4ENSt3__19allocatorIlEELb1EED1Ev, symObjAddr: 0x1248, symBinAddr: 0x1000040D0, symSize: 0x2C }
  - { offsetInCU: 0x24CAC, offset: 0x24CAC, size: 0x8, addend: 0x0, symName: __ZNSt3__19allocatorImEC1B8ue170006Ev, symObjAddr: 0x1274, symBinAddr: 0x1000040FC, symSize: 0x2C }
  - { offsetInCU: 0x24CD6, offset: 0x24CD6, size: 0x8, addend: 0x0, symName: __ZN2xt7svectorImLm4ENSt3__19allocatorImEELb1EEC1ERKS3_, symObjAddr: 0x12A0, symBinAddr: 0x100004128, symSize: 0x34 }
  - { offsetInCU: 0x24D11, offset: 0x24D11, size: 0x8, addend: 0x0, symName: __ZNSt3__19allocatorImEC2B8ue170006Ev, symObjAddr: 0x12D4, symBinAddr: 0x10000415C, symSize: 0x2C }
  - { offsetInCU: 0x24D3B, offset: 0x24D3B, size: 0x8, addend: 0x0, symName: __ZNSt3__116__non_trivial_ifILb1ENS_9allocatorImEEEC2B8ue170006Ev, symObjAddr: 0x1300, symBinAddr: 0x100004188, symSize: 0x14 }
  - { offsetInCU: 0x24D65, offset: 0x24D65, size: 0x8, addend: 0x0, symName: __ZN2xt7svectorImLm4ENSt3__19allocatorImEELb1EEC2ERKS3_, symObjAddr: 0x1314, symBinAddr: 0x10000419C, symSize: 0x80 }
  - { offsetInCU: 0x24DA0, offset: 0x24DA0, size: 0x8, addend: 0x0, symName: __ZNSt3__19allocatorIlEC1B8ue170006Ev, symObjAddr: 0x13C0, symBinAddr: 0x100004248, symSize: 0x2C }
  - { offsetInCU: 0x24DCA, offset: 0x24DCA, size: 0x8, addend: 0x0, symName: __ZN2xt7svectorIlLm4ENSt3__19allocatorIlEELb1EEC1ERKS3_, symObjAddr: 0x13EC, symBinAddr: 0x100004274, symSize: 0x34 }
  - { offsetInCU: 0x24E05, offset: 0x24E05, size: 0x8, addend: 0x0, symName: __ZNSt3__19allocatorIlEC2B8ue170006Ev, symObjAddr: 0x1420, symBinAddr: 0x1000042A8, symSize: 0x2C }
  - { offsetInCU: 0x24E2F, offset: 0x24E2F, size: 0x8, addend: 0x0, symName: __ZNSt3__116__non_trivial_ifILb1ENS_9allocatorIlEEEC2B8ue170006Ev, symObjAddr: 0x144C, symBinAddr: 0x1000042D4, symSize: 0x14 }
  - { offsetInCU: 0x24E59, offset: 0x24E59, size: 0x8, addend: 0x0, symName: __ZN2xt7svectorIlLm4ENSt3__19allocatorIlEELb1EEC2ERKS3_, symObjAddr: 0x1460, symBinAddr: 0x1000042E8, symSize: 0x80 }
  - { offsetInCU: 0x24E93, offset: 0x24E93, size: 0x8, addend: 0x0, symName: __ZN3xtl6detail16sequence_builderIN2xt7svectorImLm4ENSt3__19allocatorImEELb1EEEE4makeEmm, symObjAddr: 0x150C, symBinAddr: 0x100004394, symSize: 0x58 }
  - { offsetInCU: 0x24EC4, offset: 0x24EC4, size: 0x8, addend: 0x0, symName: __ZN2xt7svectorImLm4ENSt3__19allocatorImEELb1EEC1EmRKmRKS3_, symObjAddr: 0x1564, symBinAddr: 0x1000043EC, symSize: 0x44 }
  - { offsetInCU: 0x24F1D, offset: 0x24F1D, size: 0x8, addend: 0x0, symName: __ZN2xt7svectorImLm4ENSt3__19allocatorImEELb1EEC2EmRKmRKS3_, symObjAddr: 0x15A8, symBinAddr: 0x100004430, symSize: 0x74 }
  - { offsetInCU: 0x24F76, offset: 0x24F76, size: 0x8, addend: 0x0, symName: __ZN2xt7svectorImLm4ENSt3__19allocatorImEELb1EE6assignEmRKm, symObjAddr: 0x161C, symBinAddr: 0x1000044A4, symSize: 0xAC }
  - { offsetInCU: 0x24FBC, offset: 0x24FBC, size: 0x8, addend: 0x0, symName: __ZNK2xt7svectorImLm4ENSt3__19allocatorImEELb1EE8capacityEv, symObjAddr: 0x16C8, symBinAddr: 0x100004550, symSize: 0x28 }
  - { offsetInCU: 0x24FE4, offset: 0x24FE4, size: 0x8, addend: 0x0, symName: __ZN2xt7svectorImLm4ENSt3__19allocatorImEELb1EE4growEm, symObjAddr: 0x16F0, symBinAddr: 0x100004578, symSize: 0x120 }
  - { offsetInCU: 0x25048, offset: 0x25048, size: 0x8, addend: 0x0, symName: __ZN2xt7svectorImLm4ENSt3__19allocatorImEELb1EE5beginEv, symObjAddr: 0x1844, symBinAddr: 0x1000046CC, symSize: 0x18 }
  - { offsetInCU: 0x25070, offset: 0x25070, size: 0x8, addend: 0x0, symName: __ZN2xt7svectorImLm4ENSt3__19allocatorImEELb1EE3endEv, symObjAddr: 0x185C, symBinAddr: 0x1000046E4, symSize: 0x18 }
  - { offsetInCU: 0x25098, offset: 0x25098, size: 0x8, addend: 0x0, symName: __ZNSt3__19allocatorImE8allocateB8ue170006Em, symObjAddr: 0x1874, symBinAddr: 0x1000046FC, symSize: 0x58 }
  - { offsetInCU: 0x250CC, offset: 0x250CC, size: 0x8, addend: 0x0, symName: __ZNSt3__19allocatorImE10deallocateB8ue170006EPmm, symObjAddr: 0x190C, symBinAddr: 0x100004794, symSize: 0x40 }
  - { offsetInCU: 0x25118, offset: 0x25118, size: 0x8, addend: 0x0, symName: __ZNSt3__116allocator_traitsINS_9allocatorImEEE8max_sizeB8ue170006IS2_vEEmRKS2_, symObjAddr: 0x194C, symBinAddr: 0x1000047D4, symSize: 0x24 }
  - { offsetInCU: 0x25146, offset: 0x25146, size: 0x8, addend: 0x0, symName: __ZNKSt3__19allocatorImE8max_sizeB8ue170006Ev, symObjAddr: 0x19CC, symBinAddr: 0x100004854, symSize: 0x14 }
  - { offsetInCU: 0x2518E, offset: 0x2518E, size: 0x8, addend: 0x0, symName: __ZNSt3__14pairIPmS1_EC1B8ue170006IS1_S1_LPv0EEEOT_OT0_, symObjAddr: 0x1B44, symBinAddr: 0x1000049CC, symSize: 0x3C }
  - { offsetInCU: 0x251EC, offset: 0x251EC, size: 0x8, addend: 0x0, symName: __ZNSt3__14pairIPmS1_EC2B8ue170006IS1_S1_LPv0EEEOT_OT0_, symObjAddr: 0x1B90, symBinAddr: 0x100004A18, symSize: 0x34 }
  - { offsetInCU: 0x2524A, offset: 0x2524A, size: 0x8, addend: 0x0, symName: __ZNK2xt10xcontainerINS_16xarray_containerINS_7uvectorIdNSt3__19allocatorIdEEEELNS_11layout_typeE2ENS_7svectorImLm4ENS4_ImEELb1EEENS_22xtensor_expression_tagEEEE5shapeEv, symObjAddr: 0x1D40, symBinAddr: 0x100004BC8, symSize: 0x28 }
  - { offsetInCU: 0x25272, offset: 0x25272, size: 0x8, addend: 0x0, symName: __ZNKR2xt10xcontainerINS_16xarray_containerINS_7uvectorIdNSt3__19allocatorIdEEEELNS_11layout_typeE2ENS_7svectorImLm4ENS4_ImEELb1EEENS_22xtensor_expression_tagEEEE12derived_castEv, symObjAddr: 0x1D68, symBinAddr: 0x100004BF0, symSize: 0x14 }
  - { offsetInCU: 0x2529A, offset: 0x2529A, size: 0x8, addend: 0x0, symName: __ZNK2xt18xstrided_containerINS_16xarray_containerINS_7uvectorIdNSt3__19allocatorIdEEEELNS_11layout_typeE2ENS_7svectorImLm4ENS4_ImEELb1EEENS_22xtensor_expression_tagEEEE10shape_implEv, symObjAddr: 0x1D7C, symBinAddr: 0x100004C04, symSize: 0x14 }
  - { offsetInCU: 0x252C2, offset: 0x252C2, size: 0x8, addend: 0x0, symName: __ZN2xt7svectorImLm4ENSt3__19allocatorImEELb1EE6assignIPmEEvT_S7_, symObjAddr: 0x1D90, symBinAddr: 0x100004C18, symSize: 0xB4 }
  - { offsetInCU: 0x25320, offset: 0x25320, size: 0x8, addend: 0x0, symName: __ZN2xt7svectorImLm4ENSt3__19allocatorImEELb1EED2Ev, symObjAddr: 0x1E44, symBinAddr: 0x100004CCC, symSize: 0x74 }
  - { offsetInCU: 0x2534C, offset: 0x2534C, size: 0x8, addend: 0x0, symName: __ZN2xt7svectorImLm4ENSt3__19allocatorImEELb1EE8on_stackEv, symObjAddr: 0x1EB8, symBinAddr: 0x100004D40, symSize: 0x28 }
  - { offsetInCU: 0x25373, offset: 0x25373, size: 0x8, addend: 0x0, symName: __ZNSt3__116allocator_traitsINS_9allocatorImEEE10deallocateB8ue170006ERS2_Pmm, symObjAddr: 0x1F2C, symBinAddr: 0x100004DB4, symSize: 0x34 }
  - { offsetInCU: 0x253B4, offset: 0x253B4, size: 0x8, addend: 0x0, symName: __ZN3xtl6detail16sequence_builderIN2xt7svectorIlLm4ENSt3__19allocatorIlEELb1EEEE4makeEml, symObjAddr: 0x1F60, symBinAddr: 0x100004DE8, symSize: 0x58 }
  - { offsetInCU: 0x253E5, offset: 0x253E5, size: 0x8, addend: 0x0, symName: __ZN2xt7svectorIlLm4ENSt3__19allocatorIlEELb1EEC1EmRKlRKS3_, symObjAddr: 0x1FB8, symBinAddr: 0x100004E40, symSize: 0x44 }
  - { offsetInCU: 0x2543E, offset: 0x2543E, size: 0x8, addend: 0x0, symName: __ZN2xt7svectorIlLm4ENSt3__19allocatorIlEELb1EEC2EmRKlRKS3_, symObjAddr: 0x1FFC, symBinAddr: 0x100004E84, symSize: 0x74 }
  - { offsetInCU: 0x25497, offset: 0x25497, size: 0x8, addend: 0x0, symName: __ZN2xt7svectorIlLm4ENSt3__19allocatorIlEELb1EE6assignEmRKl, symObjAddr: 0x2070, symBinAddr: 0x100004EF8, symSize: 0xAC }
  - { offsetInCU: 0x254DD, offset: 0x254DD, size: 0x8, addend: 0x0, symName: __ZNK2xt7svectorIlLm4ENSt3__19allocatorIlEELb1EE8capacityEv, symObjAddr: 0x211C, symBinAddr: 0x100004FA4, symSize: 0x28 }
  - { offsetInCU: 0x25505, offset: 0x25505, size: 0x8, addend: 0x0, symName: __ZN2xt7svectorIlLm4ENSt3__19allocatorIlEELb1EE4growEm, symObjAddr: 0x2144, symBinAddr: 0x100004FCC, symSize: 0x120 }
  - { offsetInCU: 0x25569, offset: 0x25569, size: 0x8, addend: 0x0, symName: __ZN2xt7svectorIlLm4ENSt3__19allocatorIlEELb1EE5beginEv, symObjAddr: 0x2298, symBinAddr: 0x100005120, symSize: 0x18 }
  - { offsetInCU: 0x25591, offset: 0x25591, size: 0x8, addend: 0x0, symName: __ZN2xt7svectorIlLm4ENSt3__19allocatorIlEELb1EE3endEv, symObjAddr: 0x22B0, symBinAddr: 0x100005138, symSize: 0x18 }
  - { offsetInCU: 0x255B9, offset: 0x255B9, size: 0x8, addend: 0x0, symName: __ZNK2xt7svectorIlLm4ENSt3__19allocatorIlEELb1EE4sizeEv, symObjAddr: 0x22C8, symBinAddr: 0x100005150, symSize: 0x28 }
  - { offsetInCU: 0x255E1, offset: 0x255E1, size: 0x8, addend: 0x0, symName: __ZNSt3__19allocatorIlE8allocateB8ue170006Em, symObjAddr: 0x22F0, symBinAddr: 0x100005178, symSize: 0x58 }
  - { offsetInCU: 0x25615, offset: 0x25615, size: 0x8, addend: 0x0, symName: __ZNSt3__19allocatorIlE10deallocateB8ue170006EPlm, symObjAddr: 0x2388, symBinAddr: 0x100005210, symSize: 0x40 }
  - { offsetInCU: 0x25661, offset: 0x25661, size: 0x8, addend: 0x0, symName: __ZNSt3__116allocator_traitsINS_9allocatorIlEEE8max_sizeB8ue170006IS2_vEEmRKS2_, symObjAddr: 0x23C8, symBinAddr: 0x100005250, symSize: 0x24 }
  - { offsetInCU: 0x2568F, offset: 0x2568F, size: 0x8, addend: 0x0, symName: __ZNKSt3__19allocatorIlE8max_sizeB8ue170006Ev, symObjAddr: 0x23EC, symBinAddr: 0x100005274, symSize: 0x14 }
  - { offsetInCU: 0x256D7, offset: 0x256D7, size: 0x8, addend: 0x0, symName: __ZNSt3__14pairIPlS1_EC1B8ue170006IS1_S1_LPv0EEEOT_OT0_, symObjAddr: 0x2540, symBinAddr: 0x1000053C8, symSize: 0x3C }
  - { offsetInCU: 0x25735, offset: 0x25735, size: 0x8, addend: 0x0, symName: __ZNSt3__14pairIPlS1_EC2B8ue170006IS1_S1_LPv0EEEOT_OT0_, symObjAddr: 0x258C, symBinAddr: 0x100005414, symSize: 0x34 }
  - { offsetInCU: 0x25793, offset: 0x25793, size: 0x8, addend: 0x0, symName: __ZN2xt7svectorIlLm4ENSt3__19allocatorIlEELb1EE6assignIPlEEvT_S7_, symObjAddr: 0x26AC, symBinAddr: 0x100005534, symSize: 0xB4 }
  - { offsetInCU: 0x257F1, offset: 0x257F1, size: 0x8, addend: 0x0, symName: __ZN2xt7svectorIlLm4ENSt3__19allocatorIlEELb1EED2Ev, symObjAddr: 0x2760, symBinAddr: 0x1000055E8, symSize: 0x74 }
  - { offsetInCU: 0x2581D, offset: 0x2581D, size: 0x8, addend: 0x0, symName: __ZN2xt7svectorIlLm4ENSt3__19allocatorIlEELb1EE8on_stackEv, symObjAddr: 0x27D4, symBinAddr: 0x10000565C, symSize: 0x28 }
  - { offsetInCU: 0x25844, offset: 0x25844, size: 0x8, addend: 0x0, symName: __ZNSt3__116allocator_traitsINS_9allocatorIlEEE10deallocateB8ue170006ERS2_Plm, symObjAddr: 0x2848, symBinAddr: 0x1000056D0, symSize: 0x34 }
  - { offsetInCU: 0x25886, offset: 0x25886, size: 0x8, addend: 0x0, symName: __ZN2xt14xsemantic_baseINS_16xarray_containerINS_7uvectorIdNSt3__19allocatorIdEEEELNS_11layout_typeE2ENS_7svectorImLm4ENS4_ImEELb1EEENS_22xtensor_expression_tagEEEEC2Ev, symObjAddr: 0x287C, symBinAddr: 0x100005704, symSize: 0x2C }
  - { offsetInCU: 0x258B0, offset: 0x258B0, size: 0x8, addend: 0x0, symName: __ZN2xt20xsharable_expressionINS_16xarray_containerINS_7uvectorIdNSt3__19allocatorIdEEEELNS_11layout_typeE2ENS_7svectorImLm4ENS4_ImEELb1EEENS_22xtensor_expression_tagEEEEC2Ev, symObjAddr: 0x28A8, symBinAddr: 0x100005730, symSize: 0x30 }
  - { offsetInCU: 0x258DB, offset: 0x258DB, size: 0x8, addend: 0x0, symName: __ZNSt3__110shared_ptrIN2xt16xarray_containerINS1_7uvectorIdNS_9allocatorIdEEEELNS1_11layout_typeE2ENS1_7svectorImLm4ENS4_ImEELb1EEENS1_22xtensor_expression_tagEEEEC1B8ue170006EDn, symObjAddr: 0x28D8, symBinAddr: 0x100005760, symSize: 0x34 }
  - { offsetInCU: 0x25910, offset: 0x25910, size: 0x8, addend: 0x0, symName: __ZNSt3__110shared_ptrIN2xt16xarray_containerINS1_7uvectorIdNS_9allocatorIdEEEELNS1_11layout_typeE2ENS1_7svectorImLm4ENS4_ImEELb1EEENS1_22xtensor_expression_tagEEEEC2B8ue170006EDn, symObjAddr: 0x290C, symBinAddr: 0x100005794, symSize: 0x20 }
  - { offsetInCU: 0x25945, offset: 0x25945, size: 0x8, addend: 0x0, symName: __ZNSt3__19allocatorIdEC1B8ue170006Ev, symObjAddr: 0x292C, symBinAddr: 0x1000057B4, symSize: 0x2C }
  - { offsetInCU: 0x2596F, offset: 0x2596F, size: 0x8, addend: 0x0, symName: __ZN2xt7uvectorIdNSt3__19allocatorIdEEEC1ERKS3_, symObjAddr: 0x2958, symBinAddr: 0x1000057E0, symSize: 0x34 }
  - { offsetInCU: 0x259A8, offset: 0x259A8, size: 0x8, addend: 0x0, symName: __ZNSt3__19allocatorIdEC2B8ue170006Ev, symObjAddr: 0x298C, symBinAddr: 0x100005814, symSize: 0x2C }
  - { offsetInCU: 0x259D2, offset: 0x259D2, size: 0x8, addend: 0x0, symName: __ZNSt3__116__non_trivial_ifILb1ENS_9allocatorIdEEEC2B8ue170006Ev, symObjAddr: 0x29B8, symBinAddr: 0x100005840, symSize: 0x14 }
  - { offsetInCU: 0x259FC, offset: 0x259FC, size: 0x8, addend: 0x0, symName: __ZN2xt7uvectorIdNSt3__19allocatorIdEEEC2ERKS3_, symObjAddr: 0x29CC, symBinAddr: 0x100005854, symSize: 0x20 }
  - { offsetInCU: 0x25A35, offset: 0x25A35, size: 0x8, addend: 0x0, symName: __ZN2xt7uvectorIdNSt3__19allocatorIdEEE6resizeEm, symObjAddr: 0x2A20, symBinAddr: 0x1000058A8, symSize: 0x2C }
  - { offsetInCU: 0x25A6B, offset: 0x25A6B, size: 0x8, addend: 0x0, symName: __ZN2xt7uvectorIdNSt3__19allocatorIdEEE11resize_implEm, symObjAddr: 0x2A4C, symBinAddr: 0x1000058D4, symSize: 0x8C }
  - { offsetInCU: 0x25ABC, offset: 0x25ABC, size: 0x8, addend: 0x0, symName: __ZNK2xt7uvectorIdNSt3__19allocatorIdEEE4sizeEv, symObjAddr: 0x2AD8, symBinAddr: 0x100005960, symSize: 0x28 }
  - { offsetInCU: 0x25AE4, offset: 0x25AE4, size: 0x8, addend: 0x0, symName: __ZNSt3__19allocatorIdE8allocateB8ue170006Em, symObjAddr: 0x2B80, symBinAddr: 0x100005A08, symSize: 0x58 }
  - { offsetInCU: 0x25B22, offset: 0x25B22, size: 0x8, addend: 0x0, symName: __ZNSt3__116allocator_traitsINS_9allocatorIdEEE8max_sizeB8ue170006IS2_vEEmRKS2_, symObjAddr: 0x2BD8, symBinAddr: 0x100005A60, symSize: 0x24 }
  - { offsetInCU: 0x25B50, offset: 0x25B50, size: 0x8, addend: 0x0, symName: __ZNKSt3__19allocatorIdE8max_sizeB8ue170006Ev, symObjAddr: 0x2BFC, symBinAddr: 0x100005A84, symSize: 0x14 }
  - { offsetInCU: 0x25B75, offset: 0x25B75, size: 0x8, addend: 0x0, symName: __ZNSt3__116allocator_traitsINS_9allocatorIdEEE10deallocateB8ue170006ERS2_Pdm, symObjAddr: 0x2C10, symBinAddr: 0x100005A98, symSize: 0x34 }
  - { offsetInCU: 0x25BB7, offset: 0x25BB7, size: 0x8, addend: 0x0, symName: __ZNSt3__19allocatorIdE10deallocateB8ue170006EPdm, symObjAddr: 0x2C44, symBinAddr: 0x100005ACC, symSize: 0x40 }
  - { offsetInCU: 0x25BF9, offset: 0x25BF9, size: 0x8, addend: 0x0, symName: __ZNR2xt11xexpressionINS_16xarray_containerINS_7uvectorIdNSt3__19allocatorIdEEEELNS_11layout_typeE2ENS_7svectorImLm4ENS4_ImEELb1EEENS_22xtensor_expression_tagEEEE12derived_castEv, symObjAddr: 0x2C84, symBinAddr: 0x100005B0C, symSize: 0x18 }
  - { offsetInCU: 0x25C20, offset: 0x25C20, size: 0x8, addend: 0x0, symName: __ZN2xt19xcontainer_semanticINS_16xarray_containerINS_7uvectorIdNSt3__19allocatorIdEEEELNS_11layout_typeE2ENS_7svectorImLm4ENS4_ImEELb1EEENS_22xtensor_expression_tagEEEE18assign_xexpressionINS1_IS6_LS7_1ESA_SB_EEEERSC_RKNS_11xexpressionIT_EE, symObjAddr: 0x2C9C, symBinAddr: 0x100005B24, symSize: 0x38 }
  - { offsetInCU: 0x25C69, offset: 0x25C69, size: 0x8, addend: 0x0, symName: __ZZN2xt18assign_xexpressionINS_16xarray_containerINS_7uvectorIdNSt3__19allocatorIdEEEELNS_11layout_typeE2ENS_7svectorImLm4ENS4_ImEELb1EEENS_22xtensor_expression_tagEEENS1_IS6_LS7_1ESA_SB_EEEEvRNS_11xexpressionIT_EERKNSE_IT0_EEENKUlSF_E0_clIN3xtl8identityEEEDaSF_, symObjAddr: 0x2D74, symBinAddr: 0x100005BFC, symSize: 0x2C }
  - { offsetInCU: 0x25CA6, offset: 0x25CA6, size: 0x8, addend: 0x0, symName: __ZN2xt20xexpression_assignerINS_22xtensor_expression_tagEE18assign_xexpressionINS_11xexpressionINS_16xarray_containerINS_7uvectorIdNSt3__19allocatorIdEEEELNS_11layout_typeE2ENS_7svectorImLm4ENS8_ImEELb1EEES1_EEEENS4_INS5_ISA_LSB_1ESE_S1_EEEEEEvRT_RKT0_, symObjAddr: 0x2DA0, symBinAddr: 0x100005C28, symSize: 0x60 }
  - { offsetInCU: 0x25CFA, offset: 0x25CFA, size: 0x8, addend: 0x0, symName: __ZN2xt20xexpression_assignerINS_22xtensor_expression_tagEE6resizeINS_16xarray_containerINS_7uvectorIdNSt3__19allocatorIdEEEELNS_11layout_typeE2ENS_7svectorImLm4ENS7_ImEELb1EEES1_EENS4_IS9_LSA_1ESD_S1_EEEEbRT_RKT0_, symObjAddr: 0x2E00, symBinAddr: 0x100005C88, symSize: 0x54 }
  - { offsetInCU: 0x25D3E, offset: 0x25D3E, size: 0x8, addend: 0x0, symName: __ZN2xt25xexpression_assigner_baseINS_22xtensor_expression_tagEE11assign_dataINS_16xarray_containerINS_7uvectorIdNSt3__19allocatorIdEEEELNS_11layout_typeE2ENS_7svectorImLm4ENS7_ImEELb1EEES1_EENS4_IS9_LSA_1ESD_S1_EEEEvRNS_11xexpressionIT_EERKNSG_IT0_EEb, symObjAddr: 0x2E54, symBinAddr: 0x100005CDC, symSize: 0x124 }
  - { offsetInCU: 0x25DEC, offset: 0x25DEC, size: 0x8, addend: 0x0, symName: __ZN2xt18xstrided_containerINS_16xarray_containerINS_7uvectorIdNSt3__19allocatorIdEEEELNS_11layout_typeE2ENS_7svectorImLm4ENS4_ImEELb1EEENS_22xtensor_expression_tagEEEE6resizeIRKSA_EEvOT_b, symObjAddr: 0x2F78, symBinAddr: 0x100005E00, symSize: 0x10C }
  - { offsetInCU: 0x25E67, offset: 0x25E67, size: 0x8, addend: 0x0, symName: __ZN2xt7svectorImLm4ENSt3__19allocatorImEELb1EEaSERKS4_, symObjAddr: 0x314C, symBinAddr: 0x100005FD4, symSize: 0x50 }
  - { offsetInCU: 0x25E9E, offset: 0x25E9E, size: 0x8, addend: 0x0, symName: __ZN2xt10xcontainerINS_16xarray_containerINS_7uvectorIdNSt3__19allocatorIdEEEELNS_11layout_typeE2ENS_7svectorImLm4ENS4_ImEELb1EEENS_22xtensor_expression_tagEEEE7storageEv, symObjAddr: 0x320C, symBinAddr: 0x100006094, symSize: 0x28 }
  - { offsetInCU: 0x25EC5, offset: 0x25EC5, size: 0x8, addend: 0x0, symName: __ZNSt3__118__unwrap_iter_implIPKmLb1EE8__unwrapB8ue170006ES2_, symObjAddr: 0x3370, symBinAddr: 0x1000061F8, symSize: 0x24 }
  - { offsetInCU: 0x25EE7, offset: 0x25EE7, size: 0x8, addend: 0x0, symName: __ZNSt3__118__unwrap_iter_implIPmLb1EE8__unwrapB8ue170006ES1_, symObjAddr: 0x33A8, symBinAddr: 0x100006230, symSize: 0x24 }
  - { offsetInCU: 0x25F0A, offset: 0x25F0A, size: 0x8, addend: 0x0, symName: __ZNK2xt7svectorImLm4ENSt3__19allocatorImEELb1EE5beginEv, symObjAddr: 0x33E0, symBinAddr: 0x100006268, symSize: 0x18 }
  - { offsetInCU: 0x25F32, offset: 0x25F32, size: 0x8, addend: 0x0, symName: __ZNK2xt7svectorImLm4ENSt3__19allocatorImEELb1EE3endEv, symObjAddr: 0x33F8, symBinAddr: 0x100006280, symSize: 0x18 }
  - { offsetInCU: 0x25F5A, offset: 0x25F5A, size: 0x8, addend: 0x0, symName: __ZN3xtl6detail18sequence_forwarderIN2xt7svectorImLm4ENSt3__19allocatorImEELb1EEES7_E7forwardIRKS7_EEOT_SD_, symObjAddr: 0x3410, symBinAddr: 0x100006298, symSize: 0x14 }
  - { offsetInCU: 0x25F86, offset: 0x25F86, size: 0x8, addend: 0x0, symName: __ZN2xt7svectorImLm4ENSt3__19allocatorImEELb1EE6assignIPKmEEvT_S8_, symObjAddr: 0x3424, symBinAddr: 0x1000062AC, symSize: 0xB4 }
  - { offsetInCU: 0x26006, offset: 0x26006, size: 0x8, addend: 0x0, symName: __ZNSt3__14pairIPKmPmEC1B8ue170006IS2_S3_LPv0EEEOT_OT0_, symObjAddr: 0x35D4, symBinAddr: 0x10000645C, symSize: 0x3C }
  - { offsetInCU: 0x26064, offset: 0x26064, size: 0x8, addend: 0x0, symName: __ZNSt3__14pairIPKmPmEC2B8ue170006IS2_S3_LPv0EEEOT_OT0_, symObjAddr: 0x3610, symBinAddr: 0x100006498, symSize: 0x34 }
  - { offsetInCU: 0x260C2, offset: 0x260C2, size: 0x8, addend: 0x0, symName: __ZN2xt7svectorIlLm4ENSt3__19allocatorIlEELb1EE6resizeEm, symObjAddr: 0x3644, symBinAddr: 0x1000064CC, symSize: 0xEC }
  - { offsetInCU: 0x26108, offset: 0x26108, size: 0x8, addend: 0x0, symName: __ZN2xt7svectorIlLm4ENSt3__19allocatorIlEELb1EEixEm, symObjAddr: 0x38C8, symBinAddr: 0x100006750, symSize: 0x24 }
  - { offsetInCU: 0x2613F, offset: 0x2613F, size: 0x8, addend: 0x0, symName: __ZNR2xt10xcontainerINS_16xarray_containerINS_7uvectorIdNSt3__19allocatorIdEEEELNS_11layout_typeE2ENS_7svectorImLm4ENS4_ImEELb1EEENS_22xtensor_expression_tagEEEE12derived_castEv, symObjAddr: 0x3990, symBinAddr: 0x100006818, symSize: 0x14 }
  - { offsetInCU: 0x26167, offset: 0x26167, size: 0x8, addend: 0x0, symName: __ZN2xt16xarray_containerINS_7uvectorIdNSt3__19allocatorIdEEEELNS_11layout_typeE2ENS_7svectorImLm4ENS3_ImEELb1EEENS_22xtensor_expression_tagEE12storage_implEv, symObjAddr: 0x39A4, symBinAddr: 0x10000682C, symSize: 0x18 }
  - { offsetInCU: 0x2618E, offset: 0x2618E, size: 0x8, addend: 0x0, symName: __ZN2xt14xassign_traitsINS_16xarray_containerINS_7uvectorIdNSt3__19allocatorIdEEEELNS_11layout_typeE2ENS_7svectorImLm4ENS4_ImEELb1EEENS_22xtensor_expression_tagEEENS1_IS6_LS7_1ESA_SB_EEE13linear_assignERKSC_RKSD_b, symObjAddr: 0x39BC, symBinAddr: 0x100006844, symSize: 0x5C }
  - { offsetInCU: 0x261D0, offset: 0x261D0, size: 0x8, addend: 0x0, symName: __ZN2xt14xassign_traitsINS_16xarray_containerINS_7uvectorIdNSt3__19allocatorIdEEEELNS_11layout_typeE2ENS_7svectorImLm4ENS4_ImEELb1EEENS_22xtensor_expression_tagEEENS1_IS6_LS7_1ESA_SB_EEE18simd_linear_assignERKSC_RKSD_, symObjAddr: 0x3A18, symBinAddr: 0x1000068A0, symSize: 0x1C }
  - { offsetInCU: 0x26202, offset: 0x26202, size: 0x8, addend: 0x0, symName: __ZN2xt15linear_assignerILb0EE3runINS_16xarray_containerINS_7uvectorIdNSt3__19allocatorIdEEEELNS_11layout_typeE2ENS_7svectorImLm4ENS6_ImEELb1EEENS_22xtensor_expression_tagEEENS3_IS8_LS9_1ESC_SD_EEEEvRT_RKT0_, symObjAddr: 0x3A34, symBinAddr: 0x1000068BC, symSize: 0x2C }
  - { offsetInCU: 0x26247, offset: 0x26247, size: 0x8, addend: 0x0, symName: __ZN2xt16stepper_assignerINS_16xarray_containerINS_7uvectorIdNSt3__19allocatorIdEEEELNS_11layout_typeE2ENS_7svectorImLm4ENS4_ImEELb1EEENS_22xtensor_expression_tagEEENS1_IS6_LS7_1ESA_SB_EELS7_2EEC1ERSC_RKSD_, symObjAddr: 0x3A60, symBinAddr: 0x1000068E8, symSize: 0x3C }
  - { offsetInCU: 0x2628F, offset: 0x2628F, size: 0x8, addend: 0x0, symName: __ZN2xt16stepper_assignerINS_16xarray_containerINS_7uvectorIdNSt3__19allocatorIdEEEELNS_11layout_typeE2ENS_7svectorImLm4ENS4_ImEELb1EEENS_22xtensor_expression_tagEEENS1_IS6_LS7_1ESA_SB_EELS7_2EE3runEv, symObjAddr: 0x3A9C, symBinAddr: 0x100006924, symSize: 0xB4 }
  - { offsetInCU: 0x262FE, offset: 0x262FE, size: 0x8, addend: 0x0, symName: __ZN2xt16stepper_assignerINS_16xarray_containerINS_7uvectorIdNSt3__19allocatorIdEEEELNS_11layout_typeE2ENS_7svectorImLm4ENS4_ImEELb1EEENS_22xtensor_expression_tagEEENS1_IS6_LS7_1ESA_SB_EELS7_2EED1Ev, symObjAddr: 0x3B50, symBinAddr: 0x1000069D8, symSize: 0x2C }
  - { offsetInCU: 0x2632A, offset: 0x2632A, size: 0x8, addend: 0x0, symName: __ZNK2xt10xcontainerINS_16xarray_containerINS_7uvectorIdNSt3__19allocatorIdEEEELNS_11layout_typeE1ENS_7svectorImLm4ENS4_ImEELb1EEENS_22xtensor_expression_tagEEEE17has_linear_assignINS8_IlLm4ENS4_IlEELb1EEEEEbRKT_, symObjAddr: 0x3E24, symBinAddr: 0x100006CAC, symSize: 0xC0 }
  - { offsetInCU: 0x26369, offset: 0x26369, size: 0x8, addend: 0x0, symName: __ZNK2xt10xcontainerINS_16xarray_containerINS_7uvectorIdNSt3__19allocatorIdEEEELNS_11layout_typeE2ENS_7svectorImLm4ENS4_ImEELb1EEENS_22xtensor_expression_tagEEEE7stridesEv, symObjAddr: 0x3EE4, symBinAddr: 0x100006D6C, symSize: 0x28 }
  - { offsetInCU: 0x26391, offset: 0x26391, size: 0x8, addend: 0x0, symName: __ZNK2xt7svectorIlLm4ENSt3__19allocatorIlEELb1EE6rbeginEv, symObjAddr: 0x3F8C, symBinAddr: 0x100006E14, symSize: 0x34 }
  - { offsetInCU: 0x263B9, offset: 0x263B9, size: 0x8, addend: 0x0, symName: __ZNK2xt7svectorIlLm4ENSt3__19allocatorIlEELb1EE4rendEv, symObjAddr: 0x3FC0, symBinAddr: 0x100006E48, symSize: 0x34 }
  - { offsetInCU: 0x263E1, offset: 0x263E1, size: 0x8, addend: 0x0, symName: __ZNKSt3__116reverse_iteratorIPKlEdeB8ue170006Ev, symObjAddr: 0x403C, symBinAddr: 0x100006EC4, symSize: 0x28 }
  - { offsetInCU: 0x26415, offset: 0x26415, size: 0x8, addend: 0x0, symName: __ZNK2xt7svectorIlLm4ENSt3__19allocatorIlEELb1EE5beginEv, symObjAddr: 0x40D4, symBinAddr: 0x100006F5C, symSize: 0x18 }
  - { offsetInCU: 0x2643D, offset: 0x2643D, size: 0x8, addend: 0x0, symName: __ZNK2xt7svectorIlLm4ENSt3__19allocatorIlEELb1EE3endEv, symObjAddr: 0x40EC, symBinAddr: 0x100006F74, symSize: 0x18 }
  - { offsetInCU: 0x26465, offset: 0x26465, size: 0x8, addend: 0x0, symName: __ZNK2xt7svectorIlLm4ENSt3__19allocatorIlEELb1EE5emptyEv, symObjAddr: 0x4104, symBinAddr: 0x100006F8C, symSize: 0x28 }
  - { offsetInCU: 0x26497, offset: 0x26497, size: 0x8, addend: 0x0, symName: __ZZNK2xt18xstrided_containerINS_16xarray_containerINS_7uvectorIdNSt3__19allocatorIdEEEELNS_11layout_typeE2ENS_7svectorImLm4ENS4_ImEELb1EEENS_22xtensor_expression_tagEEEE13is_contiguousEvENKUlT_E_clIlEEDaSE_, symObjAddr: 0x4174, symBinAddr: 0x100006FFC, symSize: 0x24 }
  - { offsetInCU: 0x264D9, offset: 0x264D9, size: 0x8, addend: 0x0, symName: __ZNSt3__116reverse_iteratorIPKlEppB8ue170006Ev, symObjAddr: 0x4198, symBinAddr: 0x100007020, symSize: 0x20 }
  - { offsetInCU: 0x264FF, offset: 0x264FF, size: 0x8, addend: 0x0, symName: __ZNKSt3__116reverse_iteratorIPKlE4baseB8ue170006Ev, symObjAddr: 0x41B8, symBinAddr: 0x100007040, symSize: 0x18 }
  - { offsetInCU: 0x26525, offset: 0x26525, size: 0x8, addend: 0x0, symName: __ZNSt3__116reverse_iteratorIPKlEC1B8ue170006ES2_, symObjAddr: 0x41D0, symBinAddr: 0x100007058, symSize: 0x34 }
  - { offsetInCU: 0x2655D, offset: 0x2655D, size: 0x8, addend: 0x0, symName: __ZNSt3__116reverse_iteratorIPKlEC2B8ue170006ES2_, symObjAddr: 0x4204, symBinAddr: 0x10000708C, symSize: 0x28 }
  - { offsetInCU: 0x26595, offset: 0x26595, size: 0x8, addend: 0x0, symName: __ZNK2xt10xcontainerINS_16xarray_containerINS_7uvectorIdNSt3__19allocatorIdEEEELNS_11layout_typeE1ENS_7svectorImLm4ENS4_ImEELb1EEENS_22xtensor_expression_tagEEEE7stridesEv, symObjAddr: 0x422C, symBinAddr: 0x1000070B4, symSize: 0x28 }
  - { offsetInCU: 0x265BD, offset: 0x265BD, size: 0x8, addend: 0x0, symName: __ZNK2xt7svectorIlLm4ENSt3__19allocatorIlEELb1EE6cbeginEv, symObjAddr: 0x428C, symBinAddr: 0x100007114, symSize: 0x18 }
  - { offsetInCU: 0x265E5, offset: 0x265E5, size: 0x8, addend: 0x0, symName: __ZNK2xt7svectorIlLm4ENSt3__19allocatorIlEELb1EE4cendEv, symObjAddr: 0x42A4, symBinAddr: 0x10000712C, symSize: 0x18 }
  - { offsetInCU: 0x2660D, offset: 0x2660D, size: 0x8, addend: 0x0, symName: __ZNK2xt18xstrided_containerINS_16xarray_containerINS_7uvectorIdNSt3__19allocatorIdEEEELNS_11layout_typeE1ENS_7svectorImLm4ENS4_ImEELb1EEENS_22xtensor_expression_tagEEEE12strides_implEv, symObjAddr: 0x42BC, symBinAddr: 0x100007144, symSize: 0x18 }
  - { offsetInCU: 0x26634, offset: 0x26634, size: 0x8, addend: 0x0, symName: __ZNSt3__118__unwrap_iter_implIPKlLb1EE8__unwrapB8ue170006ES2_, symObjAddr: 0x43EC, symBinAddr: 0x100007274, symSize: 0x24 }
  - { offsetInCU: 0x26657, offset: 0x26657, size: 0x8, addend: 0x0, symName: __ZNK2xt18xstrided_containerINS_16xarray_containerINS_7uvectorIdNSt3__19allocatorIdEEEELNS_11layout_typeE2ENS_7svectorImLm4ENS4_ImEELb1EEENS_22xtensor_expression_tagEEEE12strides_implEv, symObjAddr: 0x4424, symBinAddr: 0x1000072AC, symSize: 0x18 }
  - { offsetInCU: 0x2667F, offset: 0x2667F, size: 0x8, addend: 0x0, symName: __ZNK2xt10xcontainerINS_16xarray_containerINS_7uvectorIdNSt3__19allocatorIdEEEELNS_11layout_typeE2ENS_7svectorImLm4ENS4_ImEELb1EEENS_22xtensor_expression_tagEEEE4sizeEv, symObjAddr: 0x4564, symBinAddr: 0x1000073EC, symSize: 0x28 }
  - { offsetInCU: 0x266B1, offset: 0x266B1, size: 0x8, addend: 0x0, symName: __ZZN2xt12linear_beginINS_16xarray_containerINS_7uvectorIdNSt3__19allocatorIdEEEELNS_11layout_typeE1ENS_7svectorImLm4ENS4_ImEELb1EEENS_22xtensor_expression_tagEEEEEDaRKT_ENKUlSE_E_clIN3xtl8identityEEESD_SE_, symObjAddr: 0x45E0, symBinAddr: 0x100007468, symSize: 0x30 }
  - { offsetInCU: 0x266FD, offset: 0x266FD, size: 0x8, addend: 0x0, symName: __ZNK3xtl8identityclIRKN2xt16xarray_containerINS2_7uvectorIdNSt3__19allocatorIdEEEELNS2_11layout_typeE1ENS2_7svectorImLm4ENS6_ImEELb1EEENS2_22xtensor_expression_tagEEEEEOT_SI_, symObjAddr: 0x4610, symBinAddr: 0x100007498, symSize: 0x18 }
  - { offsetInCU: 0x2673A, offset: 0x2673A, size: 0x8, addend: 0x0, symName: __ZNK2xt10xcontainerINS_16xarray_containerINS_7uvectorIdNSt3__19allocatorIdEEEELNS_11layout_typeE1ENS_7svectorImLm4ENS4_ImEELb1EEENS_22xtensor_expression_tagEEEE13linear_cbeginEv, symObjAddr: 0x4628, symBinAddr: 0x1000074B0, symSize: 0x28 }
  - { offsetInCU: 0x26762, offset: 0x26762, size: 0x8, addend: 0x0, symName: __ZNK2xt10xcontainerINS_16xarray_containerINS_7uvectorIdNSt3__19allocatorIdEEEELNS_11layout_typeE1ENS_7svectorImLm4ENS4_ImEELb1EEENS_22xtensor_expression_tagEEEE7storageEv, symObjAddr: 0x4650, symBinAddr: 0x1000074D8, symSize: 0x28 }
  - { offsetInCU: 0x2678A, offset: 0x2678A, size: 0x8, addend: 0x0, symName: __ZNK2xt7uvectorIdNSt3__19allocatorIdEEE6cbeginEv, symObjAddr: 0x4678, symBinAddr: 0x100007500, symSize: 0x24 }
  - { offsetInCU: 0x267B2, offset: 0x267B2, size: 0x8, addend: 0x0, symName: __ZNK2xt16xarray_containerINS_7uvectorIdNSt3__19allocatorIdEEEELNS_11layout_typeE1ENS_7svectorImLm4ENS3_ImEELb1EEENS_22xtensor_expression_tagEE12storage_implEv, symObjAddr: 0x469C, symBinAddr: 0x100007524, symSize: 0x18 }
  - { offsetInCU: 0x267DA, offset: 0x267DA, size: 0x8, addend: 0x0, symName: __ZNK2xt7uvectorIdNSt3__19allocatorIdEEE5beginEv, symObjAddr: 0x46B4, symBinAddr: 0x10000753C, symSize: 0x18 }
  - { offsetInCU: 0x2680C, offset: 0x2680C, size: 0x8, addend: 0x0, symName: __ZZN2xt12linear_beginINS_16xarray_containerINS_7uvectorIdNSt3__19allocatorIdEEEELNS_11layout_typeE2ENS_7svectorImLm4ENS4_ImEELb1EEENS_22xtensor_expression_tagEEEEEDaRT_ENKUlSE_E_clIN3xtl8identityEEESD_SE_, symObjAddr: 0x4720, symBinAddr: 0x1000075A8, symSize: 0x30 }
  - { offsetInCU: 0x2684E, offset: 0x2684E, size: 0x8, addend: 0x0, symName: __ZNK3xtl8identityclIRN2xt16xarray_containerINS2_7uvectorIdNSt3__19allocatorIdEEEELNS2_11layout_typeE2ENS2_7svectorImLm4ENS6_ImEELb1EEENS2_22xtensor_expression_tagEEEEEOT_SH_, symObjAddr: 0x4750, symBinAddr: 0x1000075D8, symSize: 0x18 }
  - { offsetInCU: 0x2688B, offset: 0x2688B, size: 0x8, addend: 0x0, symName: __ZN2xt10xcontainerINS_16xarray_containerINS_7uvectorIdNSt3__19allocatorIdEEEELNS_11layout_typeE2ENS_7svectorImLm4ENS4_ImEELb1EEENS_22xtensor_expression_tagEEEE12linear_beginEv, symObjAddr: 0x4768, symBinAddr: 0x1000075F0, symSize: 0x28 }
  - { offsetInCU: 0x268B3, offset: 0x268B3, size: 0x8, addend: 0x0, symName: __ZN2xt7uvectorIdNSt3__19allocatorIdEEE5beginEv, symObjAddr: 0x4790, symBinAddr: 0x100007618, symSize: 0x18 }
  - { offsetInCU: 0x268DB, offset: 0x268DB, size: 0x8, addend: 0x0, symName: __ZNK2xt10xcontainerINS_16xarray_containerINS_7uvectorIdNSt3__19allocatorIdEEEELNS_11layout_typeE2ENS_7svectorImLm4ENS4_ImEELb1EEENS_22xtensor_expression_tagEEEE7storageEv, symObjAddr: 0x47A8, symBinAddr: 0x100007630, symSize: 0x28 }
  - { offsetInCU: 0x26903, offset: 0x26903, size: 0x8, addend: 0x0, symName: __ZNK2xt16xarray_containerINS_7uvectorIdNSt3__19allocatorIdEEEELNS_11layout_typeE2ENS_7svectorImLm4ENS3_ImEELb1EEENS_22xtensor_expression_tagEE12storage_implEv, symObjAddr: 0x47D0, symBinAddr: 0x100007658, symSize: 0x18 }
  - { offsetInCU: 0x2692B, offset: 0x2692B, size: 0x8, addend: 0x0, symName: __ZN2xt16stepper_assignerINS_16xarray_containerINS_7uvectorIdNSt3__19allocatorIdEEEELNS_11layout_typeE2ENS_7svectorImLm4ENS4_ImEELb1EEENS_22xtensor_expression_tagEEENS1_IS6_LS7_1ESA_SB_EELS7_2EEC2ERSC_RKSD_, symObjAddr: 0x47E8, symBinAddr: 0x100007670, symSize: 0x9C }
  - { offsetInCU: 0x26973, offset: 0x26973, size: 0x8, addend: 0x0, symName: __ZN2xt10xcontainerINS_16xarray_containerINS_7uvectorIdNSt3__19allocatorIdEEEELNS_11layout_typeE2ENS_7svectorImLm4ENS4_ImEELb1EEENS_22xtensor_expression_tagEEEE13stepper_beginISA_EENS_8xstepperISC_EERKT_, symObjAddr: 0x4884, symBinAddr: 0x10000770C, symSize: 0x70 }
  - { offsetInCU: 0x269C1, offset: 0x269C1, size: 0x8, addend: 0x0, symName: __ZNK2xt10xcontainerINS_16xarray_containerINS_7uvectorIdNSt3__19allocatorIdEEEELNS_11layout_typeE1ENS_7svectorImLm4ENS4_ImEELb1EEENS_22xtensor_expression_tagEEEE13stepper_beginISA_EENS_8xstepperIKSC_EERKT_, symObjAddr: 0x48F4, symBinAddr: 0x10000777C, symSize: 0x70 }
  - { offsetInCU: 0x26A0F, offset: 0x26A0F, size: 0x8, addend: 0x0, symName: __ZN2xt10xcontainerINS_16xarray_containerINS_7uvectorIdNSt3__19allocatorIdEEEELNS_11layout_typeE2ENS_7svectorImLm4ENS4_ImEELb1EEENS_22xtensor_expression_tagEEEE11data_xbeginEv, symObjAddr: 0x4964, symBinAddr: 0x1000077EC, symSize: 0x28 }
  - { offsetInCU: 0x26A37, offset: 0x26A37, size: 0x8, addend: 0x0, symName: __ZN2xt8xstepperINS_16xarray_containerINS_7uvectorIdNSt3__19allocatorIdEEEELNS_11layout_typeE2ENS_7svectorImLm4ENS4_ImEELb1EEENS_22xtensor_expression_tagEEEEC1EPSC_Pdm, symObjAddr: 0x498C, symBinAddr: 0x100007814, symSize: 0x44 }
  - { offsetInCU: 0x26A8D, offset: 0x26A8D, size: 0x8, addend: 0x0, symName: __ZN2xt8xstepperINS_16xarray_containerINS_7uvectorIdNSt3__19allocatorIdEEEELNS_11layout_typeE2ENS_7svectorImLm4ENS4_ImEELb1EEENS_22xtensor_expression_tagEEEEC2EPSC_Pdm, symObjAddr: 0x49D0, symBinAddr: 0x100007858, symSize: 0x38 }
  - { offsetInCU: 0x26AE3, offset: 0x26AE3, size: 0x8, addend: 0x0, symName: __ZNK2xt10xcontainerINS_16xarray_containerINS_7uvectorIdNSt3__19allocatorIdEEEELNS_11layout_typeE1ENS_7svectorImLm4ENS4_ImEELb1EEENS_22xtensor_expression_tagEEEE11data_xbeginEv, symObjAddr: 0x4A08, symBinAddr: 0x100007890, symSize: 0x28 }
  - { offsetInCU: 0x26B0B, offset: 0x26B0B, size: 0x8, addend: 0x0, symName: __ZN2xt8xstepperIKNS_16xarray_containerINS_7uvectorIdNSt3__19allocatorIdEEEELNS_11layout_typeE1ENS_7svectorImLm4ENS4_ImEELb1EEENS_22xtensor_expression_tagEEEEC1EPSD_PKdm, symObjAddr: 0x4A30, symBinAddr: 0x1000078B8, symSize: 0x44 }
  - { offsetInCU: 0x26B61, offset: 0x26B61, size: 0x8, addend: 0x0, symName: __ZN2xt8xstepperIKNS_16xarray_containerINS_7uvectorIdNSt3__19allocatorIdEEEELNS_11layout_typeE1ENS_7svectorImLm4ENS4_ImEELb1EEENS_22xtensor_expression_tagEEEEC2EPSD_PKdm, symObjAddr: 0x4A74, symBinAddr: 0x1000078FC, symSize: 0x38 }
  - { offsetInCU: 0x26BB7, offset: 0x26BB7, size: 0x8, addend: 0x0, symName: __ZNK2xt8xstepperIKNS_16xarray_containerINS_7uvectorIdNSt3__19allocatorIdEEEELNS_11layout_typeE1ENS_7svectorImLm4ENS4_ImEELb1EEENS_22xtensor_expression_tagEEEEdeEv, symObjAddr: 0x4AD8, symBinAddr: 0x100007960, symSize: 0x18 }
  - { offsetInCU: 0x26BDF, offset: 0x26BDF, size: 0x8, addend: 0x0, symName: __ZNK2xt8xstepperINS_16xarray_containerINS_7uvectorIdNSt3__19allocatorIdEEEELNS_11layout_typeE2ENS_7svectorImLm4ENS4_ImEELb1EEENS_22xtensor_expression_tagEEEEdeEv, symObjAddr: 0x4AF0, symBinAddr: 0x100007978, symSize: 0x18 }
  - { offsetInCU: 0x26C07, offset: 0x26C07, size: 0x8, addend: 0x0, symName: __ZNK3xtl8identityclIRKdEEOT_S5_, symObjAddr: 0x4CB0, symBinAddr: 0x100007B38, symSize: 0x18 }
  - { offsetInCU: 0x26C44, offset: 0x26C44, size: 0x8, addend: 0x0, symName: __ZN2xt7svectorImLm4ENSt3__19allocatorImEELb1EEixEm, symObjAddr: 0x4CC8, symBinAddr: 0x100007B50, symSize: 0x24 }
  - { offsetInCU: 0x26C7B, offset: 0x26C7B, size: 0x8, addend: 0x0, symName: __ZN2xt16stepper_assignerINS_16xarray_containerINS_7uvectorIdNSt3__19allocatorIdEEEELNS_11layout_typeE2ENS_7svectorImLm4ENS4_ImEELb1EEENS_22xtensor_expression_tagEEENS1_IS6_LS7_1ESA_SB_EELS7_2EE4stepEm, symObjAddr: 0x4CEC, symBinAddr: 0x100007B74, symSize: 0x50 }
  - { offsetInCU: 0x26CB1, offset: 0x26CB1, size: 0x8, addend: 0x0, symName: __ZN2xt16stepper_assignerINS_16xarray_containerINS_7uvectorIdNSt3__19allocatorIdEEEELNS_11layout_typeE2ENS_7svectorImLm4ENS4_ImEELb1EEENS_22xtensor_expression_tagEEENS1_IS6_LS7_1ESA_SB_EELS7_2EE5resetEm, symObjAddr: 0x4D3C, symBinAddr: 0x100007BC4, symSize: 0x44 }
  - { offsetInCU: 0x26CE7, offset: 0x26CE7, size: 0x8, addend: 0x0, symName: __ZNK2xt7svectorImLm4ENSt3__19allocatorImEELb1EE6cbeginEv, symObjAddr: 0x4DF8, symBinAddr: 0x100007C80, symSize: 0x18 }
  - { offsetInCU: 0x26D0F, offset: 0x26D0F, size: 0x8, addend: 0x0, symName: __ZNK2xt7svectorImLm4ENSt3__19allocatorImEELb1EE4cendEv, symObjAddr: 0x4E10, symBinAddr: 0x100007C98, symSize: 0x18 }
  - { offsetInCU: 0x26D37, offset: 0x26D37, size: 0x8, addend: 0x0, symName: __ZN2xt16stepper_assignerINS_16xarray_containerINS_7uvectorIdNSt3__19allocatorIdEEEELNS_11layout_typeE2ENS_7svectorImLm4ENS4_ImEELb1EEENS_22xtensor_expression_tagEEENS1_IS6_LS7_1ESA_SB_EELS7_2EE6to_endES7_, symObjAddr: 0x4E28, symBinAddr: 0x100007CB0, symSize: 0x44 }
  - { offsetInCU: 0x26D6D, offset: 0x26D6D, size: 0x8, addend: 0x0, symName: __ZNK2xt7svectorIlLm4ENSt3__19allocatorIlEELb1EEixEm, symObjAddr: 0x4F84, symBinAddr: 0x100007E0C, symSize: 0x24 }
  - { offsetInCU: 0x26DA4, offset: 0x26DA4, size: 0x8, addend: 0x0, symName: __ZN2xt8xstepperINS_16xarray_containerINS_7uvectorIdNSt3__19allocatorIdEEEELNS_11layout_typeE2ENS_7svectorImLm4ENS4_ImEELb1EEENS_22xtensor_expression_tagEEEE5resetEm, symObjAddr: 0x4FA8, symBinAddr: 0x100007E30, symSize: 0x80 }
  - { offsetInCU: 0x26DDA, offset: 0x26DDA, size: 0x8, addend: 0x0, symName: __ZN2xt8xstepperIKNS_16xarray_containerINS_7uvectorIdNSt3__19allocatorIdEEEELNS_11layout_typeE1ENS_7svectorImLm4ENS4_ImEELb1EEENS_22xtensor_expression_tagEEEE5resetEm, symObjAddr: 0x5028, symBinAddr: 0x100007EB0, symSize: 0x80 }
  - { offsetInCU: 0x26E10, offset: 0x26E10, size: 0x8, addend: 0x0, symName: __ZNK2xt10xcontainerINS_16xarray_containerINS_7uvectorIdNSt3__19allocatorIdEEEELNS_11layout_typeE2ENS_7svectorImLm4ENS4_ImEELb1EEENS_22xtensor_expression_tagEEEE11backstridesEv, symObjAddr: 0x50A8, symBinAddr: 0x100007F30, symSize: 0x28 }
  - { offsetInCU: 0x26E38, offset: 0x26E38, size: 0x8, addend: 0x0, symName: __ZNK2xt18xstrided_containerINS_16xarray_containerINS_7uvectorIdNSt3__19allocatorIdEEEELNS_11layout_typeE2ENS_7svectorImLm4ENS4_ImEELb1EEENS_22xtensor_expression_tagEEEE16backstrides_implEv, symObjAddr: 0x50D0, symBinAddr: 0x100007F58, symSize: 0x18 }
  - { offsetInCU: 0x26E60, offset: 0x26E60, size: 0x8, addend: 0x0, symName: __ZNK2xt10xcontainerINS_16xarray_containerINS_7uvectorIdNSt3__19allocatorIdEEEELNS_11layout_typeE1ENS_7svectorImLm4ENS4_ImEELb1EEENS_22xtensor_expression_tagEEEE11backstridesEv, symObjAddr: 0x50E8, symBinAddr: 0x100007F70, symSize: 0x28 }
  - { offsetInCU: 0x26E88, offset: 0x26E88, size: 0x8, addend: 0x0, symName: __ZNK2xt18xstrided_containerINS_16xarray_containerINS_7uvectorIdNSt3__19allocatorIdEEEELNS_11layout_typeE1ENS_7svectorImLm4ENS4_ImEELb1EEENS_22xtensor_expression_tagEEEE16backstrides_implEv, symObjAddr: 0x5110, symBinAddr: 0x100007F98, symSize: 0x18 }
  - { offsetInCU: 0x26EBA, offset: 0x26EBA, size: 0x8, addend: 0x0, symName: __ZZN2xt13stepper_toolsILNS_11layout_typeE2EE17increment_stepperINS_16stepper_assignerINS_16xarray_containerINS_7uvectorIdNSt3__19allocatorIdEEEELS1_2ENS_7svectorImLm4ENS8_ImEELb1EEENS_22xtensor_expression_tagEEENS5_ISA_LS1_1ESD_SE_EELS1_2EEESD_SD_EEvRT_RT0_RKT1_ENKUlRKSI_E_clImEEDaSQ_, symObjAddr: 0x5128, symBinAddr: 0x100007FB0, symSize: 0x20 }
  - { offsetInCU: 0x26EFC, offset: 0x26EFC, size: 0x8, addend: 0x0, symName: __ZN2xt8xstepperINS_16xarray_containerINS_7uvectorIdNSt3__19allocatorIdEEEELNS_11layout_typeE2ENS_7svectorImLm4ENS4_ImEELb1EEENS_22xtensor_expression_tagEEEE6to_endES7_, symObjAddr: 0x5148, symBinAddr: 0x100007FD0, symSize: 0x40 }
  - { offsetInCU: 0x26F32, offset: 0x26F32, size: 0x8, addend: 0x0, symName: __ZN2xt8xstepperIKNS_16xarray_containerINS_7uvectorIdNSt3__19allocatorIdEEEELNS_11layout_typeE1ENS_7svectorImLm4ENS4_ImEELb1EEENS_22xtensor_expression_tagEEEE6to_endES7_, symObjAddr: 0x5188, symBinAddr: 0x100008010, symSize: 0x40 }
  - { offsetInCU: 0x26F68, offset: 0x26F68, size: 0x8, addend: 0x0, symName: __ZN2xt10xcontainerINS_16xarray_containerINS_7uvectorIdNSt3__19allocatorIdEEEELNS_11layout_typeE2ENS_7svectorImLm4ENS4_ImEELb1EEENS_22xtensor_expression_tagEEEE9data_xendES7_m, symObjAddr: 0x51C8, symBinAddr: 0x100008050, symSize: 0x48 }
  - { offsetInCU: 0x26FAC, offset: 0x26FAC, size: 0x8, addend: 0x0, symName: __ZNK2xt10xcontainerINS_16xarray_containerINS_7uvectorIdNSt3__19allocatorIdEEEELNS_11layout_typeE2ENS_7svectorImLm4ENS4_ImEELb1EEENS_22xtensor_expression_tagEEEE14data_xend_implIPdEET_SG_S7_m, symObjAddr: 0x5210, symBinAddr: 0x100008098, symSize: 0x4C }
  - { offsetInCU: 0x27007, offset: 0x27007, size: 0x8, addend: 0x0, symName: __ZNK2xt7svectorIlLm4ENSt3__19allocatorIlEELb1EE4backEv, symObjAddr: 0x53A4, symBinAddr: 0x10000822C, symSize: 0x1C }
  - { offsetInCU: 0x2702F, offset: 0x2702F, size: 0x8, addend: 0x0, symName: __ZNK2xt7svectorIlLm4ENSt3__19allocatorIlEELb1EE5frontEv, symObjAddr: 0x53C0, symBinAddr: 0x100008248, symSize: 0x18 }
  - { offsetInCU: 0x27057, offset: 0x27057, size: 0x8, addend: 0x0, symName: __ZNK2xt10xcontainerINS_16xarray_containerINS_7uvectorIdNSt3__19allocatorIdEEEELNS_11layout_typeE1ENS_7svectorImLm4ENS4_ImEELb1EEENS_22xtensor_expression_tagEEEE9data_xendES7_m, symObjAddr: 0x53D8, symBinAddr: 0x100008260, symSize: 0x48 }
  - { offsetInCU: 0x2709B, offset: 0x2709B, size: 0x8, addend: 0x0, symName: __ZNK2xt10xcontainerINS_16xarray_containerINS_7uvectorIdNSt3__19allocatorIdEEEELNS_11layout_typeE1ENS_7svectorImLm4ENS4_ImEELb1EEENS_22xtensor_expression_tagEEEE14data_xend_implIPKdEET_SH_S7_m, symObjAddr: 0x5420, symBinAddr: 0x1000082A8, symSize: 0x4C }
  - { offsetInCU: 0x270F6, offset: 0x270F6, size: 0x8, addend: 0x0, symName: __ZN2xt16stepper_assignerINS_16xarray_containerINS_7uvectorIdNSt3__19allocatorIdEEEELNS_11layout_typeE2ENS_7svectorImLm4ENS4_ImEELb1EEENS_22xtensor_expression_tagEEENS1_IS6_LS7_1ESA_SB_EELS7_2EED2Ev, symObjAddr: 0x55B4, symBinAddr: 0x10000843C, symSize: 0x30 }
  - { offsetInCU: 0x27122, offset: 0x27122, size: 0x8, addend: 0x0, symName: __ZN2xt7uvectorIdNSt3__19allocatorIdEEED2Ev, symObjAddr: 0x55E4, symBinAddr: 0x10000846C, symSize: 0x4C }
  - { offsetInCU: 0x2714E, offset: 0x2714E, size: 0x8, addend: 0x0, symName: __ZN2xt14xsemantic_baseINS_16xarray_containerINS_7uvectorIdNSt3__19allocatorIdEEEELNS_11layout_typeE2ENS_7svectorImLm4ENS4_ImEELb1EEENS_22xtensor_expression_tagEEEED2Ev, symObjAddr: 0x5630, symBinAddr: 0x1000084B8, symSize: 0x2C }
  - { offsetInCU: 0x27178, offset: 0x27178, size: 0x8, addend: 0x0, symName: __ZN2xt20xsharable_expressionINS_16xarray_containerINS_7uvectorIdNSt3__19allocatorIdEEEELNS_11layout_typeE2ENS_7svectorImLm4ENS4_ImEELb1EEENS_22xtensor_expression_tagEEEED2Ev, symObjAddr: 0x565C, symBinAddr: 0x1000084E4, symSize: 0x2C }
  - { offsetInCU: 0x271A2, offset: 0x271A2, size: 0x8, addend: 0x0, symName: __ZNSt3__110shared_ptrIN2xt16xarray_containerINS1_7uvectorIdNS_9allocatorIdEEEELNS1_11layout_typeE2ENS1_7svectorImLm4ENS4_ImEELb1EEENS1_22xtensor_expression_tagEEEED1B8ue170006Ev, symObjAddr: 0x5688, symBinAddr: 0x100008510, symSize: 0x2C }
  - { offsetInCU: 0x271CC, offset: 0x271CC, size: 0x8, addend: 0x0, symName: __ZNSt3__110shared_ptrIN2xt16xarray_containerINS1_7uvectorIdNS_9allocatorIdEEEELNS1_11layout_typeE2ENS1_7svectorImLm4ENS4_ImEELb1EEENS1_22xtensor_expression_tagEEEED2B8ue170006Ev, symObjAddr: 0x56B4, symBinAddr: 0x10000853C, symSize: 0x54 }
  - { offsetInCU: 0x271F6, offset: 0x271F6, size: 0x8, addend: 0x0, symName: __ZNSt3__119__shared_weak_count16__release_sharedB8ue170006Ev, symObjAddr: 0x5708, symBinAddr: 0x100008590, symSize: 0x3C }
  - { offsetInCU: 0x2721C, offset: 0x2721C, size: 0x8, addend: 0x0, symName: __ZNSt3__114__shared_count16__release_sharedB8ue170006Ev, symObjAddr: 0x5744, symBinAddr: 0x1000085CC, symSize: 0x7C }
  - { offsetInCU: 0x27242, offset: 0x27242, size: 0x8, addend: 0x0, symName: __ZNSt3__19allocatorIiEC1B8ue170006Ev, symObjAddr: 0x57F0, symBinAddr: 0x100008678, symSize: 0x2C }
  - { offsetInCU: 0x2726C, offset: 0x2726C, size: 0x8, addend: 0x0, symName: __ZN2xt7uvectorIiNSt3__19allocatorIiEEEC1EmRKS3_, symObjAddr: 0x581C, symBinAddr: 0x1000086A4, symSize: 0x3C }
  - { offsetInCU: 0x272B3, offset: 0x272B3, size: 0x8, addend: 0x0, symName: __ZNK2xt7svectorImLm4ENSt3__19allocatorImEELb1EE4backEv, symObjAddr: 0x5858, symBinAddr: 0x1000086E0, symSize: 0x1C }
  - { offsetInCU: 0x272DB, offset: 0x272DB, size: 0x8, addend: 0x0, symName: __ZNK2xt7svectorImLm4ENSt3__19allocatorImEELb1EE5frontEv, symObjAddr: 0x5874, symBinAddr: 0x1000086FC, symSize: 0x18 }
  - { offsetInCU: 0x27307, offset: 0x27307, size: 0x8, addend: 0x0, symName: __ZN9cxxlapack4gesvIiEET_S1_S1_PdS1_PS1_S2_S1_, symObjAddr: 0x58F4, symBinAddr: 0x10000877C, symSize: 0xE4 }
  - { offsetInCU: 0x2739E, offset: 0x2739E, size: 0x8, addend: 0x0, symName: __ZN9cxxlapack5trtrsIiEET_cccS1_S1_PKdS1_PdS1_, symObjAddr: 0x7EFC, symBinAddr: 0x10000AD84, symSize: 0x10C }
  - { offsetInCU: 0x27451, offset: 0x27451, size: 0x8, addend: 0x0, symName: __ZN9cxxlapack5potrsIiEET_cS1_S1_PKdS1_PdS1_, symObjAddr: 0x80C0, symBinAddr: 0x10000AF48, symSize: 0xE8 }
  - { offsetInCU: 0x274EA, offset: 0x274EA, size: 0x8, addend: 0x0, symName: __ZN2xt10xcontainerINS_16xarray_containerINS_7uvectorIdNSt3__19allocatorIdEEEELNS_11layout_typeE2ENS_7svectorImLm4ENS4_ImEELb1EEENS_22xtensor_expression_tagEEEE4dataEv, symObjAddr: 0x59D8, symBinAddr: 0x100008860, symSize: 0x28 }
  - { offsetInCU: 0x27512, offset: 0x27512, size: 0x8, addend: 0x0, symName: __ZN2xt7uvectorIiNSt3__19allocatorIiEEE4dataEv, symObjAddr: 0x5A00, symBinAddr: 0x100008888, symSize: 0x18 }
  - { offsetInCU: 0x2753A, offset: 0x2753A, size: 0x8, addend: 0x0, symName: __ZN2xt7uvectorIiNSt3__19allocatorIiEEED1Ev, symObjAddr: 0x5A18, symBinAddr: 0x1000088A0, symSize: 0x2C }
  - { offsetInCU: 0x27566, offset: 0x27566, size: 0x8, addend: 0x0, symName: __ZNSt3__19allocatorIiEC2B8ue170006Ev, symObjAddr: 0x5A44, symBinAddr: 0x1000088CC, symSize: 0x2C }
  - { offsetInCU: 0x27590, offset: 0x27590, size: 0x8, addend: 0x0, symName: __ZNSt3__116__non_trivial_ifILb1ENS_9allocatorIiEEEC2B8ue170006Ev, symObjAddr: 0x5A70, symBinAddr: 0x1000088F8, symSize: 0x14 }
  - { offsetInCU: 0x275BA, offset: 0x275BA, size: 0x8, addend: 0x0, symName: __ZN2xt7uvectorIiNSt3__19allocatorIiEEEC2EmRKS3_, symObjAddr: 0x5A84, symBinAddr: 0x10000890C, symSize: 0x7C }
  - { offsetInCU: 0x27601, offset: 0x27601, size: 0x8, addend: 0x0, symName: __ZNSt3__19allocatorIiE8allocateB8ue170006Em, symObjAddr: 0x5B34, symBinAddr: 0x1000089BC, symSize: 0x58 }
  - { offsetInCU: 0x2763F, offset: 0x2763F, size: 0x8, addend: 0x0, symName: __ZNSt3__116allocator_traitsINS_9allocatorIiEEE8max_sizeB8ue170006IS2_vEEmRKS2_, symObjAddr: 0x5B8C, symBinAddr: 0x100008A14, symSize: 0x24 }
  - { offsetInCU: 0x2766D, offset: 0x2766D, size: 0x8, addend: 0x0, symName: __ZNKSt3__19allocatorIiE8max_sizeB8ue170006Ev, symObjAddr: 0x5BB0, symBinAddr: 0x100008A38, symSize: 0x14 }
  - { offsetInCU: 0x27692, offset: 0x27692, size: 0x8, addend: 0x0, symName: __ZNSt3__111char_traitsIcE6lengthB8ue170006EPKc, symObjAddr: 0x5DF8, symBinAddr: 0x100008C80, symSize: 0x34 }
  - { offsetInCU: 0x276D6, offset: 0x276D6, size: 0x8, addend: 0x0, symName: __ZNKSt3__113basic_ostreamIcNS_11char_traitsIcEEE6sentrycvbB8ue170006Ev, symObjAddr: 0x5E2C, symBinAddr: 0x100008CB4, symSize: 0x1C }
  - { offsetInCU: 0x276FC, offset: 0x276FC, size: 0x8, addend: 0x0, symName: __ZNSt3__119ostreambuf_iteratorIcNS_11char_traitsIcEEEC1B8ue170006ERNS_13basic_ostreamIcS2_EE, symObjAddr: 0x6088, symBinAddr: 0x100008F10, symSize: 0x34 }
  - { offsetInCU: 0x27734, offset: 0x27734, size: 0x8, addend: 0x0, symName: __ZNKSt3__18ios_base5flagsB8ue170006Ev, symObjAddr: 0x60BC, symBinAddr: 0x100008F44, symSize: 0x18 }
  - { offsetInCU: 0x2775C, offset: 0x2775C, size: 0x8, addend: 0x0, symName: __ZNKSt3__19basic_iosIcNS_11char_traitsIcEEE4fillB8ue170006Ev, symObjAddr: 0x60D4, symBinAddr: 0x100008F5C, symSize: 0x64 }
  - { offsetInCU: 0x27784, offset: 0x27784, size: 0x8, addend: 0x0, symName: __ZNKSt3__119ostreambuf_iteratorIcNS_11char_traitsIcEEE6failedB8ue170006Ev, symObjAddr: 0x6138, symBinAddr: 0x100008FC0, symSize: 0x24 }
  - { offsetInCU: 0x277AA, offset: 0x277AA, size: 0x8, addend: 0x0, symName: __ZNSt3__19basic_iosIcNS_11char_traitsIcEEE8setstateB8ue170006Ej, symObjAddr: 0x615C, symBinAddr: 0x100008FE4, symSize: 0x2C }
  - { offsetInCU: 0x277DF, offset: 0x277DF, size: 0x8, addend: 0x0, symName: __ZNKSt3__18ios_base5widthB8ue170006Ev, symObjAddr: 0x6188, symBinAddr: 0x100009010, symSize: 0x18 }
  - { offsetInCU: 0x27807, offset: 0x27807, size: 0x8, addend: 0x0, symName: __ZNSt3__115basic_streambufIcNS_11char_traitsIcEEE5sputnB8ue170006EPKcl, symObjAddr: 0x61A0, symBinAddr: 0x100009028, symSize: 0x3C }
  - { offsetInCU: 0x27849, offset: 0x27849, size: 0x8, addend: 0x0, symName: __ZNSt3__112basic_stringIcNS_11char_traitsIcEENS_9allocatorIcEEEC1B8ue170006Emc, symObjAddr: 0x61DC, symBinAddr: 0x100009064, symSize: 0x3C }
  - { offsetInCU: 0x27891, offset: 0x27891, size: 0x8, addend: 0x0, symName: __ZNKSt3__112basic_stringIcNS_11char_traitsIcEENS_9allocatorIcEEE4dataB8ue170006Ev, symObjAddr: 0x6218, symBinAddr: 0x1000090A0, symSize: 0x28 }
  - { offsetInCU: 0x278B7, offset: 0x278B7, size: 0x8, addend: 0x0, symName: __ZNSt3__18ios_base5widthB8ue170006El, symObjAddr: 0x6240, symBinAddr: 0x1000090C8, symSize: 0x2C }
  - { offsetInCU: 0x278FD, offset: 0x278FD, size: 0x8, addend: 0x0, symName: __ZNSt3__112basic_stringIcNS_11char_traitsIcEENS_9allocatorIcEEEC2B8ue170006Emc, symObjAddr: 0x626C, symBinAddr: 0x1000090F4, symSize: 0x4C }
  - { offsetInCU: 0x2794B, offset: 0x2794B, size: 0x8, addend: 0x0, symName: __ZNSt3__117__compressed_pairINS_12basic_stringIcNS_11char_traitsIcEENS_9allocatorIcEEE5__repES5_EC1B8ue170006INS_18__default_init_tagESA_EEOT_OT0_, symObjAddr: 0x62B8, symBinAddr: 0x100009140, symSize: 0x3C }
  - { offsetInCU: 0x279A3, offset: 0x279A3, size: 0x8, addend: 0x0, symName: __ZNSt3__117__compressed_pairINS_12basic_stringIcNS_11char_traitsIcEENS_9allocatorIcEEE5__repES5_EC2B8ue170006INS_18__default_init_tagESA_EEOT_OT0_, symObjAddr: 0x62F4, symBinAddr: 0x10000917C, symSize: 0x3C }
  - { offsetInCU: 0x279FB, offset: 0x279FB, size: 0x8, addend: 0x0, symName: __ZNSt3__122__compressed_pair_elemINS_12basic_stringIcNS_11char_traitsIcEENS_9allocatorIcEEE5__repELi0ELb0EEC2B8ue170006ENS_18__default_init_tagE, symObjAddr: 0x6330, symBinAddr: 0x1000091B8, symSize: 0x14 }
  - { offsetInCU: 0x27A2F, offset: 0x27A2F, size: 0x8, addend: 0x0, symName: __ZNSt3__122__compressed_pair_elemINS_9allocatorIcEELi1ELb1EEC2B8ue170006ENS_18__default_init_tagE, symObjAddr: 0x6344, symBinAddr: 0x1000091CC, symSize: 0x2C }
  - { offsetInCU: 0x27A63, offset: 0x27A63, size: 0x8, addend: 0x0, symName: __ZNSt3__19allocatorIcEC2B8ue170006Ev, symObjAddr: 0x6370, symBinAddr: 0x1000091F8, symSize: 0x2C }
  - { offsetInCU: 0x27A8D, offset: 0x27A8D, size: 0x8, addend: 0x0, symName: __ZNSt3__116__non_trivial_ifILb1ENS_9allocatorIcEEEC2B8ue170006Ev, symObjAddr: 0x639C, symBinAddr: 0x100009224, symSize: 0x14 }
  - { offsetInCU: 0x27AB7, offset: 0x27AB7, size: 0x8, addend: 0x0, symName: __ZNKSt3__112basic_stringIcNS_11char_traitsIcEENS_9allocatorIcEEE13__get_pointerB8ue170006Ev, symObjAddr: 0x63C4, symBinAddr: 0x10000924C, symSize: 0x54 }
  - { offsetInCU: 0x27ADD, offset: 0x27ADD, size: 0x8, addend: 0x0, symName: __ZNKSt3__112basic_stringIcNS_11char_traitsIcEENS_9allocatorIcEEE9__is_longB8ue170006Ev, symObjAddr: 0x6418, symBinAddr: 0x1000092A0, symSize: 0x38 }
  - { offsetInCU: 0x27B03, offset: 0x27B03, size: 0x8, addend: 0x0, symName: __ZNKSt3__112basic_stringIcNS_11char_traitsIcEENS_9allocatorIcEEE18__get_long_pointerB8ue170006Ev, symObjAddr: 0x6450, symBinAddr: 0x1000092D8, symSize: 0x28 }
  - { offsetInCU: 0x27B29, offset: 0x27B29, size: 0x8, addend: 0x0, symName: __ZNKSt3__112basic_stringIcNS_11char_traitsIcEENS_9allocatorIcEEE19__get_short_pointerB8ue170006Ev, symObjAddr: 0x6478, symBinAddr: 0x100009300, symSize: 0x28 }
  - { offsetInCU: 0x27B4F, offset: 0x27B4F, size: 0x8, addend: 0x0, symName: __ZNKSt3__117__compressed_pairINS_12basic_stringIcNS_11char_traitsIcEENS_9allocatorIcEEE5__repES5_E5firstB8ue170006Ev, symObjAddr: 0x64A0, symBinAddr: 0x100009328, symSize: 0x24 }
  - { offsetInCU: 0x27B75, offset: 0x27B75, size: 0x8, addend: 0x0, symName: __ZNKSt3__122__compressed_pair_elemINS_12basic_stringIcNS_11char_traitsIcEENS_9allocatorIcEEE5__repELi0ELb0EE5__getB8ue170006Ev, symObjAddr: 0x64C4, symBinAddr: 0x10000934C, symSize: 0x14 }
  - { offsetInCU: 0x27B9B, offset: 0x27B9B, size: 0x8, addend: 0x0, symName: __ZNSt3__114pointer_traitsIPKcE10pointer_toB8ue170006ERS1_, symObjAddr: 0x64D8, symBinAddr: 0x100009360, symSize: 0x14 }
  - { offsetInCU: 0x27BBE, offset: 0x27BBE, size: 0x8, addend: 0x0, symName: __ZNSt3__119ostreambuf_iteratorIcNS_11char_traitsIcEEEC2B8ue170006ERNS_13basic_ostreamIcS2_EE, symObjAddr: 0x64EC, symBinAddr: 0x100009374, symSize: 0x54 }
  - { offsetInCU: 0x27BF6, offset: 0x27BF6, size: 0x8, addend: 0x0, symName: __ZNKSt3__19basic_iosIcNS_11char_traitsIcEEE5rdbufB8ue170006Ev, symObjAddr: 0x6540, symBinAddr: 0x1000093C8, symSize: 0x24 }
  - { offsetInCU: 0x27C1E, offset: 0x27C1E, size: 0x8, addend: 0x0, symName: __ZNKSt3__18ios_base5rdbufB8ue170006Ev, symObjAddr: 0x6564, symBinAddr: 0x1000093EC, symSize: 0x18 }
  - { offsetInCU: 0x27C44, offset: 0x27C44, size: 0x8, addend: 0x0, symName: __ZNSt3__111char_traitsIcE11eq_int_typeB8ue170006Eii, symObjAddr: 0x657C, symBinAddr: 0x100009404, symSize: 0x28 }
  - { offsetInCU: 0x27C77, offset: 0x27C77, size: 0x8, addend: 0x0, symName: __ZNSt3__111char_traitsIcE3eofB8ue170006Ev, symObjAddr: 0x65A4, symBinAddr: 0x10000942C, symSize: 0x8 }
  - { offsetInCU: 0x27C8B, offset: 0x27C8B, size: 0x8, addend: 0x0, symName: __ZNKSt3__19basic_iosIcNS_11char_traitsIcEEE5widenB8ue170006Ec, symObjAddr: 0x65AC, symBinAddr: 0x100009434, symSize: 0x84 }
  - { offsetInCU: 0x27CF4, offset: 0x27CF4, size: 0x8, addend: 0x0, symName: __ZNKSt3__15ctypeIcE5widenB8ue170006Ec, symObjAddr: 0x665C, symBinAddr: 0x1000094E4, symSize: 0x38 }
  - { offsetInCU: 0x27D29, offset: 0x27D29, size: 0x8, addend: 0x0, symName: __ZNSt3__18ios_base8setstateB8ue170006Ej, symObjAddr: 0x6694, symBinAddr: 0x10000951C, symSize: 0x34 }
  - { offsetInCU: 0x27D60, offset: 0x27D60, size: 0x8, addend: 0x0, symName: __ZN2xt7uvectorIdNSt3__19allocatorIdEEE4dataEv, symObjAddr: 0x66EC, symBinAddr: 0x100009574, symSize: 0x18 }
  - { offsetInCU: 0x27D88, offset: 0x27D88, size: 0x8, addend: 0x0, symName: __ZN2xt7uvectorIiNSt3__19allocatorIiEEED2Ev, symObjAddr: 0x6704, symBinAddr: 0x10000958C, symSize: 0x54 }
  - { offsetInCU: 0x27DB4, offset: 0x27DB4, size: 0x8, addend: 0x0, symName: __ZNK2xt7uvectorIiNSt3__19allocatorIiEEE4sizeEv, symObjAddr: 0x67A4, symBinAddr: 0x10000962C, symSize: 0x28 }
  - { offsetInCU: 0x27DDB, offset: 0x27DDB, size: 0x8, addend: 0x0, symName: __ZNSt3__116allocator_traitsINS_9allocatorIiEEE10deallocateB8ue170006ERS2_Pim, symObjAddr: 0x67CC, symBinAddr: 0x100009654, symSize: 0x34 }
  - { offsetInCU: 0x27E1D, offset: 0x27E1D, size: 0x8, addend: 0x0, symName: __ZNSt3__19allocatorIiE10deallocateB8ue170006EPim, symObjAddr: 0x6800, symBinAddr: 0x100009688, symSize: 0x40 }
  - { offsetInCU: 0x27E5F, offset: 0x27E5F, size: 0x8, addend: 0x0, symName: __ZN2xt16xarray_containerINS_7uvectorIdNSt3__19allocatorIdEEEELNS_11layout_typeE2ENS_7svectorImLm4ENS3_ImEELb1EEENS_22xtensor_expression_tagEEC2EOSB_, symObjAddr: 0x6840, symBinAddr: 0x1000096C8, symSize: 0x5C }
  - { offsetInCU: 0x27E93, offset: 0x27E93, size: 0x8, addend: 0x0, symName: __ZN2xt18xstrided_containerINS_16xarray_containerINS_7uvectorIdNSt3__19allocatorIdEEEELNS_11layout_typeE2ENS_7svectorImLm4ENS4_ImEELb1EEENS_22xtensor_expression_tagEEEEC2EOSD_, symObjAddr: 0x689C, symBinAddr: 0x100009724, symSize: 0x68 }
  - { offsetInCU: 0x27EC8, offset: 0x27EC8, size: 0x8, addend: 0x0, symName: __ZN2xt19xcontainer_semanticINS_16xarray_containerINS_7uvectorIdNSt3__19allocatorIdEEEELNS_11layout_typeE2ENS_7svectorImLm4ENS4_ImEELb1EEENS_22xtensor_expression_tagEEEEC2EOSD_, symObjAddr: 0x6904, symBinAddr: 0x10000978C, symSize: 0x34 }
  - { offsetInCU: 0x27EFC, offset: 0x27EFC, size: 0x8, addend: 0x0, symName: __ZN2xt7uvectorIdNSt3__19allocatorIdEEEC1EOS4_, symObjAddr: 0x6938, symBinAddr: 0x1000097C0, symSize: 0x34 }
  - { offsetInCU: 0x27F36, offset: 0x27F36, size: 0x8, addend: 0x0, symName: __ZN2xt7svectorImLm4ENSt3__19allocatorImEELb1EEC1EOS4_, symObjAddr: 0x696C, symBinAddr: 0x1000097F4, symSize: 0x34 }
  - { offsetInCU: 0x27F71, offset: 0x27F71, size: 0x8, addend: 0x0, symName: __ZN2xt7svectorIlLm4ENSt3__19allocatorIlEELb1EEC1EOS4_, symObjAddr: 0x69A0, symBinAddr: 0x100009828, symSize: 0x34 }
  - { offsetInCU: 0x27FAC, offset: 0x27FAC, size: 0x8, addend: 0x0, symName: __ZN2xt7svectorImLm4ENSt3__19allocatorImEELb1EEC2EOS4_, symObjAddr: 0x69D4, symBinAddr: 0x10000985C, symSize: 0x78 }
  - { offsetInCU: 0x27FE7, offset: 0x27FE7, size: 0x8, addend: 0x0, symName: __ZN2xt7svectorImLm4ENSt3__19allocatorImEELb1EE4swapILm4ES3_Lb1EEEvRNS0_ImXT_ET0_XT1_EEE, symObjAddr: 0x6A4C, symBinAddr: 0x1000098D4, symSize: 0x2D0 }
  - { offsetInCU: 0x28085, offset: 0x28085, size: 0x8, addend: 0x0, symName: __ZN2xt7svectorImLm4ENSt3__19allocatorImEELb1EE6resizeEm, symObjAddr: 0x6D58, symBinAddr: 0x100009BE0, symSize: 0xEC }
  - { offsetInCU: 0x280CB, offset: 0x280CB, size: 0x8, addend: 0x0, symName: __ZN2xt7svectorImLm4ENSt3__19allocatorImEELb1EE13destroy_rangeEPmS5_, symObjAddr: 0x6EEC, symBinAddr: 0x100009D74, symSize: 0x18 }
  - { offsetInCU: 0x2811B, offset: 0x2811B, size: 0x8, addend: 0x0, symName: __ZNKSt3__16__lessIvvEclB8ue170006ImmEEbRKT_RKT0_, symObjAddr: 0x6F58, symBinAddr: 0x100009DE0, symSize: 0x34 }
  - { offsetInCU: 0x28179, offset: 0x28179, size: 0x8, addend: 0x0, symName: __ZNKSt3__114__copy_trivialclB8ue170006ImmLi0EEENS_4pairIPT_PT0_EES4_S4_S6_, symObjAddr: 0x7128, symBinAddr: 0x100009FB0, symSize: 0x48 }
  - { offsetInCU: 0x281E1, offset: 0x281E1, size: 0x8, addend: 0x0, symName: __ZNSt3__14pairIPmS1_EC1B8ue170006IRS1_S1_LPv0EEEOT_OT0_, symObjAddr: 0x732C, symBinAddr: 0x10000A1B4, symSize: 0x3C }
  - { offsetInCU: 0x2823F, offset: 0x2823F, size: 0x8, addend: 0x0, symName: __ZNSt3__14pairIPmS1_EC2B8ue170006IRS1_S1_LPv0EEEOT_OT0_, symObjAddr: 0x7368, symBinAddr: 0x10000A1F0, symSize: 0x34 }
  - { offsetInCU: 0x2829C, offset: 0x2829C, size: 0x8, addend: 0x0, symName: __ZNSt3__118__unwrap_iter_implIPmLb1EE8__rewrapB8ue170006ES1_S1_, symObjAddr: 0x739C, symBinAddr: 0x10000A224, symSize: 0x50 }
  - { offsetInCU: 0x282CD, offset: 0x282CD, size: 0x8, addend: 0x0, symName: __ZN2xt7svectorIlLm4ENSt3__19allocatorIlEELb1EEC2EOS4_, symObjAddr: 0x73EC, symBinAddr: 0x10000A274, symSize: 0x78 }
  - { offsetInCU: 0x28308, offset: 0x28308, size: 0x8, addend: 0x0, symName: __ZN2xt7svectorIlLm4ENSt3__19allocatorIlEELb1EE4swapILm4ES3_Lb1EEEvRNS0_IlXT_ET0_XT1_EEE, symObjAddr: 0x7464, symBinAddr: 0x10000A2EC, symSize: 0x2D0 }
  - { offsetInCU: 0x283A6, offset: 0x283A6, size: 0x8, addend: 0x0, symName: __ZN2xt7svectorIlLm4ENSt3__19allocatorIlEELb1EE13destroy_rangeEPlS5_, symObjAddr: 0x77EC, symBinAddr: 0x10000A674, symSize: 0x18 }
  - { offsetInCU: 0x283EC, offset: 0x283EC, size: 0x8, addend: 0x0, symName: __ZNKSt3__114__copy_trivialclB8ue170006IllLi0EEENS_4pairIPT_PT0_EES4_S4_S6_, symObjAddr: 0x79A0, symBinAddr: 0x10000A828, symSize: 0x48 }
  - { offsetInCU: 0x28454, offset: 0x28454, size: 0x8, addend: 0x0, symName: __ZNSt3__14pairIPlS1_EC1B8ue170006IRS1_S1_LPv0EEEOT_OT0_, symObjAddr: 0x7BC8, symBinAddr: 0x10000AA50, symSize: 0x3C }
  - { offsetInCU: 0x284B2, offset: 0x284B2, size: 0x8, addend: 0x0, symName: __ZNSt3__14pairIPlS1_EC2B8ue170006IRS1_S1_LPv0EEEOT_OT0_, symObjAddr: 0x7C04, symBinAddr: 0x10000AA8C, symSize: 0x34 }
  - { offsetInCU: 0x2850F, offset: 0x2850F, size: 0x8, addend: 0x0, symName: __ZNSt3__118__unwrap_iter_implIPlLb1EE8__unwrapB8ue170006ES1_, symObjAddr: 0x7C38, symBinAddr: 0x10000AAC0, symSize: 0x24 }
  - { offsetInCU: 0x28531, offset: 0x28531, size: 0x8, addend: 0x0, symName: __ZNSt3__118__unwrap_iter_implIPlLb1EE8__rewrapB8ue170006ES1_S1_, symObjAddr: 0x7C70, symBinAddr: 0x10000AAF8, symSize: 0x50 }
  - { offsetInCU: 0x28562, offset: 0x28562, size: 0x8, addend: 0x0, symName: __ZN2xt14xsemantic_baseINS_16xarray_containerINS_7uvectorIdNSt3__19allocatorIdEEEELNS_11layout_typeE2ENS_7svectorImLm4ENS4_ImEELb1EEENS_22xtensor_expression_tagEEEEC2EOSD_, symObjAddr: 0x7CC0, symBinAddr: 0x10000AB48, symSize: 0x34 }
  - { offsetInCU: 0x28596, offset: 0x28596, size: 0x8, addend: 0x0, symName: __ZN2xt20xsharable_expressionINS_16xarray_containerINS_7uvectorIdNSt3__19allocatorIdEEEELNS_11layout_typeE2ENS_7svectorImLm4ENS4_ImEELb1EEENS_22xtensor_expression_tagEEEEC2EOSD_, symObjAddr: 0x7CF4, symBinAddr: 0x10000AB7C, symSize: 0x34 }
  - { offsetInCU: 0x285CA, offset: 0x285CA, size: 0x8, addend: 0x0, symName: __ZNSt3__110shared_ptrIN2xt16xarray_containerINS1_7uvectorIdNS_9allocatorIdEEEELNS1_11layout_typeE2ENS1_7svectorImLm4ENS4_ImEELb1EEENS1_22xtensor_expression_tagEEEEC1B8ue170006EOSD_, symObjAddr: 0x7D28, symBinAddr: 0x10000ABB0, symSize: 0x34 }
  - { offsetInCU: 0x28603, offset: 0x28603, size: 0x8, addend: 0x0, symName: __ZNSt3__110shared_ptrIN2xt16xarray_containerINS1_7uvectorIdNS_9allocatorIdEEEELNS1_11layout_typeE2ENS1_7svectorImLm4ENS4_ImEELb1EEENS1_22xtensor_expression_tagEEEEC2B8ue170006EOSD_, symObjAddr: 0x7D5C, symBinAddr: 0x10000ABE4, symSize: 0x40 }
  - { offsetInCU: 0x2863C, offset: 0x2863C, size: 0x8, addend: 0x0, symName: __ZN2xt7uvectorIdNSt3__19allocatorIdEEEC2EOS4_, symObjAddr: 0x7D9C, symBinAddr: 0x10000AC24, symSize: 0x40 }
  - { offsetInCU: 0x28676, offset: 0x28676, size: 0x8, addend: 0x0, symName: __ZN2xt16xarray_containerINS_7uvectorIdNSt3__19allocatorIdEEEELNS_11layout_typeE2ENS_7svectorImLm4ENS3_ImEELb1EEENS_22xtensor_expression_tagEED2Ev, symObjAddr: 0x7DDC, symBinAddr: 0x10000AC64, symSize: 0x44 }
  - { offsetInCU: 0x286A0, offset: 0x286A0, size: 0x8, addend: 0x0, symName: __ZN2xt16xarray_containerINS_7uvectorIdNSt3__19allocatorIdEEEELNS_11layout_typeE1ENS_7svectorImLm4ENS3_ImEELb1EEENS_22xtensor_expression_tagEED2Ev, symObjAddr: 0x81A8, symBinAddr: 0x10000B030, symSize: 0x44 }
  - { offsetInCU: 0x286CA, offset: 0x286CA, size: 0x8, addend: 0x0, symName: __ZN2xt19xcontainer_semanticINS_16xarray_containerINS_7uvectorIdNSt3__19allocatorIdEEEELNS_11layout_typeE1ENS_7svectorImLm4ENS4_ImEELb1EEENS_22xtensor_expression_tagEEEED2Ev, symObjAddr: 0x81EC, symBinAddr: 0x10000B074, symSize: 0x2C }
  - { offsetInCU: 0x286F4, offset: 0x286F4, size: 0x8, addend: 0x0, symName: __ZN2xt18xstrided_containerINS_16xarray_containerINS_7uvectorIdNSt3__19allocatorIdEEEELNS_11layout_typeE1ENS_7svectorImLm4ENS4_ImEELb1EEENS_22xtensor_expression_tagEEEED2Ev, symObjAddr: 0x8218, symBinAddr: 0x10000B0A0, symSize: 0x44 }
  - { offsetInCU: 0x2871E, offset: 0x2871E, size: 0x8, addend: 0x0, symName: __ZN2xt14xsemantic_baseINS_16xarray_containerINS_7uvectorIdNSt3__19allocatorIdEEEELNS_11layout_typeE1ENS_7svectorImLm4ENS4_ImEELb1EEENS_22xtensor_expression_tagEEEED2Ev, symObjAddr: 0x825C, symBinAddr: 0x10000B0E4, symSize: 0x2C }
  - { offsetInCU: 0x28748, offset: 0x28748, size: 0x8, addend: 0x0, symName: __ZN2xt20xsharable_expressionINS_16xarray_containerINS_7uvectorIdNSt3__19allocatorIdEEEELNS_11layout_typeE1ENS_7svectorImLm4ENS4_ImEELb1EEENS_22xtensor_expression_tagEEEED2Ev, symObjAddr: 0x8288, symBinAddr: 0x10000B110, symSize: 0x2C }
  - { offsetInCU: 0x28772, offset: 0x28772, size: 0x8, addend: 0x0, symName: __ZNSt3__110shared_ptrIN2xt16xarray_containerINS1_7uvectorIdNS_9allocatorIdEEEELNS1_11layout_typeE1ENS1_7svectorImLm4ENS4_ImEELb1EEENS1_22xtensor_expression_tagEEEED1B8ue170006Ev, symObjAddr: 0x82B4, symBinAddr: 0x10000B13C, symSize: 0x2C }
  - { offsetInCU: 0x2879C, offset: 0x2879C, size: 0x8, addend: 0x0, symName: __ZNSt3__110shared_ptrIN2xt16xarray_containerINS1_7uvectorIdNS_9allocatorIdEEEELNS1_11layout_typeE1ENS1_7svectorImLm4ENS4_ImEELb1EEENS1_22xtensor_expression_tagEEEED2B8ue170006Ev, symObjAddr: 0x82E0, symBinAddr: 0x10000B168, symSize: 0x54 }
  - { offsetInCU: 0x287C6, offset: 0x287C6, size: 0x8, addend: 0x0, symName: __ZN2xt16xarray_containerINS_7uvectorIdNSt3__19allocatorIdEEEELNS_11layout_typeE1ENS_7svectorImLm4ENS3_ImEELb1EEENS_22xtensor_expression_tagEEC2ESt16initializer_listISC_IdEE, symObjAddr: 0x8334, symBinAddr: 0x10000B1BC, symSize: 0x12C }
  - { offsetInCU: 0x28815, offset: 0x28815, size: 0x8, addend: 0x0, symName: __ZN2xt18xstrided_containerINS_16xarray_containerINS_7uvectorIdNSt3__19allocatorIdEEEELNS_11layout_typeE1ENS_7svectorImLm4ENS4_ImEELb1EEENS_22xtensor_expression_tagEEEEC2Ev, symObjAddr: 0x8460, symBinAddr: 0x10000B2E8, symSize: 0xF0 }
  - { offsetInCU: 0x28841, offset: 0x28841, size: 0x8, addend: 0x0, symName: __ZN2xt19xcontainer_semanticINS_16xarray_containerINS_7uvectorIdNSt3__19allocatorIdEEEELNS_11layout_typeE1ENS_7svectorImLm4ENS4_ImEELb1EEENS_22xtensor_expression_tagEEEEC2Ev, symObjAddr: 0x8550, symBinAddr: 0x10000B3D8, symSize: 0x2C }
  - { offsetInCU: 0x2886B, offset: 0x2886B, size: 0x8, addend: 0x0, symName: __ZN2xt18xstrided_containerINS_16xarray_containerINS_7uvectorIdNSt3__19allocatorIdEEEELNS_11layout_typeE1ENS_7svectorImLm4ENS4_ImEELb1EEENS_22xtensor_expression_tagEEEE6resizeISA_EEvOT_b, symObjAddr: 0x857C, symBinAddr: 0x10000B404, symSize: 0x10C }
  - { offsetInCU: 0x288E6, offset: 0x288E6, size: 0x8, addend: 0x0, symName: __ZN2xt14xsemantic_baseINS_16xarray_containerINS_7uvectorIdNSt3__19allocatorIdEEEELNS_11layout_typeE1ENS_7svectorImLm4ENS4_ImEELb1EEENS_22xtensor_expression_tagEEEEC2Ev, symObjAddr: 0x8750, symBinAddr: 0x10000B5D8, symSize: 0x2C }
  - { offsetInCU: 0x28910, offset: 0x28910, size: 0x8, addend: 0x0, symName: __ZN2xt20xsharable_expressionINS_16xarray_containerINS_7uvectorIdNSt3__19allocatorIdEEEELNS_11layout_typeE1ENS_7svectorImLm4ENS4_ImEELb1EEENS_22xtensor_expression_tagEEEEC2Ev, symObjAddr: 0x877C, symBinAddr: 0x10000B604, symSize: 0x30 }
  - { offsetInCU: 0x2893B, offset: 0x2893B, size: 0x8, addend: 0x0, symName: __ZNSt3__110shared_ptrIN2xt16xarray_containerINS1_7uvectorIdNS_9allocatorIdEEEELNS1_11layout_typeE1ENS1_7svectorImLm4ENS4_ImEELb1EEENS1_22xtensor_expression_tagEEEEC1B8ue170006EDn, symObjAddr: 0x87AC, symBinAddr: 0x10000B634, symSize: 0x34 }
  - { offsetInCU: 0x28970, offset: 0x28970, size: 0x8, addend: 0x0, symName: __ZNSt3__110shared_ptrIN2xt16xarray_containerINS1_7uvectorIdNS_9allocatorIdEEEELNS1_11layout_typeE1ENS1_7svectorImLm4ENS4_ImEELb1EEENS1_22xtensor_expression_tagEEEEC2B8ue170006EDn, symObjAddr: 0x87E0, symBinAddr: 0x10000B668, symSize: 0x20 }
  - { offsetInCU: 0x289A5, offset: 0x289A5, size: 0x8, addend: 0x0, symName: __ZN2xt10xcontainerINS_16xarray_containerINS_7uvectorIdNSt3__19allocatorIdEEEELNS_11layout_typeE1ENS_7svectorImLm4ENS4_ImEELb1EEENS_22xtensor_expression_tagEEEE7storageEv, symObjAddr: 0x88BC, symBinAddr: 0x10000B744, symSize: 0x28 }
  - { offsetInCU: 0x289CD, offset: 0x289CD, size: 0x8, addend: 0x0, symName: __ZN3xtl6detail18sequence_forwarderIN2xt7svectorImLm4ENSt3__19allocatorImEELb1EEES7_E7forwardIS7_EEOT_SB_, symObjAddr: 0x898C, symBinAddr: 0x10000B814, symSize: 0x14 }
  - { offsetInCU: 0x289F9, offset: 0x289F9, size: 0x8, addend: 0x0, symName: __ZNR2xt10xcontainerINS_16xarray_containerINS_7uvectorIdNSt3__19allocatorIdEEEELNS_11layout_typeE1ENS_7svectorImLm4ENS4_ImEELb1EEENS_22xtensor_expression_tagEEEE12derived_castEv, symObjAddr: 0x8A7C, symBinAddr: 0x10000B904, symSize: 0x14 }
  - { offsetInCU: 0x28A21, offset: 0x28A21, size: 0x8, addend: 0x0, symName: __ZN2xt16xarray_containerINS_7uvectorIdNSt3__19allocatorIdEEEELNS_11layout_typeE1ENS_7svectorImLm4ENS3_ImEELb1EEENS_22xtensor_expression_tagEE12storage_implEv, symObjAddr: 0x8A90, symBinAddr: 0x10000B918, symSize: 0x18 }
  - { offsetInCU: 0x28A48, offset: 0x28A48, size: 0x8, addend: 0x0, symName: __ZN2xt6detail22initializer_shape_implILm0EE5valueISt16initializer_listIS4_IdEEEEmT_, symObjAddr: 0x8B6C, symBinAddr: 0x10000B9F4, symSize: 0x2C }
  - { offsetInCU: 0x28A73, offset: 0x28A73, size: 0x8, addend: 0x0, symName: __ZN2xt6detail22initializer_shape_implILm1EE5valueISt16initializer_listIS4_IdEEEEmT_, symObjAddr: 0x8B98, symBinAddr: 0x10000BA20, symSize: 0x70 }
  - { offsetInCU: 0x28A9F, offset: 0x28A9F, size: 0x8, addend: 0x0, symName: __ZN2xt7svectorImLm4ENSt3__19allocatorImEELb1EEC1ESt16initializer_listImERKS3_, symObjAddr: 0x8C08, symBinAddr: 0x10000BA90, symSize: 0x44 }
  - { offsetInCU: 0x28AE9, offset: 0x28AE9, size: 0x8, addend: 0x0, symName: __ZNKSt16initializer_listIS_IdEE4sizeB8ue170006Ev, symObjAddr: 0x8C4C, symBinAddr: 0x10000BAD4, symSize: 0x18 }
  - { offsetInCU: 0x28B0E, offset: 0x28B0E, size: 0x8, addend: 0x0, symName: __ZN2xt6detail22initializer_shape_implILm0EE5valueISt16initializer_listIdEEEmT_, symObjAddr: 0x8C64, symBinAddr: 0x10000BAEC, symSize: 0x2C }
  - { offsetInCU: 0x28B3A, offset: 0x28B3A, size: 0x8, addend: 0x0, symName: __ZNKSt16initializer_listIS_IdEE5beginB8ue170006Ev, symObjAddr: 0x8C90, symBinAddr: 0x10000BB18, symSize: 0x18 }
  - { offsetInCU: 0x28B60, offset: 0x28B60, size: 0x8, addend: 0x0, symName: __ZNKSt16initializer_listIdE4sizeB8ue170006Ev, symObjAddr: 0x8CA8, symBinAddr: 0x10000BB30, symSize: 0x18 }
  - { offsetInCU: 0x28B86, offset: 0x28B86, size: 0x8, addend: 0x0, symName: __ZN2xt7svectorImLm4ENSt3__19allocatorImEELb1EEC2ESt16initializer_listImERKS3_, symObjAddr: 0x8CC0, symBinAddr: 0x10000BB48, symSize: 0x98 }
  - { offsetInCU: 0x28BD0, offset: 0x28BD0, size: 0x8, addend: 0x0, symName: __ZNKSt16initializer_listImE5beginB8ue170006Ev, symObjAddr: 0x8D58, symBinAddr: 0x10000BBE0, symSize: 0x18 }
  - { offsetInCU: 0x28BF6, offset: 0x28BF6, size: 0x8, addend: 0x0, symName: __ZNKSt16initializer_listImE3endB8ue170006Ev, symObjAddr: 0x8D70, symBinAddr: 0x10000BBF8, symSize: 0x20 }
  - { offsetInCU: 0x28C1C, offset: 0x28C1C, size: 0x8, addend: 0x0, symName: __ZNKSt16initializer_listIS_IdEE3endB8ue170006Ev, symObjAddr: 0x8D90, symBinAddr: 0x10000BC18, symSize: 0x20 }
  - { offsetInCU: 0x28C42, offset: 0x28C42, size: 0x8, addend: 0x0, symName: __ZNKSt16initializer_listIdE5beginB8ue170006Ev, symObjAddr: 0x8E2C, symBinAddr: 0x10000BCB4, symSize: 0x18 }
  - { offsetInCU: 0x28C68, offset: 0x28C68, size: 0x8, addend: 0x0, symName: __ZNKSt16initializer_listIdE3endB8ue170006Ev, symObjAddr: 0x8E44, symBinAddr: 0x10000BCCC, symSize: 0x20 }
  - { offsetInCU: 0x28C93, offset: 0x28C93, size: 0x8, addend: 0x0, symName: __ZN2xt6detail14fmtflags_guardINSt3__113basic_ostreamIcNS2_11char_traitsIcEEEEEC1ERS6_, symObjAddr: 0x90F4, symBinAddr: 0x10000BF7C, symSize: 0x34 }
  - { offsetInCU: 0x28CCC, offset: 0x28CCC, size: 0x8, addend: 0x0, symName: __ZNKR2xt11xexpressionINS_16xarray_containerINS_7uvectorIdNSt3__19allocatorIdEEEELNS_11layout_typeE2ENS_7svectorImLm4ENS4_ImEELb1EEENS_22xtensor_expression_tagEEEE12derived_castEv, symObjAddr: 0x9128, symBinAddr: 0x10000BFB0, symSize: 0x18 }
  - { offsetInCU: 0x28CF3, offset: 0x28CF3, size: 0x8, addend: 0x0, symName: __ZNKSt3__18ios_base9precisionB8ue170006Ev, symObjAddr: 0x93B0, symBinAddr: 0x10000C238, symSize: 0x18 }
  - { offsetInCU: 0x28D1B, offset: 0x28D1B, size: 0x8, addend: 0x0, symName: __ZNSt3__18ios_base9precisionB8ue170006El, symObjAddr: 0x93C8, symBinAddr: 0x10000C250, symSize: 0x2C }
  - { offsetInCU: 0x28D71, offset: 0x28D71, size: 0x8, addend: 0x0, symName: __ZN2xt6detail7printerINS_16xarray_containerINS_7uvectorIdNSt3__19allocatorIdEEEELNS_11layout_typeE2ENS_7svectorImLm4ENS5_ImEELb1EEENS_22xtensor_expression_tagEEEvEC1El, symObjAddr: 0x93F4, symBinAddr: 0x10000C27C, symSize: 0x34 }
  - { offsetInCU: 0x28DAA, offset: 0x28DAA, size: 0x8, addend: 0x0, symName: __ZNSt3__16vectorIN5mpark7variantIJlN2xt14xrange_adaptorINS3_12placeholders5xtuphEllEENS4_IlS6_lEENS4_IllS6_EENS4_IlS6_S6_EENS4_IS6_lS6_EENS4_IS6_S6_lEENS4_IlllEENS4_IS6_S6_S6_EENS3_6xrangeIlEENS3_14xstepped_rangeIlEENS3_8xall_tagENS3_13xellipsis_tagENS3_12xnewaxis_tagEEEENS_9allocatorISM_EEEC1B8ue170006Ev, symObjAddr: 0x9428, symBinAddr: 0x10000C2B0, symSize: 0x2C }
  - { offsetInCU: 0x28DD4, offset: 0x28DD4, size: 0x8, addend: 0x0, symName: __ZN2xt6detail7printerINS_16xarray_containerINS_7uvectorIdNSt3__19allocatorIdEEEELNS_11layout_typeE2ENS_7svectorImLm4ENS5_ImEELb1EEENS_22xtensor_expression_tagEEEvE4initEv, symObjAddr: 0x96C0, symBinAddr: 0x10000C548, symSize: 0x150 }
  - { offsetInCU: 0x28E17, offset: 0x28E17, size: 0x8, addend: 0x0, symName: __ZNSt3__16vectorIN5mpark7variantIJlN2xt14xrange_adaptorINS3_12placeholders5xtuphEllEENS4_IlS6_lEENS4_IllS6_EENS4_IlS6_S6_EENS4_IS6_lS6_EENS4_IS6_S6_lEENS4_IlllEENS4_IS6_S6_S6_EENS3_6xrangeIlEENS3_14xstepped_rangeIlEENS3_8xall_tagENS3_13xellipsis_tagENS3_12xnewaxis_tagEEEENS_9allocatorISM_EEE5clearB8ue170006Ev, symObjAddr: 0x9810, symBinAddr: 0x10000C698, symSize: 0x44 }
  - { offsetInCU: 0x28E4C, offset: 0x28E4C, size: 0x8, addend: 0x0, symName: __ZN2xt6detail7printerINS_16xarray_containerINS_7uvectorIdNSt3__19allocatorIdEEEELNS_11layout_typeE2ENS_7svectorImLm4ENS5_ImEELb1EEENS_22xtensor_expression_tagEEEvE5widthEv, symObjAddr: 0x9E30, symBinAddr: 0x10000CCB8, symSize: 0x18 }
  - { offsetInCU: 0x28E72, offset: 0x28E72, size: 0x8, addend: 0x0, symName: __ZNSt3__16vectorIN5mpark7variantIJlN2xt14xrange_adaptorINS3_12placeholders5xtuphEllEENS4_IlS6_lEENS4_IllS6_EENS4_IlS6_S6_EENS4_IS6_lS6_EENS4_IS6_S6_lEENS4_IlllEENS4_IS6_S6_S6_EENS3_6xrangeIlEENS3_14xstepped_rangeIlEENS3_8xall_tagENS3_13xellipsis_tagENS3_12xnewaxis_tagEEEENS_9allocatorISM_EEED1B8ue170006Ev, symObjAddr: 0x9E48, symBinAddr: 0x10000CCD0, symSize: 0x2C }
  - { offsetInCU: 0x28E9C, offset: 0x28E9C, size: 0x8, addend: 0x0, symName: __ZN2xt6detail7printerINS_16xarray_containerINS_7uvectorIdNSt3__19allocatorIdEEEELNS_11layout_typeE2ENS_7svectorImLm4ENS5_ImEELb1EEENS_22xtensor_expression_tagEEEvED1Ev, symObjAddr: 0x9E74, symBinAddr: 0x10000CCFC, symSize: 0x2C }
  - { offsetInCU: 0x28EC9, offset: 0x28EC9, size: 0x8, addend: 0x0, symName: __ZN2xt6detail14fmtflags_guardINSt3__113basic_ostreamIcNS2_11char_traitsIcEEEEED1Ev, symObjAddr: 0x9EA0, symBinAddr: 0x10000CD28, symSize: 0x2C }
  - { offsetInCU: 0x28EF3, offset: 0x28EF3, size: 0x8, addend: 0x0, symName: __ZN2xt6detail14fmtflags_guardINSt3__113basic_ostreamIcNS2_11char_traitsIcEEEEEC2ERS6_, symObjAddr: 0x9ECC, symBinAddr: 0x10000CD54, symSize: 0x50 }
  - { offsetInCU: 0x28F36, offset: 0x28F36, size: 0x8, addend: 0x0, symName: __ZNKSt3__110multipliesImEclB8ue170006ERKmS3_, symObjAddr: 0x9FC8, symBinAddr: 0x10000CE50, symSize: 0x2C }
  - { offsetInCU: 0x28F7D, offset: 0x28F7D, size: 0x8, addend: 0x0, symName: __ZN2xt13print_options18print_options_implC1Ev, symObjAddr: 0x9FF4, symBinAddr: 0x10000CE7C, symSize: 0x2C }
  - { offsetInCU: 0x28FA9, offset: 0x28FA9, size: 0x8, addend: 0x0, symName: __ZN2xt13print_options18print_options_implC2Ev, symObjAddr: 0xA2DC, symBinAddr: 0x10000D164, symSize: 0x34 }
  - { offsetInCU: 0x28FD5, offset: 0x28FD5, size: 0x8, addend: 0x0, symName: __ZN2xt6detail7printerINS_16xarray_containerINS_7uvectorIdNSt3__19allocatorIdEEEELNS_11layout_typeE2ENS_7svectorImLm4ENS5_ImEELb1EEENS_22xtensor_expression_tagEEEvEC2El, symObjAddr: 0xA310, symBinAddr: 0x10000D198, symSize: 0x64 }
  - { offsetInCU: 0x2900E, offset: 0x2900E, size: 0x8, addend: 0x0, symName: __ZNSt3__16vectorIdNS_9allocatorIdEEEC1B8ue170006Ev, symObjAddr: 0xA374, symBinAddr: 0x10000D1FC, symSize: 0x2C }
  - { offsetInCU: 0x29038, offset: 0x29038, size: 0x8, addend: 0x0, symName: __ZNSt3__111__wrap_iterIPKdEC1B8ue170006Ev, symObjAddr: 0xA3A0, symBinAddr: 0x10000D228, symSize: 0x2C }
  - { offsetInCU: 0x29062, offset: 0x29062, size: 0x8, addend: 0x0, symName: __ZNSt3__16vectorIdNS_9allocatorIdEEEC2B8ue170006Ev, symObjAddr: 0xA3CC, symBinAddr: 0x10000D254, symSize: 0x4C }
  - { offsetInCU: 0x29092, offset: 0x29092, size: 0x8, addend: 0x0, symName: __ZNSt3__117__compressed_pairIPdNS_9allocatorIdEEEC1B8ue170006IDnNS_18__default_init_tagEEEOT_OT0_, symObjAddr: 0xA418, symBinAddr: 0x10000D2A0, symSize: 0x3C }
  - { offsetInCU: 0x290EA, offset: 0x290EA, size: 0x8, addend: 0x0, symName: __ZNSt3__117__compressed_pairIPdNS_9allocatorIdEEEC2B8ue170006IDnNS_18__default_init_tagEEEOT_OT0_, symObjAddr: 0xA454, symBinAddr: 0x10000D2DC, symSize: 0x40 }
  - { offsetInCU: 0x29142, offset: 0x29142, size: 0x8, addend: 0x0, symName: __ZNSt3__122__compressed_pair_elemIPdLi0ELb0EEC2B8ue170006IDnvEEOT_, symObjAddr: 0xA494, symBinAddr: 0x10000D31C, symSize: 0x1C }
  - { offsetInCU: 0x29184, offset: 0x29184, size: 0x8, addend: 0x0, symName: __ZNSt3__122__compressed_pair_elemINS_9allocatorIdEELi1ELb1EEC2B8ue170006ENS_18__default_init_tagE, symObjAddr: 0xA4B0, symBinAddr: 0x10000D338, symSize: 0x2C }
  - { offsetInCU: 0x291B8, offset: 0x291B8, size: 0x8, addend: 0x0, symName: __ZNSt3__111__wrap_iterIPKdEC2B8ue170006Ev, symObjAddr: 0xA4DC, symBinAddr: 0x10000D364, symSize: 0x18 }
  - { offsetInCU: 0x291E2, offset: 0x291E2, size: 0x8, addend: 0x0, symName: __ZNSt3__16vectorIN5mpark7variantIJlN2xt14xrange_adaptorINS3_12placeholders5xtuphEllEENS4_IlS6_lEENS4_IllS6_EENS4_IlS6_S6_EENS4_IS6_lS6_EENS4_IS6_S6_lEENS4_IlllEENS4_IS6_S6_S6_EENS3_6xrangeIlEENS3_14xstepped_rangeIlEENS3_8xall_tagENS3_13xellipsis_tagENS3_12xnewaxis_tagEEEENS_9allocatorISM_EEEC2B8ue170006Ev, symObjAddr: 0xA4F4, symBinAddr: 0x10000D37C, symSize: 0x4C }
  - { offsetInCU: 0x2920C, offset: 0x2920C, size: 0x8, addend: 0x0, symName: __ZNSt3__117__compressed_pairIPN5mpark7variantIJlN2xt14xrange_adaptorINS3_12placeholders5xtuphEllEENS4_IlS6_lEENS4_IllS6_EENS4_IlS6_S6_EENS4_IS6_lS6_EENS4_IS6_S6_lEENS4_IlllEENS4_IS6_S6_S6_EENS3_6xrangeIlEENS3_14xstepped_rangeIlEENS3_8xall_tagENS3_13xellipsis_tagENS3_12xnewaxis_tagEEEENS_9allocatorISM_EEEC1B8ue170006IDnNS_18__default_init_tagEEEOT_OT0_, symObjAddr: 0xA540, symBinAddr: 0x10000D3C8, symSize: 0x3C }
  - { offsetInCU: 0x29264, offset: 0x29264, size: 0x8, addend: 0x0, symName: __ZNSt3__117__compressed_pairIPN5mpark7variantIJlN2xt14xrange_adaptorINS3_12placeholders5xtuphEllEENS4_IlS6_lEENS4_IllS6_EENS4_IlS6_S6_EENS4_IS6_lS6_EENS4_IS6_S6_lEENS4_IlllEENS4_IS6_S6_S6_EENS3_6xrangeIlEENS3_14xstepped_rangeIlEENS3_8xall_tagENS3_13xellipsis_tagENS3_12xnewaxis_tagEEEENS_9allocatorISM_EEEC2B8ue170006IDnNS_18__default_init_tagEEEOT_OT0_, symObjAddr: 0xA57C, symBinAddr: 0x10000D404, symSize: 0x40 }
  - { offsetInCU: 0x292BC, offset: 0x292BC, size: 0x8, addend: 0x0, symName: __ZNSt3__122__compressed_pair_elemIPN5mpark7variantIJlN2xt14xrange_adaptorINS3_12placeholders5xtuphEllEENS4_IlS6_lEENS4_IllS6_EENS4_IlS6_S6_EENS4_IS6_lS6_EENS4_IS6_S6_lEENS4_IlllEENS4_IS6_S6_S6_EENS3_6xrangeIlEENS3_14xstepped_rangeIlEENS3_8xall_tagENS3_13xellipsis_tagENS3_12xnewaxis_tagEEEELi0ELb0EEC2B8ue170006IDnvEEOT_, symObjAddr: 0xA5BC, symBinAddr: 0x10000D444, symSize: 0x1C }
  - { offsetInCU: 0x292FE, offset: 0x292FE, size: 0x8, addend: 0x0, symName: __ZNSt3__122__compressed_pair_elemINS_9allocatorIN5mpark7variantIJlN2xt14xrange_adaptorINS4_12placeholders5xtuphEllEENS5_IlS7_lEENS5_IllS7_EENS5_IlS7_S7_EENS5_IS7_lS7_EENS5_IS7_S7_lEENS5_IlllEENS5_IS7_S7_S7_EENS4_6xrangeIlEENS4_14xstepped_rangeIlEENS4_8xall_tagENS4_13xellipsis_tagENS4_12xnewaxis_tagEEEEEELi1ELb1EEC2B8ue170006ENS_18__default_init_tagE, symObjAddr: 0xA5D8, symBinAddr: 0x10000D460, symSize: 0x2C }
  - { offsetInCU: 0x29332, offset: 0x29332, size: 0x8, addend: 0x0, symName: __ZNSt3__19allocatorIN5mpark7variantIJlN2xt14xrange_adaptorINS3_12placeholders5xtuphEllEENS4_IlS6_lEENS4_IllS6_EENS4_IlS6_S6_EENS4_IS6_lS6_EENS4_IS6_S6_lEENS4_IlllEENS4_IS6_S6_S6_EENS3_6xrangeIlEENS3_14xstepped_rangeIlEENS3_8xall_tagENS3_13xellipsis_tagENS3_12xnewaxis_tagEEEEEC2B8ue170006Ev, symObjAddr: 0xA604, symBinAddr: 0x10000D48C, symSize: 0x2C }
  - { offsetInCU: 0x2935C, offset: 0x2935C, size: 0x8, addend: 0x0, symName: __ZNSt3__116__non_trivial_ifILb1ENS_9allocatorIN5mpark7variantIJlN2xt14xrange_adaptorINS4_12placeholders5xtuphEllEENS5_IlS7_lEENS5_IllS7_EENS5_IlS7_S7_EENS5_IS7_lS7_EENS5_IS7_S7_lEENS5_IlllEENS5_IS7_S7_S7_EENS4_6xrangeIlEENS4_14xstepped_rangeIlEENS4_8xall_tagENS4_13xellipsis_tagENS4_12xnewaxis_tagEEEEEEEC2B8ue170006Ev, symObjAddr: 0xA630, symBinAddr: 0x10000D4B8, symSize: 0x14 }
  - { offsetInCU: 0x29386, offset: 0x29386, size: 0x8, addend: 0x0, symName: __ZNK2xt17xconst_accessibleINS_13xstrided_viewIRKNS_16xarray_containerINS_7uvectorIdNSt3__19allocatorIdEEEELNS_11layout_typeE2ENS_7svectorImLm4ENS5_ImEELb1EEENS_22xtensor_expression_tagEEESB_LS8_0ENS_6detail20inner_storage_getterISF_EEEEE9dimensionEv, symObjAddr: 0xA740, symBinAddr: 0x10000D5C8, symSize: 0x30 }
  - { offsetInCU: 0x293AD, offset: 0x293AD, size: 0x8, addend: 0x0, symName: __ZN2xt6detail7printerINS_16xarray_containerINS_7uvectorIdNSt3__19allocatorIdEEEELNS_11layout_typeE2ENS_7svectorImLm4ENS5_ImEELb1EEENS_22xtensor_expression_tagEEEvE6updateERKd, symObjAddr: 0xA770, symBinAddr: 0x10000D5F8, symSize: 0x218 }
  - { offsetInCU: 0x293FF, offset: 0x293FF, size: 0x8, addend: 0x0, symName: __ZNK2xt18xstrided_view_baseINS_13xstrided_viewIRKNS_16xarray_containerINS_7uvectorIdNSt3__19allocatorIdEEEELNS_11layout_typeE2ENS_7svectorImLm4ENS5_ImEELb1EEENS_22xtensor_expression_tagEEESB_LS8_0ENS_6detail20inner_storage_getterISF_EEEEEclEv, symObjAddr: 0xA988, symBinAddr: 0x10000D810, symSize: 0x2C }
  - { offsetInCU: 0x29427, offset: 0x29427, size: 0x8, addend: 0x0, symName: __ZNK2xt18xstrided_view_baseINS_13xstrided_viewIRKNS_16xarray_containerINS_7uvectorIdNSt3__19allocatorIdEEEELNS_11layout_typeE2ENS_7svectorImLm4ENS5_ImEELb1EEENS_22xtensor_expression_tagEEESB_LS8_0ENS_6detail20inner_storage_getterISF_EEEEE5shapeEv, symObjAddr: 0xA9B4, symBinAddr: 0x10000D83C, symSize: 0x18 }
  - { offsetInCU: 0x2944F, offset: 0x2944F, size: 0x8, addend: 0x0, symName: __ZNSt3__16vectorIN5mpark7variantIJlN2xt14xrange_adaptorINS3_12placeholders5xtuphEllEENS4_IlS6_lEENS4_IllS6_EENS4_IlS6_S6_EENS4_IS6_lS6_EENS4_IS6_S6_lEENS4_IlllEENS4_IS6_S6_S6_EENS3_6xrangeIlEENS3_14xstepped_rangeIlEENS3_8xall_tagENS3_13xellipsis_tagENS3_12xnewaxis_tagEEEENS_9allocatorISM_EEE9push_backB8ue170006EOSM_, symObjAddr: 0xA9CC, symBinAddr: 0x10000D854, symSize: 0x6C }
  - { offsetInCU: 0x2948C, offset: 0x2948C, size: 0x8, addend: 0x0, symName: __ZN5mpark7variantIJlN2xt14xrange_adaptorINS1_12placeholders5xtuphEllEENS2_IlS4_lEENS2_IllS4_EENS2_IlS4_S4_EENS2_IS4_lS4_EENS2_IS4_S4_lEENS2_IlllEENS2_IS4_S4_S4_EENS1_6xrangeIlEENS1_14xstepped_rangeIlEENS1_8xall_tagENS1_13xellipsis_tagENS1_12xnewaxis_tagEEEC1IiiLi0ELi0ELi0ELm0ElLi0EEEOT_, symObjAddr: 0xAA38, symBinAddr: 0x10000D8C0, symSize: 0x34 }
  - { offsetInCU: 0x29502, offset: 0x29502, size: 0x8, addend: 0x0, symName: __ZNSt3__16vectorIN5mpark7variantIJlN2xt14xrange_adaptorINS3_12placeholders5xtuphEllEENS4_IlS6_lEENS4_IllS6_EENS4_IlS6_S6_EENS4_IS6_lS6_EENS4_IS6_S6_lEENS4_IlllEENS4_IS6_S6_S6_EENS3_6xrangeIlEENS3_14xstepped_rangeIlEENS3_8xall_tagENS3_13xellipsis_tagENS3_12xnewaxis_tagEEEENS_9allocatorISM_EEE8pop_backEv, symObjAddr: 0xAA6C, symBinAddr: 0x10000D8F4, symSize: 0x2C }
  - { offsetInCU: 0x2952A, offset: 0x2952A, size: 0x8, addend: 0x0, symName: __ZN2xt13xstrided_viewIRKNS_16xarray_containerINS_7uvectorIdNSt3__19allocatorIdEEEELNS_11layout_typeE2ENS_7svectorImLm4ENS4_ImEELb1EEENS_22xtensor_expression_tagEEESA_LS7_0ENS_6detail20inner_storage_getterISE_EEED1Ev, symObjAddr: 0xAA98, symBinAddr: 0x10000D920, symSize: 0x2C }
  - { offsetInCU: 0x29556, offset: 0x29556, size: 0x8, addend: 0x0, symName: __ZN2xt6detail17strided_view_argsINS0_21no_adj_strides_policyEEC1Ev, symObjAddr: 0xAAC4, symBinAddr: 0x10000D94C, symSize: 0x2C }
  - { offsetInCU: 0x29583, offset: 0x29583, size: 0x8, addend: 0x0, symName: __ZNK2xt18xstrided_containerINS_16xarray_containerINS_7uvectorIdNSt3__19allocatorIdEEEELNS_11layout_typeE2ENS_7svectorImLm4ENS4_ImEELb1EEENS_22xtensor_expression_tagEEEE6layoutEv, symObjAddr: 0xB37C, symBinAddr: 0x10000E204, symSize: 0x18 }
  - { offsetInCU: 0x295B1, offset: 0x295B1, size: 0x8, addend: 0x0, symName: __ZN2xt13xstrided_viewIRKNS_16xarray_containerINS_7uvectorIdNSt3__19allocatorIdEEEELNS_11layout_typeE2ENS_7svectorImLm4ENS4_ImEELb1EEENS_22xtensor_expression_tagEEESA_LS7_0ENS_6detail20inner_storage_getterISE_EEEC1ISE_SA_EEOT_OT0_ONS8_IlLm4ENS4_IlEELb1EEEmS7_, symObjAddr: 0xB394, symBinAddr: 0x10000E21C, symSize: 0x54 }
  - { offsetInCU: 0x29635, offset: 0x29635, size: 0x8, addend: 0x0, symName: __ZN2xt6detail17strided_view_argsINS0_21no_adj_strides_policyEED1Ev, symObjAddr: 0xB3E8, symBinAddr: 0x10000E270, symSize: 0x2C }
  - { offsetInCU: 0x29662, offset: 0x29662, size: 0x8, addend: 0x0, symName: __ZN2xt6detail17strided_view_argsINS0_21no_adj_strides_policyEEC2Ev, symObjAddr: 0xB414, symBinAddr: 0x10000E29C, symSize: 0x38 }
  - { offsetInCU: 0x2968F, offset: 0x2968F, size: 0x8, addend: 0x0, symName: __ZNKSt3__16vectorIN5mpark7variantIJlN2xt14xrange_adaptorINS3_12placeholders5xtuphEllEENS4_IlS6_lEENS4_IllS6_EENS4_IlS6_S6_EENS4_IS6_lS6_EENS4_IS6_S6_lEENS4_IlllEENS4_IS6_S6_S6_EENS3_6xrangeIlEENS3_14xstepped_rangeIlEENS3_8xall_tagENS3_13xellipsis_tagENS3_12xnewaxis_tagEEEENS_9allocatorISM_EEE5beginB8ue170006Ev, symObjAddr: 0xB44C, symBinAddr: 0x10000E2D4, symSize: 0x30 }
  - { offsetInCU: 0x296B7, offset: 0x296B7, size: 0x8, addend: 0x0, symName: __ZNKSt3__16vectorIN5mpark7variantIJlN2xt14xrange_adaptorINS3_12placeholders5xtuphEllEENS4_IlS6_lEENS4_IllS6_EENS4_IlS6_S6_EENS4_IS6_lS6_EENS4_IS6_S6_lEENS4_IlllEENS4_IS6_S6_S6_EENS3_6xrangeIlEENS3_14xstepped_rangeIlEENS3_8xall_tagENS3_13xellipsis_tagENS3_12xnewaxis_tagEEEENS_9allocatorISM_EEE3endB8ue170006Ev, symObjAddr: 0xB47C, symBinAddr: 0x10000E304, symSize: 0x30 }
  - { offsetInCU: 0x296DF, offset: 0x296DF, size: 0x8, addend: 0x0, symName: __ZNKSt3__111__wrap_iterIPKN5mpark7variantIJlN2xt14xrange_adaptorINS3_12placeholders5xtuphEllEENS4_IlS6_lEENS4_IllS6_EENS4_IlS6_S6_EENS4_IS6_lS6_EENS4_IS6_S6_lEENS4_IlllEENS4_IS6_S6_S6_EENS3_6xrangeIlEENS3_14xstepped_rangeIlEENS3_8xall_tagENS3_13xellipsis_tagENS3_12xnewaxis_tagEEEEEdeB8ue170006Ev, symObjAddr: 0xB4E0, symBinAddr: 0x10000E368, symSize: 0x18 }
  - { offsetInCU: 0x29705, offset: 0x29705, size: 0x8, addend: 0x0, symName: __ZNSt3__111__wrap_iterIPKN5mpark7variantIJlN2xt14xrange_adaptorINS3_12placeholders5xtuphEllEENS4_IlS6_lEENS4_IllS6_EENS4_IlS6_S6_EENS4_IS6_lS6_EENS4_IS6_S6_lEENS4_IlllEENS4_IS6_S6_S6_EENS3_6xrangeIlEENS3_14xstepped_rangeIlEENS3_8xall_tagENS3_13xellipsis_tagENS3_12xnewaxis_tagEEEEEppB8ue170006Ev, symObjAddr: 0xB564, symBinAddr: 0x10000E3EC, symSize: 0x20 }
  - { offsetInCU: 0x2972B, offset: 0x2972B, size: 0x8, addend: 0x0, symName: __ZNKSt3__16vectorIN5mpark7variantIJlN2xt14xrange_adaptorINS3_12placeholders5xtuphEllEENS4_IlS6_lEENS4_IllS6_EENS4_IlS6_S6_EENS4_IS6_lS6_EENS4_IS6_S6_lEENS4_IlllEENS4_IS6_S6_S6_EENS3_6xrangeIlEENS3_14xstepped_rangeIlEENS3_8xall_tagENS3_13xellipsis_tagENS3_12xnewaxis_tagEEEENS_9allocatorISM_EEE4sizeB8ue170006Ev, symObjAddr: 0xB584, symBinAddr: 0x10000E40C, symSize: 0x28 }
  - { offsetInCU: 0x29751, offset: 0x29751, size: 0x8, addend: 0x0, symName: __ZN2xt6detail21no_adj_strides_policy6resizeEm, symObjAddr: 0xB5AC, symBinAddr: 0x10000E434, symSize: 0x14 }
  - { offsetInCU: 0x29782, offset: 0x29782, size: 0x8, addend: 0x0, symName: __ZN2xt7svectorImLm4ENSt3__19allocatorImEELb1EEC1ERKS4_, symObjAddr: 0xB5C0, symBinAddr: 0x10000E448, symSize: 0x34 }
  - { offsetInCU: 0x297BD, offset: 0x297BD, size: 0x8, addend: 0x0, symName: __ZN2xt6detail17slice_getter_implINS_7svectorImLm4ENSt3__19allocatorImEELb1EEEEC1ERKS6_, symObjAddr: 0xB5F4, symBinAddr: 0x10000E47C, symSize: 0x34 }
  - { offsetInCU: 0x297F6, offset: 0x297F6, size: 0x8, addend: 0x0, symName: __ZNKSt3__16vectorIN5mpark7variantIJlN2xt14xrange_adaptorINS3_12placeholders5xtuphEllEENS4_IlS6_lEENS4_IllS6_EENS4_IlS6_S6_EENS4_IS6_lS6_EENS4_IS6_S6_lEENS4_IlllEENS4_IS6_S6_S6_EENS3_6xrangeIlEENS3_14xstepped_rangeIlEENS3_8xall_tagENS3_13xellipsis_tagENS3_12xnewaxis_tagEEEENS_9allocatorISM_EEEixB8ue170006Em, symObjAddr: 0xB628, symBinAddr: 0x10000E4B0, symSize: 0x24 }
  - { offsetInCU: 0x2982D, offset: 0x2982D, size: 0x8, addend: 0x0, symName: __ZN2xt6detail21no_adj_strides_policy14set_fake_sliceEm, symObjAddr: 0xB64C, symBinAddr: 0x10000E4D4, symSize: 0x14 }
  - { offsetInCU: 0x2986F, offset: 0x2986F, size: 0x8, addend: 0x0, symName: __ZN2xt6detail21no_adj_strides_policy9fill_argsIlNS_7svectorImLm4ENSt3__19allocatorImEELb1EEEEEbRKNS4_6vectorIN5mpark7variantIJlNS_14xrange_adaptorINS_12placeholders5xtuphEllEENSB_IlSD_lEENSB_IllSD_EENSB_IlSD_SD_EENSB_ISD_lSD_EENSB_ISD_SD_lEENSB_IlllEENSB_ISD_SD_SD_EENS_6xrangeIlEENS_14xstepped_rangeIlEENS_8xall_tagENS_13xellipsis_tagENS_12xnewaxis_tagEEEENS5_IST_EEEEmmmRKT_RT0_RNS_16get_strides_typeIS11_E4typeE, symObjAddr: 0xB684, symBinAddr: 0x10000E50C, symSize: 0x34 }
  - { offsetInCU: 0x298F4, offset: 0x298F4, size: 0x8, addend: 0x0, symName: __ZNSt3__15arrayIlLm3EEixB8ue170006Em, symObjAddr: 0xB740, symBinAddr: 0x10000E5C8, symSize: 0x20 }
  - { offsetInCU: 0x29928, offset: 0x29928, size: 0x8, addend: 0x0, symName: __ZNKSt3__16vectorIN5mpark7variantIJlN2xt14xrange_adaptorINS3_12placeholders5xtuphEllEENS4_IlS6_lEENS4_IllS6_EENS4_IlS6_S6_EENS4_IS6_lS6_EENS4_IS6_S6_lEENS4_IlllEENS4_IS6_S6_S6_EENS3_6xrangeIlEENS3_14xstepped_rangeIlEENS3_8xall_tagENS3_13xellipsis_tagENS3_12xnewaxis_tagEEEENS_9allocatorISM_EEE11__make_iterB8ue170006EPKSM_, symObjAddr: 0xB960, symBinAddr: 0x10000E7E8, symSize: 0x30 }
  - { offsetInCU: 0x2995D, offset: 0x2995D, size: 0x8, addend: 0x0, symName: __ZNSt3__111__wrap_iterIPKN5mpark7variantIJlN2xt14xrange_adaptorINS3_12placeholders5xtuphEllEENS4_IlS6_lEENS4_IllS6_EENS4_IlS6_S6_EENS4_IS6_lS6_EENS4_IS6_S6_lEENS4_IlllEENS4_IS6_S6_S6_EENS3_6xrangeIlEENS3_14xstepped_rangeIlEENS3_8xall_tagENS3_13xellipsis_tagENS3_12xnewaxis_tagEEEEEC1B8ue170006ESO_, symObjAddr: 0xB990, symBinAddr: 0x10000E818, symSize: 0x34 }
  - { offsetInCU: 0x29995, offset: 0x29995, size: 0x8, addend: 0x0, symName: __ZNSt3__111__wrap_iterIPKN5mpark7variantIJlN2xt14xrange_adaptorINS3_12placeholders5xtuphEllEENS4_IlS6_lEENS4_IllS6_EENS4_IlS6_S6_EENS4_IS6_lS6_EENS4_IS6_S6_lEENS4_IlllEENS4_IS6_S6_S6_EENS3_6xrangeIlEENS3_14xstepped_rangeIlEENS3_8xall_tagENS3_13xellipsis_tagENS3_12xnewaxis_tagEEEEEC2B8ue170006ESO_, symObjAddr: 0xB9C4, symBinAddr: 0x10000E84C, symSize: 0x20 }
  - { offsetInCU: 0x299CD, offset: 0x299CD, size: 0x8, addend: 0x0, symName: __ZNKSt3__111__wrap_iterIPKN5mpark7variantIJlN2xt14xrange_adaptorINS3_12placeholders5xtuphEllEENS4_IlS6_lEENS4_IllS6_EENS4_IlS6_S6_EENS4_IS6_lS6_EENS4_IS6_S6_lEENS4_IlllEENS4_IS6_S6_S6_EENS3_6xrangeIlEENS3_14xstepped_rangeIlEENS3_8xall_tagENS3_13xellipsis_tagENS3_12xnewaxis_tagEEEEE4baseB8ue170006Ev, symObjAddr: 0xBA2C, symBinAddr: 0x10000E8B4, symSize: 0x18 }
  - { offsetInCU: 0x299FD, offset: 0x299FD, size: 0x8, addend: 0x0, symName: __ZN5mpark6detail6access7variant7get_altILm13ERKNS_7variantIJlN2xt14xrange_adaptorINS5_12placeholders5xtuphEllEENS6_IlS8_lEENS6_IllS8_EENS6_IlS8_S8_EENS6_IS8_lS8_EENS6_IS8_S8_lEENS6_IlllEENS6_IS8_S8_S8_EENS5_6xrangeIlEENS5_14xstepped_rangeIlEENS5_8xall_tagENS5_13xellipsis_tagENS5_12xnewaxis_tagEEEEEEODaOT0_, symObjAddr: 0xBB20, symBinAddr: 0x10000E9A8, symSize: 0x28 }
  - { offsetInCU: 0x29A34, offset: 0x29A34, size: 0x8, addend: 0x0, symName: __ZNK5mpark7variantIJlN2xt14xrange_adaptorINS1_12placeholders5xtuphEllEENS2_IlS4_lEENS2_IllS4_EENS2_IlS4_S4_EENS2_IS4_lS4_EENS2_IS4_S4_lEENS2_IlllEENS2_IS4_S4_S4_EENS1_6xrangeIlEENS1_14xstepped_rangeIlEENS1_8xall_tagENS1_13xellipsis_tagENS1_12xnewaxis_tagEEE5indexEv, symObjAddr: 0xBB48, symBinAddr: 0x10000E9D0, symSize: 0x24 }
  - { offsetInCU: 0x29A5A, offset: 0x29A5A, size: 0x8, addend: 0x0, symName: __ZNK5mpark6detail4baseILNS0_5TraitE0EJlN2xt14xrange_adaptorINS3_12placeholders5xtuphEllEENS4_IlS6_lEENS4_IllS6_EENS4_IlS6_S6_EENS4_IS6_lS6_EENS4_IS6_S6_lEENS4_IlllEENS4_IS6_S6_S6_EENS3_6xrangeIlEENS3_14xstepped_rangeIlEENS3_8xall_tagENS3_13xellipsis_tagENS3_12xnewaxis_tagEEE5indexEv, symObjAddr: 0xBB6C, symBinAddr: 0x10000E9F4, symSize: 0x50 }
  - { offsetInCU: 0x29A80, offset: 0x29A80, size: 0x8, addend: 0x0, symName: __ZNK5mpark6detail4baseILNS0_5TraitE0EJlN2xt14xrange_adaptorINS3_12placeholders5xtuphEllEENS4_IlS6_lEENS4_IllS6_EENS4_IlS6_S6_EENS4_IS6_lS6_EENS4_IS6_S6_lEENS4_IlllEENS4_IS6_S6_S6_EENS3_6xrangeIlEENS3_14xstepped_rangeIlEENS3_8xall_tagENS3_13xellipsis_tagENS3_12xnewaxis_tagEEE22valueless_by_exceptionEv, symObjAddr: 0xBBBC, symBinAddr: 0x10000EA44, symSize: 0x24 }
  - { offsetInCU: 0x29AAB, offset: 0x29AAB, size: 0x8, addend: 0x0, symName: __ZN5mpark6detail6access4base7get_altILm13ERKNS0_4implIJlN2xt14xrange_adaptorINS5_12placeholders5xtuphEllEENS6_IlS8_lEENS6_IllS8_EENS6_IlS8_S8_EENS6_IS8_lS8_EENS6_IS8_S8_lEENS6_IlllEENS6_IS8_S8_S8_EENS5_6xrangeIlEENS5_14xstepped_rangeIlEENS5_8xall_tagENS5_13xellipsis_tagENS5_12xnewaxis_tagEEEEEEODaOT0_, symObjAddr: 0xBBE0, symBinAddr: 0x10000EA68, symSize: 0x2C }
  - { offsetInCU: 0x29AE6, offset: 0x29AE6, size: 0x8, addend: 0x0, symName: __ZN5mpark6detail6access15recursive_union7get_altIRKNS0_15recursive_unionILNS0_5TraitE0ELm0EJlN2xt14xrange_adaptorINS6_12placeholders5xtuphEllEENS7_IlS9_lEENS7_IllS9_EENS7_IlS9_S9_EENS7_IS9_lS9_EENS7_IS9_S9_lEENS7_IlllEENS7_IS9_S9_S9_EENS6_6xrangeIlEENS6_14xstepped_rangeIlEENS6_8xall_tagENS6_13xellipsis_tagENS6_12xnewaxis_tagEEEELm13EEEODaOT_NS_16in_place_index_tIXT0_EEE, symObjAddr: 0xBC20, symBinAddr: 0x10000EAA8, symSize: 0x28 }
  - { offsetInCU: 0x29B2C, offset: 0x29B2C, size: 0x8, addend: 0x0, symName: __ZN5mpark6detail6access15recursive_union7get_altIRKNS0_15recursive_unionILNS0_5TraitE0ELm1EJN2xt14xrange_adaptorINS6_12placeholders5xtuphEllEENS7_IlS9_lEENS7_IllS9_EENS7_IlS9_S9_EENS7_IS9_lS9_EENS7_IS9_S9_lEENS7_IlllEENS7_IS9_S9_S9_EENS6_6xrangeIlEENS6_14xstepped_rangeIlEENS6_8xall_tagENS6_13xellipsis_tagENS6_12xnewaxis_tagEEEELm12EEEODaOT_NS_16in_place_index_tIXT0_EEE, symObjAddr: 0xBC70, symBinAddr: 0x10000EAF8, symSize: 0x28 }
  - { offsetInCU: 0x29B72, offset: 0x29B72, size: 0x8, addend: 0x0, symName: __ZN5mpark6detail6access15recursive_union7get_altIRKNS0_15recursive_unionILNS0_5TraitE0ELm2EJN2xt14xrange_adaptorIlNS6_12placeholders5xtuphElEENS7_IllS9_EENS7_IlS9_S9_EENS7_IS9_lS9_EENS7_IS9_S9_lEENS7_IlllEENS7_IS9_S9_S9_EENS6_6xrangeIlEENS6_14xstepped_rangeIlEENS6_8xall_tagENS6_13xellipsis_tagENS6_12xnewaxis_tagEEEELm11EEEODaOT_NS_16in_place_index_tIXT0_EEE, symObjAddr: 0xBCAC, symBinAddr: 0x10000EB34, symSize: 0x28 }
  - { offsetInCU: 0x29BB8, offset: 0x29BB8, size: 0x8, addend: 0x0, symName: __ZN5mpark6detail6access15recursive_union7get_altIRKNS0_15recursive_unionILNS0_5TraitE0ELm3EJN2xt14xrange_adaptorIllNS6_12placeholders5xtuphEEENS7_IlS9_S9_EENS7_IS9_lS9_EENS7_IS9_S9_lEENS7_IlllEENS7_IS9_S9_S9_EENS6_6xrangeIlEENS6_14xstepped_rangeIlEENS6_8xall_tagENS6_13xellipsis_tagENS6_12xnewaxis_tagEEEELm10EEEODaOT_NS_16in_place_index_tIXT0_EEE, symObjAddr: 0xBCE8, symBinAddr: 0x10000EB70, symSize: 0x28 }
  - { offsetInCU: 0x29BFE, offset: 0x29BFE, size: 0x8, addend: 0x0, symName: __ZN5mpark6detail6access15recursive_union7get_altIRKNS0_15recursive_unionILNS0_5TraitE0ELm4EJN2xt14xrange_adaptorIlNS6_12placeholders5xtuphES9_EENS7_IS9_lS9_EENS7_IS9_S9_lEENS7_IlllEENS7_IS9_S9_S9_EENS6_6xrangeIlEENS6_14xstepped_rangeIlEENS6_8xall_tagENS6_13xellipsis_tagENS6_12xnewaxis_tagEEEELm9EEEODaOT_NS_16in_place_index_tIXT0_EEE, symObjAddr: 0xBD24, symBinAddr: 0x10000EBAC, symSize: 0x28 }
  - { offsetInCU: 0x29C44, offset: 0x29C44, size: 0x8, addend: 0x0, symName: __ZN5mpark6detail6access15recursive_union7get_altIRKNS0_15recursive_unionILNS0_5TraitE0ELm5EJN2xt14xrange_adaptorINS6_12placeholders5xtuphElS9_EENS7_IS9_S9_lEENS7_IlllEENS7_IS9_S9_S9_EENS6_6xrangeIlEENS6_14xstepped_rangeIlEENS6_8xall_tagENS6_13xellipsis_tagENS6_12xnewaxis_tagEEEELm8EEEODaOT_NS_16in_place_index_tIXT0_EEE, symObjAddr: 0xBD60, symBinAddr: 0x10000EBE8, symSize: 0x28 }
  - { offsetInCU: 0x29C8A, offset: 0x29C8A, size: 0x8, addend: 0x0, symName: __ZN5mpark6detail6access15recursive_union7get_altIRKNS0_15recursive_unionILNS0_5TraitE0ELm6EJN2xt14xrange_adaptorINS6_12placeholders5xtuphES9_lEENS7_IlllEENS7_IS9_S9_S9_EENS6_6xrangeIlEENS6_14xstepped_rangeIlEENS6_8xall_tagENS6_13xellipsis_tagENS6_12xnewaxis_tagEEEELm7EEEODaOT_NS_16in_place_index_tIXT0_EEE, symObjAddr: 0xBD9C, symBinAddr: 0x10000EC24, symSize: 0x28 }
  - { offsetInCU: 0x29CD0, offset: 0x29CD0, size: 0x8, addend: 0x0, symName: __ZN5mpark6detail6access15recursive_union7get_altIRKNS0_15recursive_unionILNS0_5TraitE0ELm7EJN2xt14xrange_adaptorIlllEENS7_INS6_12placeholders5xtuphESA_SA_EENS6_6xrangeIlEENS6_14xstepped_rangeIlEENS6_8xall_tagENS6_13xellipsis_tagENS6_12xnewaxis_tagEEEELm6EEEODaOT_NS_16in_place_index_tIXT0_EEE, symObjAddr: 0xBDD8, symBinAddr: 0x10000EC60, symSize: 0x28 }
  - { offsetInCU: 0x29D16, offset: 0x29D16, size: 0x8, addend: 0x0, symName: __ZN5mpark6detail6access15recursive_union7get_altIRKNS0_15recursive_unionILNS0_5TraitE0ELm8EJN2xt14xrange_adaptorINS6_12placeholders5xtuphES9_S9_EENS6_6xrangeIlEENS6_14xstepped_rangeIlEENS6_8xall_tagENS6_13xellipsis_tagENS6_12xnewaxis_tagEEEELm5EEEODaOT_NS_16in_place_index_tIXT0_EEE, symObjAddr: 0xBE14, symBinAddr: 0x10000EC9C, symSize: 0x28 }
  - { offsetInCU: 0x29D5C, offset: 0x29D5C, size: 0x8, addend: 0x0, symName: __ZN5mpark6detail6access15recursive_union7get_altIRKNS0_15recursive_unionILNS0_5TraitE0ELm9EJN2xt6xrangeIlEENS6_14xstepped_rangeIlEENS6_8xall_tagENS6_13xellipsis_tagENS6_12xnewaxis_tagEEEELm4EEEODaOT_NS_16in_place_index_tIXT0_EEE, symObjAddr: 0xBE50, symBinAddr: 0x10000ECD8, symSize: 0x28 }
  - { offsetInCU: 0x29DA2, offset: 0x29DA2, size: 0x8, addend: 0x0, symName: __ZN5mpark6detail6access15recursive_union7get_altIRKNS0_15recursive_unionILNS0_5TraitE0ELm10EJN2xt14xstepped_rangeIlEENS6_8xall_tagENS6_13xellipsis_tagENS6_12xnewaxis_tagEEEELm3EEEODaOT_NS_16in_place_index_tIXT0_EEE, symObjAddr: 0xBE8C, symBinAddr: 0x10000ED14, symSize: 0x28 }
  - { offsetInCU: 0x29DE8, offset: 0x29DE8, size: 0x8, addend: 0x0, symName: __ZN5mpark6detail6access15recursive_union7get_altIRKNS0_15recursive_unionILNS0_5TraitE0ELm11EJN2xt8xall_tagENS6_13xellipsis_tagENS6_12xnewaxis_tagEEEELm2EEEODaOT_NS_16in_place_index_tIXT0_EEE, symObjAddr: 0xBEC8, symBinAddr: 0x10000ED50, symSize: 0x28 }
  - { offsetInCU: 0x29E2E, offset: 0x29E2E, size: 0x8, addend: 0x0, symName: __ZN5mpark6detail6access15recursive_union7get_altIRKNS0_15recursive_unionILNS0_5TraitE0ELm12EJN2xt13xellipsis_tagENS6_12xnewaxis_tagEEEELm1EEEODaOT_NS_16in_place_index_tIXT0_EEE, symObjAddr: 0xBF04, symBinAddr: 0x10000ED8C, symSize: 0x28 }
  - { offsetInCU: 0x29E74, offset: 0x29E74, size: 0x8, addend: 0x0, symName: __ZN5mpark6detail6access15recursive_union7get_altIRKNS0_15recursive_unionILNS0_5TraitE0ELm13EJN2xt12xnewaxis_tagEEEEEEODaOT_NS_16in_place_index_tILm0EEE, symObjAddr: 0xBF40, symBinAddr: 0x10000EDC8, symSize: 0x24 }
  - { offsetInCU: 0x29EB6, offset: 0x29EB6, size: 0x8, addend: 0x0, symName: __ZN5mpark6detail6access7variant7get_altILm0ERKNS_7variantIJlN2xt14xrange_adaptorINS5_12placeholders5xtuphEllEENS6_IlS8_lEENS6_IllS8_EENS6_IlS8_S8_EENS6_IS8_lS8_EENS6_IS8_S8_lEENS6_IlllEENS6_IS8_S8_S8_EENS5_6xrangeIlEENS5_14xstepped_rangeIlEENS5_8xall_tagENS5_13xellipsis_tagENS5_12xnewaxis_tagEEEEEEODaOT0_, symObjAddr: 0xC068, symBinAddr: 0x10000EEF0, symSize: 0x28 }
  - { offsetInCU: 0x29EEC, offset: 0x29EEC, size: 0x8, addend: 0x0, symName: __ZN5mpark6detail6access4base7get_altILm0ERKNS0_4implIJlN2xt14xrange_adaptorINS5_12placeholders5xtuphEllEENS6_IlS8_lEENS6_IllS8_EENS6_IlS8_S8_EENS6_IS8_lS8_EENS6_IS8_S8_lEENS6_IlllEENS6_IS8_S8_S8_EENS5_6xrangeIlEENS5_14xstepped_rangeIlEENS5_8xall_tagENS5_13xellipsis_tagENS5_12xnewaxis_tagEEEEEEODaOT0_, symObjAddr: 0xC090, symBinAddr: 0x10000EF18, symSize: 0x2C }
  - { offsetInCU: 0x29F22, offset: 0x29F22, size: 0x8, addend: 0x0, symName: __ZN5mpark6detail6access15recursive_union7get_altIRKNS0_15recursive_unionILNS0_5TraitE0ELm0EJlN2xt14xrange_adaptorINS6_12placeholders5xtuphEllEENS7_IlS9_lEENS7_IllS9_EENS7_IlS9_S9_EENS7_IS9_lS9_EENS7_IS9_S9_lEENS7_IlllEENS7_IS9_S9_S9_EENS6_6xrangeIlEENS6_14xstepped_rangeIlEENS6_8xall_tagENS6_13xellipsis_tagENS6_12xnewaxis_tagEEEEEEODaOT_NS_16in_place_index_tILm0EEE, symObjAddr: 0xC0BC, symBinAddr: 0x10000EF44, symSize: 0x24 }
  - { offsetInCU: 0x29F64, offset: 0x29F64, size: 0x8, addend: 0x0, symName: __ZN5mpark6detail6access7variant7get_altILm12ERKNS_7variantIJlN2xt14xrange_adaptorINS5_12placeholders5xtuphEllEENS6_IlS8_lEENS6_IllS8_EENS6_IlS8_S8_EENS6_IS8_lS8_EENS6_IS8_S8_lEENS6_IlllEENS6_IS8_S8_S8_EENS5_6xrangeIlEENS5_14xstepped_rangeIlEENS5_8xall_tagENS5_13xellipsis_tagENS5_12xnewaxis_tagEEEEEEODaOT0_, symObjAddr: 0xC1BC, symBinAddr: 0x10000F044, symSize: 0x28 }
  - { offsetInCU: 0x29F9A, offset: 0x29F9A, size: 0x8, addend: 0x0, symName: __ZN5mpark6detail6access4base7get_altILm12ERKNS0_4implIJlN2xt14xrange_adaptorINS5_12placeholders5xtuphEllEENS6_IlS8_lEENS6_IllS8_EENS6_IlS8_S8_EENS6_IS8_lS8_EENS6_IS8_S8_lEENS6_IlllEENS6_IS8_S8_S8_EENS5_6xrangeIlEENS5_14xstepped_rangeIlEENS5_8xall_tagENS5_13xellipsis_tagENS5_12xnewaxis_tagEEEEEEODaOT0_, symObjAddr: 0xC1E4, symBinAddr: 0x10000F06C, symSize: 0x2C }
  - { offsetInCU: 0x29FD0, offset: 0x29FD0, size: 0x8, addend: 0x0, symName: __ZN5mpark6detail6access15recursive_union7get_altIRKNS0_15recursive_unionILNS0_5TraitE0ELm0EJlN2xt14xrange_adaptorINS6_12placeholders5xtuphEllEENS7_IlS9_lEENS7_IllS9_EENS7_IlS9_S9_EENS7_IS9_lS9_EENS7_IS9_S9_lEENS7_IlllEENS7_IS9_S9_S9_EENS6_6xrangeIlEENS6_14xstepped_rangeIlEENS6_8xall_tagENS6_13xellipsis_tagENS6_12xnewaxis_tagEEEELm12EEEODaOT_NS_16in_place_index_tIXT0_EEE, symObjAddr: 0xC210, symBinAddr: 0x10000F098, symSize: 0x28 }
  - { offsetInCU: 0x2A011, offset: 0x2A011, size: 0x8, addend: 0x0, symName: __ZN5mpark6detail6access15recursive_union7get_altIRKNS0_15recursive_unionILNS0_5TraitE0ELm1EJN2xt14xrange_adaptorINS6_12placeholders5xtuphEllEENS7_IlS9_lEENS7_IllS9_EENS7_IlS9_S9_EENS7_IS9_lS9_EENS7_IS9_S9_lEENS7_IlllEENS7_IS9_S9_S9_EENS6_6xrangeIlEENS6_14xstepped_rangeIlEENS6_8xall_tagENS6_13xellipsis_tagENS6_12xnewaxis_tagEEEELm11EEEODaOT_NS_16in_place_index_tIXT0_EEE, symObjAddr: 0xC238, symBinAddr: 0x10000F0C0, symSize: 0x28 }
  - { offsetInCU: 0x2A052, offset: 0x2A052, size: 0x8, addend: 0x0, symName: __ZN5mpark6detail6access15recursive_union7get_altIRKNS0_15recursive_unionILNS0_5TraitE0ELm2EJN2xt14xrange_adaptorIlNS6_12placeholders5xtuphElEENS7_IllS9_EENS7_IlS9_S9_EENS7_IS9_lS9_EENS7_IS9_S9_lEENS7_IlllEENS7_IS9_S9_S9_EENS6_6xrangeIlEENS6_14xstepped_rangeIlEENS6_8xall_tagENS6_13xellipsis_tagENS6_12xnewaxis_tagEEEELm10EEEODaOT_NS_16in_place_index_tIXT0_EEE, symObjAddr: 0xC260, symBinAddr: 0x10000F0E8, symSize: 0x28 }
  - { offsetInCU: 0x2A093, offset: 0x2A093, size: 0x8, addend: 0x0, symName: __ZN5mpark6detail6access15recursive_union7get_altIRKNS0_15recursive_unionILNS0_5TraitE0ELm3EJN2xt14xrange_adaptorIllNS6_12placeholders5xtuphEEENS7_IlS9_S9_EENS7_IS9_lS9_EENS7_IS9_S9_lEENS7_IlllEENS7_IS9_S9_S9_EENS6_6xrangeIlEENS6_14xstepped_rangeIlEENS6_8xall_tagENS6_13xellipsis_tagENS6_12xnewaxis_tagEEEELm9EEEODaOT_NS_16in_place_index_tIXT0_EEE, symObjAddr: 0xC288, symBinAddr: 0x10000F110, symSize: 0x28 }
  - { offsetInCU: 0x2A0D4, offset: 0x2A0D4, size: 0x8, addend: 0x0, symName: __ZN5mpark6detail6access15recursive_union7get_altIRKNS0_15recursive_unionILNS0_5TraitE0ELm4EJN2xt14xrange_adaptorIlNS6_12placeholders5xtuphES9_EENS7_IS9_lS9_EENS7_IS9_S9_lEENS7_IlllEENS7_IS9_S9_S9_EENS6_6xrangeIlEENS6_14xstepped_rangeIlEENS6_8xall_tagENS6_13xellipsis_tagENS6_12xnewaxis_tagEEEELm8EEEODaOT_NS_16in_place_index_tIXT0_EEE, symObjAddr: 0xC2B0, symBinAddr: 0x10000F138, symSize: 0x28 }
  - { offsetInCU: 0x2A115, offset: 0x2A115, size: 0x8, addend: 0x0, symName: __ZN5mpark6detail6access15recursive_union7get_altIRKNS0_15recursive_unionILNS0_5TraitE0ELm5EJN2xt14xrange_adaptorINS6_12placeholders5xtuphElS9_EENS7_IS9_S9_lEENS7_IlllEENS7_IS9_S9_S9_EENS6_6xrangeIlEENS6_14xstepped_rangeIlEENS6_8xall_tagENS6_13xellipsis_tagENS6_12xnewaxis_tagEEEELm7EEEODaOT_NS_16in_place_index_tIXT0_EEE, symObjAddr: 0xC2D8, symBinAddr: 0x10000F160, symSize: 0x28 }
  - { offsetInCU: 0x2A156, offset: 0x2A156, size: 0x8, addend: 0x0, symName: __ZN5mpark6detail6access15recursive_union7get_altIRKNS0_15recursive_unionILNS0_5TraitE0ELm6EJN2xt14xrange_adaptorINS6_12placeholders5xtuphES9_lEENS7_IlllEENS7_IS9_S9_S9_EENS6_6xrangeIlEENS6_14xstepped_rangeIlEENS6_8xall_tagENS6_13xellipsis_tagENS6_12xnewaxis_tagEEEELm6EEEODaOT_NS_16in_place_index_tIXT0_EEE, symObjAddr: 0xC300, symBinAddr: 0x10000F188, symSize: 0x28 }
  - { offsetInCU: 0x2A197, offset: 0x2A197, size: 0x8, addend: 0x0, symName: __ZN5mpark6detail6access15recursive_union7get_altIRKNS0_15recursive_unionILNS0_5TraitE0ELm7EJN2xt14xrange_adaptorIlllEENS7_INS6_12placeholders5xtuphESA_SA_EENS6_6xrangeIlEENS6_14xstepped_rangeIlEENS6_8xall_tagENS6_13xellipsis_tagENS6_12xnewaxis_tagEEEELm5EEEODaOT_NS_16in_place_index_tIXT0_EEE, symObjAddr: 0xC328, symBinAddr: 0x10000F1B0, symSize: 0x28 }
  - { offsetInCU: 0x2A1D8, offset: 0x2A1D8, size: 0x8, addend: 0x0, symName: __ZN5mpark6detail6access15recursive_union7get_altIRKNS0_15recursive_unionILNS0_5TraitE0ELm8EJN2xt14xrange_adaptorINS6_12placeholders5xtuphES9_S9_EENS6_6xrangeIlEENS6_14xstepped_rangeIlEENS6_8xall_tagENS6_13xellipsis_tagENS6_12xnewaxis_tagEEEELm4EEEODaOT_NS_16in_place_index_tIXT0_EEE, symObjAddr: 0xC350, symBinAddr: 0x10000F1D8, symSize: 0x28 }
  - { offsetInCU: 0x2A219, offset: 0x2A219, size: 0x8, addend: 0x0, symName: __ZN5mpark6detail6access15recursive_union7get_altIRKNS0_15recursive_unionILNS0_5TraitE0ELm9EJN2xt6xrangeIlEENS6_14xstepped_rangeIlEENS6_8xall_tagENS6_13xellipsis_tagENS6_12xnewaxis_tagEEEELm3EEEODaOT_NS_16in_place_index_tIXT0_EEE, symObjAddr: 0xC378, symBinAddr: 0x10000F200, symSize: 0x28 }
  - { offsetInCU: 0x2A25A, offset: 0x2A25A, size: 0x8, addend: 0x0, symName: __ZN5mpark6detail6access15recursive_union7get_altIRKNS0_15recursive_unionILNS0_5TraitE0ELm10EJN2xt14xstepped_rangeIlEENS6_8xall_tagENS6_13xellipsis_tagENS6_12xnewaxis_tagEEEELm2EEEODaOT_NS_16in_place_index_tIXT0_EEE, symObjAddr: 0xC3A0, symBinAddr: 0x10000F228, symSize: 0x28 }
  - { offsetInCU: 0x2A29B, offset: 0x2A29B, size: 0x8, addend: 0x0, symName: __ZN5mpark6detail6access15recursive_union7get_altIRKNS0_15recursive_unionILNS0_5TraitE0ELm11EJN2xt8xall_tagENS6_13xellipsis_tagENS6_12xnewaxis_tagEEEELm1EEEODaOT_NS_16in_place_index_tIXT0_EEE, symObjAddr: 0xC3C8, symBinAddr: 0x10000F250, symSize: 0x28 }
  - { offsetInCU: 0x2A2DC, offset: 0x2A2DC, size: 0x8, addend: 0x0, symName: __ZN5mpark6detail6access15recursive_union7get_altIRKNS0_15recursive_unionILNS0_5TraitE0ELm12EJN2xt13xellipsis_tagENS6_12xnewaxis_tagEEEEEEODaOT_NS_16in_place_index_tILm0EEE, symObjAddr: 0xC3F0, symBinAddr: 0x10000F278, symSize: 0x24 }
  - { offsetInCU: 0x2A314, offset: 0x2A314, size: 0x8, addend: 0x0, symName: __ZN2xt7svectorImLm4ENSt3__19allocatorImEELb1EEC2ERKS4_, symObjAddr: 0xC414, symBinAddr: 0x10000F29C, symSize: 0x94 }
  - { offsetInCU: 0x2A34F, offset: 0x2A34F, size: 0x8, addend: 0x0, symName: __ZNSt3__116allocator_traitsINS_9allocatorImEEE37select_on_container_copy_constructionB8ue170006IS2_vvEES2_RKS2_, symObjAddr: 0xC4A8, symBinAddr: 0x10000F330, symSize: 0x10 }
  - { offsetInCU: 0x2A37E, offset: 0x2A37E, size: 0x8, addend: 0x0, symName: __ZNK2xt7svectorImLm4ENSt3__19allocatorImEELb1EE13get_allocatorEv, symObjAddr: 0xC4B8, symBinAddr: 0x10000F340, symSize: 0x10 }
  - { offsetInCU: 0x2A3A6, offset: 0x2A3A6, size: 0x8, addend: 0x0, symName: __ZN2xt6detail17slice_getter_implINS_7svectorImLm4ENSt3__19allocatorImEELb1EEEEC2ERKS6_, symObjAddr: 0xC4C8, symBinAddr: 0x10000F350, symSize: 0x24 }
  - { offsetInCU: 0x2A3E9, offset: 0x2A3E9, size: 0x8, addend: 0x0, symName: __ZN5mpark6detail6access7variant7get_altILm11ERKNS_7variantIJlN2xt14xrange_adaptorINS5_12placeholders5xtuphEllEENS6_IlS8_lEENS6_IllS8_EENS6_IlS8_S8_EENS6_IS8_lS8_EENS6_IS8_S8_lEENS6_IlllEENS6_IS8_S8_S8_EENS5_6xrangeIlEENS5_14xstepped_rangeIlEENS5_8xall_tagENS5_13xellipsis_tagENS5_12xnewaxis_tagEEEEEEODaOT0_, symObjAddr: 0xC5C8, symBinAddr: 0x10000F450, symSize: 0x28 }
  - { offsetInCU: 0x2A41F, offset: 0x2A41F, size: 0x8, addend: 0x0, symName: __ZN5mpark6detail6access4base7get_altILm11ERKNS0_4implIJlN2xt14xrange_adaptorINS5_12placeholders5xtuphEllEENS6_IlS8_lEENS6_IllS8_EENS6_IlS8_S8_EENS6_IS8_lS8_EENS6_IS8_S8_lEENS6_IlllEENS6_IS8_S8_S8_EENS5_6xrangeIlEENS5_14xstepped_rangeIlEENS5_8xall_tagENS5_13xellipsis_tagENS5_12xnewaxis_tagEEEEEEODaOT0_, symObjAddr: 0xC5F0, symBinAddr: 0x10000F478, symSize: 0x2C }
  - { offsetInCU: 0x2A455, offset: 0x2A455, size: 0x8, addend: 0x0, symName: __ZN5mpark6detail6access15recursive_union7get_altIRKNS0_15recursive_unionILNS0_5TraitE0ELm0EJlN2xt14xrange_adaptorINS6_12placeholders5xtuphEllEENS7_IlS9_lEENS7_IllS9_EENS7_IlS9_S9_EENS7_IS9_lS9_EENS7_IS9_S9_lEENS7_IlllEENS7_IS9_S9_S9_EENS6_6xrangeIlEENS6_14xstepped_rangeIlEENS6_8xall_tagENS6_13xellipsis_tagENS6_12xnewaxis_tagEEEELm11EEEODaOT_NS_16in_place_index_tIXT0_EEE, symObjAddr: 0xC61C, symBinAddr: 0x10000F4A4, symSize: 0x28 }
  - { offsetInCU: 0x2A496, offset: 0x2A496, size: 0x8, addend: 0x0, symName: __ZN5mpark6detail6access15recursive_union7get_altIRKNS0_15recursive_unionILNS0_5TraitE0ELm1EJN2xt14xrange_adaptorINS6_12placeholders5xtuphEllEENS7_IlS9_lEENS7_IllS9_EENS7_IlS9_S9_EENS7_IS9_lS9_EENS7_IS9_S9_lEENS7_IlllEENS7_IS9_S9_S9_EENS6_6xrangeIlEENS6_14xstepped_rangeIlEENS6_8xall_tagENS6_13xellipsis_tagENS6_12xnewaxis_tagEEEELm10EEEODaOT_NS_16in_place_index_tIXT0_EEE, symObjAddr: 0xC644, symBinAddr: 0x10000F4CC, symSize: 0x28 }
  - { offsetInCU: 0x2A4D7, offset: 0x2A4D7, size: 0x8, addend: 0x0, symName: __ZN5mpark6detail6access15recursive_union7get_altIRKNS0_15recursive_unionILNS0_5TraitE0ELm2EJN2xt14xrange_adaptorIlNS6_12placeholders5xtuphElEENS7_IllS9_EENS7_IlS9_S9_EENS7_IS9_lS9_EENS7_IS9_S9_lEENS7_IlllEENS7_IS9_S9_S9_EENS6_6xrangeIlEENS6_14xstepped_rangeIlEENS6_8xall_tagENS6_13xellipsis_tagENS6_12xnewaxis_tagEEEELm9EEEODaOT_NS_16in_place_index_tIXT0_EEE, symObjAddr: 0xC66C, symBinAddr: 0x10000F4F4, symSize: 0x28 }
  - { offsetInCU: 0x2A518, offset: 0x2A518, size: 0x8, addend: 0x0, symName: __ZN5mpark6detail6access15recursive_union7get_altIRKNS0_15recursive_unionILNS0_5TraitE0ELm3EJN2xt14xrange_adaptorIllNS6_12placeholders5xtuphEEENS7_IlS9_S9_EENS7_IS9_lS9_EENS7_IS9_S9_lEENS7_IlllEENS7_IS9_S9_S9_EENS6_6xrangeIlEENS6_14xstepped_rangeIlEENS6_8xall_tagENS6_13xellipsis_tagENS6_12xnewaxis_tagEEEELm8EEEODaOT_NS_16in_place_index_tIXT0_EEE, symObjAddr: 0xC694, symBinAddr: 0x10000F51C, symSize: 0x28 }
  - { offsetInCU: 0x2A559, offset: 0x2A559, size: 0x8, addend: 0x0, symName: __ZN5mpark6detail6access15recursive_union7get_altIRKNS0_15recursive_unionILNS0_5TraitE0ELm4EJN2xt14xrange_adaptorIlNS6_12placeholders5xtuphES9_EENS7_IS9_lS9_EENS7_IS9_S9_lEENS7_IlllEENS7_IS9_S9_S9_EENS6_6xrangeIlEENS6_14xstepped_rangeIlEENS6_8xall_tagENS6_13xellipsis_tagENS6_12xnewaxis_tagEEEELm7EEEODaOT_NS_16in_place_index_tIXT0_EEE, symObjAddr: 0xC6BC, symBinAddr: 0x10000F544, symSize: 0x28 }
  - { offsetInCU: 0x2A59A, offset: 0x2A59A, size: 0x8, addend: 0x0, symName: __ZN5mpark6detail6access15recursive_union7get_altIRKNS0_15recursive_unionILNS0_5TraitE0ELm5EJN2xt14xrange_adaptorINS6_12placeholders5xtuphElS9_EENS7_IS9_S9_lEENS7_IlllEENS7_IS9_S9_S9_EENS6_6xrangeIlEENS6_14xstepped_rangeIlEENS6_8xall_tagENS6_13xellipsis_tagENS6_12xnewaxis_tagEEEELm6EEEODaOT_NS_16in_place_index_tIXT0_EEE, symObjAddr: 0xC6E4, symBinAddr: 0x10000F56C, symSize: 0x28 }
  - { offsetInCU: 0x2A5DB, offset: 0x2A5DB, size: 0x8, addend: 0x0, symName: __ZN5mpark6detail6access15recursive_union7get_altIRKNS0_15recursive_unionILNS0_5TraitE0ELm6EJN2xt14xrange_adaptorINS6_12placeholders5xtuphES9_lEENS7_IlllEENS7_IS9_S9_S9_EENS6_6xrangeIlEENS6_14xstepped_rangeIlEENS6_8xall_tagENS6_13xellipsis_tagENS6_12xnewaxis_tagEEEELm5EEEODaOT_NS_16in_place_index_tIXT0_EEE, symObjAddr: 0xC70C, symBinAddr: 0x10000F594, symSize: 0x28 }
  - { offsetInCU: 0x2A61C, offset: 0x2A61C, size: 0x8, addend: 0x0, symName: __ZN5mpark6detail6access15recursive_union7get_altIRKNS0_15recursive_unionILNS0_5TraitE0ELm7EJN2xt14xrange_adaptorIlllEENS7_INS6_12placeholders5xtuphESA_SA_EENS6_6xrangeIlEENS6_14xstepped_rangeIlEENS6_8xall_tagENS6_13xellipsis_tagENS6_12xnewaxis_tagEEEELm4EEEODaOT_NS_16in_place_index_tIXT0_EEE, symObjAddr: 0xC734, symBinAddr: 0x10000F5BC, symSize: 0x28 }
  - { offsetInCU: 0x2A65D, offset: 0x2A65D, size: 0x8, addend: 0x0, symName: __ZN5mpark6detail6access15recursive_union7get_altIRKNS0_15recursive_unionILNS0_5TraitE0ELm8EJN2xt14xrange_adaptorINS6_12placeholders5xtuphES9_S9_EENS6_6xrangeIlEENS6_14xstepped_rangeIlEENS6_8xall_tagENS6_13xellipsis_tagENS6_12xnewaxis_tagEEEELm3EEEODaOT_NS_16in_place_index_tIXT0_EEE, symObjAddr: 0xC75C, symBinAddr: 0x10000F5E4, symSize: 0x28 }
  - { offsetInCU: 0x2A69E, offset: 0x2A69E, size: 0x8, addend: 0x0, symName: __ZN5mpark6detail6access15recursive_union7get_altIRKNS0_15recursive_unionILNS0_5TraitE0ELm9EJN2xt6xrangeIlEENS6_14xstepped_rangeIlEENS6_8xall_tagENS6_13xellipsis_tagENS6_12xnewaxis_tagEEEELm2EEEODaOT_NS_16in_place_index_tIXT0_EEE, symObjAddr: 0xC784, symBinAddr: 0x10000F60C, symSize: 0x28 }
  - { offsetInCU: 0x2A6DF, offset: 0x2A6DF, size: 0x8, addend: 0x0, symName: __ZN5mpark6detail6access15recursive_union7get_altIRKNS0_15recursive_unionILNS0_5TraitE0ELm10EJN2xt14xstepped_rangeIlEENS6_8xall_tagENS6_13xellipsis_tagENS6_12xnewaxis_tagEEEELm1EEEODaOT_NS_16in_place_index_tIXT0_EEE, symObjAddr: 0xC7AC, symBinAddr: 0x10000F634, symSize: 0x28 }
  - { offsetInCU: 0x2A720, offset: 0x2A720, size: 0x8, addend: 0x0, symName: __ZN5mpark6detail6access15recursive_union7get_altIRKNS0_15recursive_unionILNS0_5TraitE0ELm11EJN2xt8xall_tagENS6_13xellipsis_tagENS6_12xnewaxis_tagEEEEEEODaOT_NS_16in_place_index_tILm0EEE, symObjAddr: 0xC7D4, symBinAddr: 0x10000F65C, symSize: 0x24 }
  - { offsetInCU: 0x2A758, offset: 0x2A758, size: 0x8, addend: 0x0, symName: __ZNK5mpark7variantIJlN2xt14xrange_adaptorINS1_12placeholders5xtuphEllEENS2_IlS4_lEENS2_IllS4_EENS2_IlS4_S4_EENS2_IS4_lS4_EENS2_IS4_S4_lEENS2_IlllEENS2_IS4_S4_S4_EENS1_6xrangeIlEENS1_14xstepped_rangeIlEENS1_8xall_tagENS1_13xellipsis_tagENS1_12xnewaxis_tagEEE22valueless_by_exceptionEv, symObjAddr: 0xC8B8, symBinAddr: 0x10000F740, symSize: 0x28 }
  - { offsetInCU: 0x2A77D, offset: 0x2A77D, size: 0x8, addend: 0x0, symName: __ZN5mpark6detail10visitation7variant11visit_valueIRN2xt6detail17slice_getter_implINS4_7svectorImLm4ENSt3__19allocatorImEELb1EEEEEJRKNS_7variantIJlNS4_14xrange_adaptorINS4_12placeholders5xtuphEllEENSF_IlSH_lEENSF_IllSH_EENSF_IlSH_SH_EENSF_ISH_lSH_EENSF_ISH_SH_lEENSF_IlllEENSF_ISH_SH_SH_EENS4_6xrangeIlEENS4_14xstepped_rangeIlEENS4_8xall_tagENS4_13xellipsis_tagENS4_12xnewaxis_tagEEEEEEEDcOT_DpOT0_, symObjAddr: 0xC918, symBinAddr: 0x10000F7A0, symSize: 0x54 }
  - { offsetInCU: 0x2A7D8, offset: 0x2A7D8, size: 0x8, addend: 0x0, symName: __ZNKSt16initializer_listIbE5beginB8ue170006Ev, symObjAddr: 0xC980, symBinAddr: 0x10000F808, symSize: 0x18 }
  - { offsetInCU: 0x2A7FE, offset: 0x2A7FE, size: 0x8, addend: 0x0, symName: __ZNKSt16initializer_listIbE3endB8ue170006Ev, symObjAddr: 0xC998, symBinAddr: 0x10000F820, symSize: 0x20 }
  - { offsetInCU: 0x2A829, offset: 0x2A829, size: 0x8, addend: 0x0, symName: __ZN5mpark18bad_variant_accessC1Ev, symObjAddr: 0xC9B8, symBinAddr: 0x10000F840, symSize: 0x2C }
  - { offsetInCU: 0x2A856, offset: 0x2A856, size: 0x8, addend: 0x0, symName: __ZN5mpark18bad_variant_accessD1Ev, symObjAddr: 0xC9E4, symBinAddr: 0x10000F86C, symSize: 0x2C }
  - { offsetInCU: 0x2A883, offset: 0x2A883, size: 0x8, addend: 0x0, symName: __ZN5mpark18bad_variant_accessC2Ev, symObjAddr: 0xCA10, symBinAddr: 0x10000F898, symSize: 0x44 }
  - { offsetInCU: 0x2A8B0, offset: 0x2A8B0, size: 0x8, addend: 0x0, symName: __ZNSt9exceptionC2B8ue170006Ev, symObjAddr: 0xCA54, symBinAddr: 0x10000F8DC, symSize: 0x24 }
  - { offsetInCU: 0x2A8DA, offset: 0x2A8DA, size: 0x8, addend: 0x0, symName: __ZN5mpark18bad_variant_accessD0Ev, symObjAddr: 0xCA78, symBinAddr: 0x10000F900, symSize: 0x30 }
  - { offsetInCU: 0x2A907, offset: 0x2A907, size: 0x8, addend: 0x0, symName: __ZNK5mpark18bad_variant_access4whatEv, symObjAddr: 0xCAA8, symBinAddr: 0x10000F930, symSize: 0x18 }
  - { offsetInCU: 0x2A92D, offset: 0x2A92D, size: 0x8, addend: 0x0, symName: __ZN5mpark18bad_variant_accessD2Ev, symObjAddr: 0xCAC0, symBinAddr: 0x10000F948, symSize: 0x2C }
  - { offsetInCU: 0x2A95F, offset: 0x2A95F, size: 0x8, addend: 0x0, symName: __ZN5mpark6detail10visitation7variant9visit_altINS2_13value_visitorIRN2xt6detail17slice_getter_implINS5_7svectorImLm4ENSt3__19allocatorImEELb1EEEEEEEJRKNS_7variantIJlNS5_14xrange_adaptorINS5_12placeholders5xtuphEllEENSH_IlSJ_lEENSH_IllSJ_EENSH_IlSJ_SJ_EENSH_ISJ_lSJ_EENSH_ISJ_SJ_lEENSH_IlllEENSH_ISJ_SJ_SJ_EENS5_6xrangeIlEENS5_14xstepped_rangeIlEENS5_8xall_tagENS5_13xellipsis_tagENS5_12xnewaxis_tagEEEEEEEDcOT_DpOT0_, symObjAddr: 0xCAEC, symBinAddr: 0x10000F974, symSize: 0x48 }
  - { offsetInCU: 0x2A9A5, offset: 0x2A9A5, size: 0x8, addend: 0x0, symName: __ZN5mpark6detail10visitation7variant18make_value_visitorIRN2xt6detail17slice_getter_implINS4_7svectorImLm4ENSt3__19allocatorImEELb1EEEEEEEDaOT_, symObjAddr: 0xCB34, symBinAddr: 0x10000F9BC, symSize: 0x2C }
  - { offsetInCU: 0x2B1FC, offset: 0x2B1FC, size: 0x8, addend: 0x0, symName: __ZN5mpark6detail10visitation3alt9visit_altINS1_7variant13value_visitorIRN2xt6detail17slice_getter_implINS6_7svectorImLm4ENSt3__19allocatorImEELb1EEEEEEEJRKNS0_4implIJlNS6_14xrange_adaptorINS6_12placeholders5xtuphEllEENSI_IlSK_lEENSI_IllSK_EENSI_IlSK_SK_EENSI_ISK_lSK_EENSI_ISK_SK_lEENSI_IlllEENSI_ISK_SK_SK_EENS6_6xrangeIlEENS6_14xstepped_rangeIlEENS6_8xall_tagENS6_13xellipsis_tagENS6_12xnewaxis_tagEEEEEEEDcOT_DpOT0_, symObjAddr: 0xCB60, symBinAddr: 0x10000F9E8, symSize: 0x75C }
  - { offsetInCU: 0x2B7F4, offset: 0x2B7F4, size: 0x8, addend: 0x0, symName: __ZN5mpark6detail10visitation4base23visit_return_type_checkINSt3__15arrayIlLm3EEES6_E6invokeINS1_7variant13value_visitorIRN2xt6detail17slice_getter_implINSB_7svectorImLm4ENS4_9allocatorImEELb1EEEEEEEJRKNS0_3altILm0ElEEEEEDcOT_DpOT0_, symObjAddr: 0xD378, symBinAddr: 0x100010200, symSize: 0x48 }
  - { offsetInCU: 0x2B83A, offset: 0x2B83A, size: 0x8, addend: 0x0, symName: __ZN5mpark6detail6access4base7get_altILm0ERKNS0_4baseILNS0_5TraitE0EJlN2xt14xrange_adaptorINS6_12placeholders5xtuphEllEENS7_IlS9_lEENS7_IllS9_EENS7_IlS9_S9_EENS7_IS9_lS9_EENS7_IS9_S9_lEENS7_IlllEENS7_IS9_S9_S9_EENS6_6xrangeIlEENS6_14xstepped_rangeIlEENS6_8xall_tagENS6_13xellipsis_tagENS6_12xnewaxis_tagEEEEEEODaOT0_, symObjAddr: 0xD3C0, symBinAddr: 0x100010248, symSize: 0x2C }
  - { offsetInCU: 0x2B87B, offset: 0x2B87B, size: 0x8, addend: 0x0, symName: __ZNK5mpark6detail10visitation7variant13value_visitorIRN2xt6detail17slice_getter_implINS4_7svectorImLm4ENSt3__19allocatorImEELb1EEEEEEclIJRKNS0_3altILm0ElEEEEEDcDpOT_, symObjAddr: 0xD490, symBinAddr: 0x100010318, symSize: 0x4C }
  - { offsetInCU: 0x2B8BA, offset: 0x2B8BA, size: 0x8, addend: 0x0, symName: __ZN5mpark6detail10visitation7variant26visit_exhaustiveness_checkIRN2xt6detail17slice_getter_implINS4_7svectorImLm4ENSt3__19allocatorImEELb1EEEEEJRKlEE6invokeESD_SF_, symObjAddr: 0xD4DC, symBinAddr: 0x100010364, symSize: 0x48 }
  - { offsetInCU: 0x2B8F7, offset: 0x2B8F7, size: 0x8, addend: 0x0, symName: __ZNK2xt6detail17slice_getter_implINS_7svectorImLm4ENSt3__19allocatorImEELb1EEEEclIlEENS3_5arrayIlLm3EEERKT_, symObjAddr: 0xD5C8, symBinAddr: 0x100010450, symSize: 0x3C }
  - { offsetInCU: 0x2B93B, offset: 0x2B93B, size: 0x8, addend: 0x0, symName: __ZN5mpark6detail10visitation4base23visit_return_type_checkINSt3__15arrayIlLm3EEES6_E6invokeINS1_7variant13value_visitorIRN2xt6detail17slice_getter_implINSB_7svectorImLm4ENS4_9allocatorImEELb1EEEEEEEJRKNS0_3altILm1ENSB_14xrange_adaptorINSB_12placeholders5xtuphEllEEEEEEEDcOT_DpOT0_, symObjAddr: 0xD604, symBinAddr: 0x10001048C, symSize: 0x48 }
  - { offsetInCU: 0x2B981, offset: 0x2B981, size: 0x8, addend: 0x0, symName: __ZN5mpark6detail6access4base7get_altILm1ERKNS0_4baseILNS0_5TraitE0EJlN2xt14xrange_adaptorINS6_12placeholders5xtuphEllEENS7_IlS9_lEENS7_IllS9_EENS7_IlS9_S9_EENS7_IS9_lS9_EENS7_IS9_S9_lEENS7_IlllEENS7_IS9_S9_S9_EENS6_6xrangeIlEENS6_14xstepped_rangeIlEENS6_8xall_tagENS6_13xellipsis_tagENS6_12xnewaxis_tagEEEEEEODaOT0_, symObjAddr: 0xD64C, symBinAddr: 0x1000104D4, symSize: 0x2C }
  - { offsetInCU: 0x2B9B8, offset: 0x2B9B8, size: 0x8, addend: 0x0, symName: __ZNK5mpark6detail10visitation7variant13value_visitorIRN2xt6detail17slice_getter_implINS4_7svectorImLm4ENSt3__19allocatorImEELb1EEEEEEclIJRKNS0_3altILm1ENS4_14xrange_adaptorINS4_12placeholders5xtuphEllEEEEEEEDcDpOT_, symObjAddr: 0xD71C, symBinAddr: 0x1000105A4, symSize: 0x4C }
  - { offsetInCU: 0x2B9FD, offset: 0x2B9FD, size: 0x8, addend: 0x0, symName: __ZN5mpark6detail10visitation7variant26visit_exhaustiveness_checkIRN2xt6detail17slice_getter_implINS4_7svectorImLm4ENSt3__19allocatorImEELb1EEEEEJRKNS4_14xrange_adaptorINS4_12placeholders5xtuphEllEEEE6invokeESD_SJ_, symObjAddr: 0xD768, symBinAddr: 0x1000105F0, symSize: 0x48 }
  - { offsetInCU: 0x2BA30, offset: 0x2BA30, size: 0x8, addend: 0x0, symName: __ZNK2xt6detail17slice_getter_implINS_7svectorImLm4ENSt3__19allocatorImEELb1EEEEclINS_12placeholders5xtuphEllEENS3_5arrayIlLm3EEERKNS_14xrange_adaptorIT_T0_T1_EE, symObjAddr: 0xD854, symBinAddr: 0x1000106DC, symSize: 0x90 }
  - { offsetInCU: 0x2BA8F, offset: 0x2BA8F, size: 0x8, addend: 0x0, symName: __ZNK2xt14xrange_adaptorINS_12placeholders5xtuphEllE3getIS2_llEENSt3__19enable_ifIXaaaantsr3xtl11is_integralIT_EE5valuesr3xtl11is_integralIT0_EE5valuesr3xtl11is_integralIT1_EE5valueENS_14xstepped_rangeIlEEE4typeEm, symObjAddr: 0xD8E4, symBinAddr: 0x10001076C, symSize: 0x78 }
  - { offsetInCU: 0x2BADF, offset: 0x2BADF, size: 0x8, addend: 0x0, symName: __ZNK2xt14xstepped_rangeIlEclEl, symObjAddr: 0xD95C, symBinAddr: 0x1000107E4, symSize: 0x2C }
  - { offsetInCU: 0x2BB15, offset: 0x2BB15, size: 0x8, addend: 0x0, symName: __ZNK2xt14xstepped_rangeIlE4sizeEv, symObjAddr: 0xD988, symBinAddr: 0x100010810, symSize: 0x18 }
  - { offsetInCU: 0x2BB3D, offset: 0x2BB3D, size: 0x8, addend: 0x0, symName: __ZNK2xt14xstepped_rangeIlE9step_sizeEv, symObjAddr: 0xD9A0, symBinAddr: 0x100010828, symSize: 0x18 }
  - { offsetInCU: 0x2BB64, offset: 0x2BB64, size: 0x8, addend: 0x0, symName: __ZN2xt14xrange_adaptorINS_12placeholders5xtuphEllE17get_stepped_rangeElllm, symObjAddr: 0xD9B8, symBinAddr: 0x100010840, symSize: 0x1B8 }
  - { offsetInCU: 0x2BBC4, offset: 0x2BBC4, size: 0x8, addend: 0x0, symName: __ZN2xt14xstepped_rangeIlEC1Elll, symObjAddr: 0xDBC8, symBinAddr: 0x100010A50, symSize: 0x44 }
  - { offsetInCU: 0x2BC1A, offset: 0x2BC1A, size: 0x8, addend: 0x0, symName: __ZNKSt3__16__lessIvvEclB8ue170006IllEEbRKT_RKT0_, symObjAddr: 0xDC60, symBinAddr: 0x100010AE8, symSize: 0x34 }
  - { offsetInCU: 0x2BC6E, offset: 0x2BC6E, size: 0x8, addend: 0x0, symName: __ZN2xt14xstepped_rangeIlEC2Elll, symObjAddr: 0xDCE8, symBinAddr: 0x100010B70, symSize: 0xDC }
  - { offsetInCU: 0x2BCE1, offset: 0x2BCE1, size: 0x8, addend: 0x0, symName: __ZN5mpark6detail6access15recursive_union7get_altIRKNS0_15recursive_unionILNS0_5TraitE0ELm0EJlN2xt14xrange_adaptorINS6_12placeholders5xtuphEllEENS7_IlS9_lEENS7_IllS9_EENS7_IlS9_S9_EENS7_IS9_lS9_EENS7_IS9_S9_lEENS7_IlllEENS7_IS9_S9_S9_EENS6_6xrangeIlEENS6_14xstepped_rangeIlEENS6_8xall_tagENS6_13xellipsis_tagENS6_12xnewaxis_tagEEEELm1EEEODaOT_NS_16in_place_index_tIXT0_EEE, symObjAddr: 0xDDC4, symBinAddr: 0x100010C4C, symSize: 0x28 }
  - { offsetInCU: 0x2BD22, offset: 0x2BD22, size: 0x8, addend: 0x0, symName: __ZN5mpark6detail6access15recursive_union7get_altIRKNS0_15recursive_unionILNS0_5TraitE0ELm1EJN2xt14xrange_adaptorINS6_12placeholders5xtuphEllEENS7_IlS9_lEENS7_IllS9_EENS7_IlS9_S9_EENS7_IS9_lS9_EENS7_IS9_S9_lEENS7_IlllEENS7_IS9_S9_S9_EENS6_6xrangeIlEENS6_14xstepped_rangeIlEENS6_8xall_tagENS6_13xellipsis_tagENS6_12xnewaxis_tagEEEEEEODaOT_NS_16in_place_index_tILm0EEE, symObjAddr: 0xDDEC, symBinAddr: 0x100010C74, symSize: 0x24 }
  - { offsetInCU: 0x2BD64, offset: 0x2BD64, size: 0x8, addend: 0x0, symName: __ZN5mpark6detail10visitation4base23visit_return_type_checkINSt3__15arrayIlLm3EEES6_E6invokeINS1_7variant13value_visitorIRN2xt6detail17slice_getter_implINSB_7svectorImLm4ENS4_9allocatorImEELb1EEEEEEEJRKNS0_3altILm2ENSB_14xrange_adaptorIlNSB_12placeholders5xtuphElEEEEEEEDcOT_DpOT0_, symObjAddr: 0xDE10, symBinAddr: 0x100010C98, symSize: 0x48 }
  - { offsetInCU: 0x2BDAA, offset: 0x2BDAA, size: 0x8, addend: 0x0, symName: __ZN5mpark6detail6access4base7get_altILm2ERKNS0_4baseILNS0_5TraitE0EJlN2xt14xrange_adaptorINS6_12placeholders5xtuphEllEENS7_IlS9_lEENS7_IllS9_EENS7_IlS9_S9_EENS7_IS9_lS9_EENS7_IS9_S9_lEENS7_IlllEENS7_IS9_S9_S9_EENS6_6xrangeIlEENS6_14xstepped_rangeIlEENS6_8xall_tagENS6_13xellipsis_tagENS6_12xnewaxis_tagEEEEEEODaOT0_, symObjAddr: 0xDE58, symBinAddr: 0x100010CE0, symSize: 0x2C }
  - { offsetInCU: 0x2BDE1, offset: 0x2BDE1, size: 0x8, addend: 0x0, symName: __ZNK5mpark6detail10visitation7variant13value_visitorIRN2xt6detail17slice_getter_implINS4_7svectorImLm4ENSt3__19allocatorImEELb1EEEEEEclIJRKNS0_3altILm2ENS4_14xrange_adaptorIlNS4_12placeholders5xtuphElEEEEEEEDcDpOT_, symObjAddr: 0xDF28, symBinAddr: 0x100010DB0, symSize: 0x4C }
  - { offsetInCU: 0x2BE26, offset: 0x2BE26, size: 0x8, addend: 0x0, symName: __ZN5mpark6detail10visitation7variant26visit_exhaustiveness_checkIRN2xt6detail17slice_getter_implINS4_7svectorImLm4ENSt3__19allocatorImEELb1EEEEEJRKNS4_14xrange_adaptorIlNS4_12placeholders5xtuphElEEEE6invokeESD_SJ_, symObjAddr: 0xDF74, symBinAddr: 0x100010DFC, symSize: 0x48 }
  - { offsetInCU: 0x2BE59, offset: 0x2BE59, size: 0x8, addend: 0x0, symName: __ZNK2xt6detail17slice_getter_implINS_7svectorImLm4ENSt3__19allocatorImEELb1EEEEclIlNS_12placeholders5xtuphElEENS3_5arrayIlLm3EEERKNS_14xrange_adaptorIT_T0_T1_EE, symObjAddr: 0xE060, symBinAddr: 0x100010EE8, symSize: 0x90 }
  - { offsetInCU: 0x2BEB8, offset: 0x2BEB8, size: 0x8, addend: 0x0, symName: __ZNK2xt14xrange_adaptorIlNS_12placeholders5xtuphElE3getIlS2_lEENSt3__19enable_ifIXaaaasr3xtl11is_integralIT_EE5valuentsr3xtl11is_integralIT0_EE5valuesr3xtl11is_integralIT1_EE5valueENS_14xstepped_rangeIlEEE4typeEm, symObjAddr: 0xE0F0, symBinAddr: 0x100010F78, symSize: 0x90 }
  - { offsetInCU: 0x2BF16, offset: 0x2BF16, size: 0x8, addend: 0x0, symName: __ZN2xt14xrange_adaptorIlNS_12placeholders5xtuphElE17get_stepped_rangeElllm, symObjAddr: 0xE180, symBinAddr: 0x100011008, symSize: 0x1B8 }
  - { offsetInCU: 0x2BF75, offset: 0x2BF75, size: 0x8, addend: 0x0, symName: __ZN5mpark6detail6access15recursive_union7get_altIRKNS0_15recursive_unionILNS0_5TraitE0ELm0EJlN2xt14xrange_adaptorINS6_12placeholders5xtuphEllEENS7_IlS9_lEENS7_IllS9_EENS7_IlS9_S9_EENS7_IS9_lS9_EENS7_IS9_S9_lEENS7_IlllEENS7_IS9_S9_S9_EENS6_6xrangeIlEENS6_14xstepped_rangeIlEENS6_8xall_tagENS6_13xellipsis_tagENS6_12xnewaxis_tagEEEELm2EEEODaOT_NS_16in_place_index_tIXT0_EEE, symObjAddr: 0xE338, symBinAddr: 0x1000111C0, symSize: 0x28 }
  - { offsetInCU: 0x2BFB6, offset: 0x2BFB6, size: 0x8, addend: 0x0, symName: __ZN5mpark6detail6access15recursive_union7get_altIRKNS0_15recursive_unionILNS0_5TraitE0ELm1EJN2xt14xrange_adaptorINS6_12placeholders5xtuphEllEENS7_IlS9_lEENS7_IllS9_EENS7_IlS9_S9_EENS7_IS9_lS9_EENS7_IS9_S9_lEENS7_IlllEENS7_IS9_S9_S9_EENS6_6xrangeIlEENS6_14xstepped_rangeIlEENS6_8xall_tagENS6_13xellipsis_tagENS6_12xnewaxis_tagEEEELm1EEEODaOT_NS_16in_place_index_tIXT0_EEE, symObjAddr: 0xE360, symBinAddr: 0x1000111E8, symSize: 0x28 }
  - { offsetInCU: 0x2BFF7, offset: 0x2BFF7, size: 0x8, addend: 0x0, symName: __ZN5mpark6detail6access15recursive_union7get_altIRKNS0_15recursive_unionILNS0_5TraitE0ELm2EJN2xt14xrange_adaptorIlNS6_12placeholders5xtuphElEENS7_IllS9_EENS7_IlS9_S9_EENS7_IS9_lS9_EENS7_IS9_S9_lEENS7_IlllEENS7_IS9_S9_S9_EENS6_6xrangeIlEENS6_14xstepped_rangeIlEENS6_8xall_tagENS6_13xellipsis_tagENS6_12xnewaxis_tagEEEEEEODaOT_NS_16in_place_index_tILm0EEE, symObjAddr: 0xE388, symBinAddr: 0x100011210, symSize: 0x24 }
  - { offsetInCU: 0x2C039, offset: 0x2C039, size: 0x8, addend: 0x0, symName: __ZN5mpark6detail10visitation4base23visit_return_type_checkINSt3__15arrayIlLm3EEES6_E6invokeINS1_7variant13value_visitorIRN2xt6detail17slice_getter_implINSB_7svectorImLm4ENS4_9allocatorImEELb1EEEEEEEJRKNS0_3altILm3ENSB_14xrange_adaptorIllNSB_12placeholders5xtuphEEEEEEEEDcOT_DpOT0_, symObjAddr: 0xE3AC, symBinAddr: 0x100011234, symSize: 0x48 }
  - { offsetInCU: 0x2C07F, offset: 0x2C07F, size: 0x8, addend: 0x0, symName: __ZN5mpark6detail6access4base7get_altILm3ERKNS0_4baseILNS0_5TraitE0EJlN2xt14xrange_adaptorINS6_12placeholders5xtuphEllEENS7_IlS9_lEENS7_IllS9_EENS7_IlS9_S9_EENS7_IS9_lS9_EENS7_IS9_S9_lEENS7_IlllEENS7_IS9_S9_S9_EENS6_6xrangeIlEENS6_14xstepped_rangeIlEENS6_8xall_tagENS6_13xellipsis_tagENS6_12xnewaxis_tagEEEEEEODaOT0_, symObjAddr: 0xE3F4, symBinAddr: 0x10001127C, symSize: 0x2C }
  - { offsetInCU: 0x2C0B6, offset: 0x2C0B6, size: 0x8, addend: 0x0, symName: __ZNK5mpark6detail10visitation7variant13value_visitorIRN2xt6detail17slice_getter_implINS4_7svectorImLm4ENSt3__19allocatorImEELb1EEEEEEclIJRKNS0_3altILm3ENS4_14xrange_adaptorIllNS4_12placeholders5xtuphEEEEEEEEDcDpOT_, symObjAddr: 0xE4C4, symBinAddr: 0x10001134C, symSize: 0x4C }
  - { offsetInCU: 0x2C0FB, offset: 0x2C0FB, size: 0x8, addend: 0x0, symName: __ZN5mpark6detail10visitation7variant26visit_exhaustiveness_checkIRN2xt6detail17slice_getter_implINS4_7svectorImLm4ENSt3__19allocatorImEELb1EEEEEJRKNS4_14xrange_adaptorIllNS4_12placeholders5xtuphEEEEE6invokeESD_SJ_, symObjAddr: 0xE510, symBinAddr: 0x100011398, symSize: 0x48 }
  - { offsetInCU: 0x2C12E, offset: 0x2C12E, size: 0x8, addend: 0x0, symName: __ZNK2xt6detail17slice_getter_implINS_7svectorImLm4ENSt3__19allocatorImEELb1EEEEclIllNS_12placeholders5xtuphEEENS3_5arrayIlLm3EEERKNS_14xrange_adaptorIT_T0_T1_EE, symObjAddr: 0xE5FC, symBinAddr: 0x100011484, symSize: 0x98 }
  - { offsetInCU: 0x2C18D, offset: 0x2C18D, size: 0x8, addend: 0x0, symName: __ZNK2xt14xrange_adaptorIllNS_12placeholders5xtuphEE3getIllS2_EENSt3__19enable_ifIXaaaasr3xtl11is_integralIT_EE5valuesr3xtl11is_integralIT0_EE5valuentsr3xtl11is_integralIT1_EE5valueENS_6xrangeIlEEE4typeEm, symObjAddr: 0xE694, symBinAddr: 0x10001151C, symSize: 0x60 }
  - { offsetInCU: 0x2C1DD, offset: 0x2C1DD, size: 0x8, addend: 0x0, symName: __ZNK2xt6xrangeIlEclEl, symObjAddr: 0xE6F4, symBinAddr: 0x10001157C, symSize: 0x24 }
  - { offsetInCU: 0x2C213, offset: 0x2C213, size: 0x8, addend: 0x0, symName: __ZNK2xt6xrangeIlE4sizeEv, symObjAddr: 0xE718, symBinAddr: 0x1000115A0, symSize: 0x18 }
  - { offsetInCU: 0x2C23B, offset: 0x2C23B, size: 0x8, addend: 0x0, symName: __ZNK2xt6xrangeIlE9step_sizeEv, symObjAddr: 0xE730, symBinAddr: 0x1000115B8, symSize: 0x14 }
  - { offsetInCU: 0x2C262, offset: 0x2C262, size: 0x8, addend: 0x0, symName: __ZN2xt14xrange_adaptorIllNS_12placeholders5xtuphEE9normalizeElm, symObjAddr: 0xE744, symBinAddr: 0x1000115CC, symSize: 0x8C }
  - { offsetInCU: 0x2C2A4, offset: 0x2C2A4, size: 0x8, addend: 0x0, symName: __ZN2xt6xrangeIlEC1Ell, symObjAddr: 0xE7D0, symBinAddr: 0x100011658, symSize: 0x3C }
  - { offsetInCU: 0x2C2EC, offset: 0x2C2EC, size: 0x8, addend: 0x0, symName: __ZN2xt6xrangeIlEC2Ell, symObjAddr: 0xE80C, symBinAddr: 0x100011694, symSize: 0x78 }
  - { offsetInCU: 0x2C333, offset: 0x2C333, size: 0x8, addend: 0x0, symName: __ZN5mpark6detail6access15recursive_union7get_altIRKNS0_15recursive_unionILNS0_5TraitE0ELm0EJlN2xt14xrange_adaptorINS6_12placeholders5xtuphEllEENS7_IlS9_lEENS7_IllS9_EENS7_IlS9_S9_EENS7_IS9_lS9_EENS7_IS9_S9_lEENS7_IlllEENS7_IS9_S9_S9_EENS6_6xrangeIlEENS6_14xstepped_rangeIlEENS6_8xall_tagENS6_13xellipsis_tagENS6_12xnewaxis_tagEEEELm3EEEODaOT_NS_16in_place_index_tIXT0_EEE, symObjAddr: 0xE884, symBinAddr: 0x10001170C, symSize: 0x28 }
  - { offsetInCU: 0x2C374, offset: 0x2C374, size: 0x8, addend: 0x0, symName: __ZN5mpark6detail6access15recursive_union7get_altIRKNS0_15recursive_unionILNS0_5TraitE0ELm1EJN2xt14xrange_adaptorINS6_12placeholders5xtuphEllEENS7_IlS9_lEENS7_IllS9_EENS7_IlS9_S9_EENS7_IS9_lS9_EENS7_IS9_S9_lEENS7_IlllEENS7_IS9_S9_S9_EENS6_6xrangeIlEENS6_14xstepped_rangeIlEENS6_8xall_tagENS6_13xellipsis_tagENS6_12xnewaxis_tagEEEELm2EEEODaOT_NS_16in_place_index_tIXT0_EEE, symObjAddr: 0xE8AC, symBinAddr: 0x100011734, symSize: 0x28 }
  - { offsetInCU: 0x2C3B5, offset: 0x2C3B5, size: 0x8, addend: 0x0, symName: __ZN5mpark6detail6access15recursive_union7get_altIRKNS0_15recursive_unionILNS0_5TraitE0ELm2EJN2xt14xrange_adaptorIlNS6_12placeholders5xtuphElEENS7_IllS9_EENS7_IlS9_S9_EENS7_IS9_lS9_EENS7_IS9_S9_lEENS7_IlllEENS7_IS9_S9_S9_EENS6_6xrangeIlEENS6_14xstepped_rangeIlEENS6_8xall_tagENS6_13xellipsis_tagENS6_12xnewaxis_tagEEEELm1EEEODaOT_NS_16in_place_index_tIXT0_EEE, symObjAddr: 0xE8D4, symBinAddr: 0x10001175C, symSize: 0x28 }
  - { offsetInCU: 0x2C3F6, offset: 0x2C3F6, size: 0x8, addend: 0x0, symName: __ZN5mpark6detail6access15recursive_union7get_altIRKNS0_15recursive_unionILNS0_5TraitE0ELm3EJN2xt14xrange_adaptorIllNS6_12placeholders5xtuphEEENS7_IlS9_S9_EENS7_IS9_lS9_EENS7_IS9_S9_lEENS7_IlllEENS7_IS9_S9_S9_EENS6_6xrangeIlEENS6_14xstepped_rangeIlEENS6_8xall_tagENS6_13xellipsis_tagENS6_12xnewaxis_tagEEEEEEODaOT_NS_16in_place_index_tILm0EEE, symObjAddr: 0xE8FC, symBinAddr: 0x100011784, symSize: 0x24 }
  - { offsetInCU: 0x2C438, offset: 0x2C438, size: 0x8, addend: 0x0, symName: __ZN5mpark6detail10visitation4base23visit_return_type_checkINSt3__15arrayIlLm3EEES6_E6invokeINS1_7variant13value_visitorIRN2xt6detail17slice_getter_implINSB_7svectorImLm4ENS4_9allocatorImEELb1EEEEEEEJRKNS0_3altILm4ENSB_14xrange_adaptorIlNSB_12placeholders5xtuphESO_EEEEEEEDcOT_DpOT0_, symObjAddr: 0xE920, symBinAddr: 0x1000117A8, symSize: 0x48 }
  - { offsetInCU: 0x2C47E, offset: 0x2C47E, size: 0x8, addend: 0x0, symName: __ZN5mpark6detail6access4base7get_altILm4ERKNS0_4baseILNS0_5TraitE0EJlN2xt14xrange_adaptorINS6_12placeholders5xtuphEllEENS7_IlS9_lEENS7_IllS9_EENS7_IlS9_S9_EENS7_IS9_lS9_EENS7_IS9_S9_lEENS7_IlllEENS7_IS9_S9_S9_EENS6_6xrangeIlEENS6_14xstepped_rangeIlEENS6_8xall_tagENS6_13xellipsis_tagENS6_12xnewaxis_tagEEEEEEODaOT0_, symObjAddr: 0xE968, symBinAddr: 0x1000117F0, symSize: 0x2C }
  - { offsetInCU: 0x2C4B5, offset: 0x2C4B5, size: 0x8, addend: 0x0, symName: __ZNK5mpark6detail10visitation7variant13value_visitorIRN2xt6detail17slice_getter_implINS4_7svectorImLm4ENSt3__19allocatorImEELb1EEEEEEclIJRKNS0_3altILm4ENS4_14xrange_adaptorIlNS4_12placeholders5xtuphESJ_EEEEEEEDcDpOT_, symObjAddr: 0xEA38, symBinAddr: 0x1000118C0, symSize: 0x4C }
  - { offsetInCU: 0x2C4FA, offset: 0x2C4FA, size: 0x8, addend: 0x0, symName: __ZN5mpark6detail10visitation7variant26visit_exhaustiveness_checkIRN2xt6detail17slice_getter_implINS4_7svectorImLm4ENSt3__19allocatorImEELb1EEEEEJRKNS4_14xrange_adaptorIlNS4_12placeholders5xtuphESG_EEEE6invokeESD_SJ_, symObjAddr: 0xEA84, symBinAddr: 0x10001190C, symSize: 0x48 }
  - { offsetInCU: 0x2C52D, offset: 0x2C52D, size: 0x8, addend: 0x0, symName: __ZNK2xt6detail17slice_getter_implINS_7svectorImLm4ENSt3__19allocatorImEELb1EEEEclIlNS_12placeholders5xtuphESA_EENS3_5arrayIlLm3EEERKNS_14xrange_adaptorIT_T0_T1_EE, symObjAddr: 0xEB70, symBinAddr: 0x1000119F8, symSize: 0x98 }
  - { offsetInCU: 0x2C58C, offset: 0x2C58C, size: 0x8, addend: 0x0, symName: __ZNK2xt14xrange_adaptorIlNS_12placeholders5xtuphES2_E3getIlS2_S2_EENSt3__19enable_ifIXaaaasr3xtl11is_integralIT_EE5valuentsr3xtl11is_integralIT0_EE5valuentsr3xtl11is_integralIT1_EE5valueENS_6xrangeIlEEE4typeEm, symObjAddr: 0xEC08, symBinAddr: 0x100011A90, symSize: 0x48 }
  - { offsetInCU: 0x2C5DB, offset: 0x2C5DB, size: 0x8, addend: 0x0, symName: __ZN2xt14xrange_adaptorIlNS_12placeholders5xtuphES2_E9normalizeElm, symObjAddr: 0xEC50, symBinAddr: 0x100011AD8, symSize: 0x8C }
  - { offsetInCU: 0x2C61C, offset: 0x2C61C, size: 0x8, addend: 0x0, symName: __ZN5mpark6detail6access15recursive_union7get_altIRKNS0_15recursive_unionILNS0_5TraitE0ELm0EJlN2xt14xrange_adaptorINS6_12placeholders5xtuphEllEENS7_IlS9_lEENS7_IllS9_EENS7_IlS9_S9_EENS7_IS9_lS9_EENS7_IS9_S9_lEENS7_IlllEENS7_IS9_S9_S9_EENS6_6xrangeIlEENS6_14xstepped_rangeIlEENS6_8xall_tagENS6_13xellipsis_tagENS6_12xnewaxis_tagEEEELm4EEEODaOT_NS_16in_place_index_tIXT0_EEE, symObjAddr: 0xECDC, symBinAddr: 0x100011B64, symSize: 0x28 }
  - { offsetInCU: 0x2C65D, offset: 0x2C65D, size: 0x8, addend: 0x0, symName: __ZN5mpark6detail6access15recursive_union7get_altIRKNS0_15recursive_unionILNS0_5TraitE0ELm1EJN2xt14xrange_adaptorINS6_12placeholders5xtuphEllEENS7_IlS9_lEENS7_IllS9_EENS7_IlS9_S9_EENS7_IS9_lS9_EENS7_IS9_S9_lEENS7_IlllEENS7_IS9_S9_S9_EENS6_6xrangeIlEENS6_14xstepped_rangeIlEENS6_8xall_tagENS6_13xellipsis_tagENS6_12xnewaxis_tagEEEELm3EEEODaOT_NS_16in_place_index_tIXT0_EEE, symObjAddr: 0xED04, symBinAddr: 0x100011B8C, symSize: 0x28 }
  - { offsetInCU: 0x2C69E, offset: 0x2C69E, size: 0x8, addend: 0x0, symName: __ZN5mpark6detail6access15recursive_union7get_altIRKNS0_15recursive_unionILNS0_5TraitE0ELm2EJN2xt14xrange_adaptorIlNS6_12placeholders5xtuphElEENS7_IllS9_EENS7_IlS9_S9_EENS7_IS9_lS9_EENS7_IS9_S9_lEENS7_IlllEENS7_IS9_S9_S9_EENS6_6xrangeIlEENS6_14xstepped_rangeIlEENS6_8xall_tagENS6_13xellipsis_tagENS6_12xnewaxis_tagEEEELm2EEEODaOT_NS_16in_place_index_tIXT0_EEE, symObjAddr: 0xED2C, symBinAddr: 0x100011BB4, symSize: 0x28 }
  - { offsetInCU: 0x2C6DF, offset: 0x2C6DF, size: 0x8, addend: 0x0, symName: __ZN5mpark6detail6access15recursive_union7get_altIRKNS0_15recursive_unionILNS0_5TraitE0ELm3EJN2xt14xrange_adaptorIllNS6_12placeholders5xtuphEEENS7_IlS9_S9_EENS7_IS9_lS9_EENS7_IS9_S9_lEENS7_IlllEENS7_IS9_S9_S9_EENS6_6xrangeIlEENS6_14xstepped_rangeIlEENS6_8xall_tagENS6_13xellipsis_tagENS6_12xnewaxis_tagEEEELm1EEEODaOT_NS_16in_place_index_tIXT0_EEE, symObjAddr: 0xED54, symBinAddr: 0x100011BDC, symSize: 0x28 }
  - { offsetInCU: 0x2C720, offset: 0x2C720, size: 0x8, addend: 0x0, symName: __ZN5mpark6detail6access15recursive_union7get_altIRKNS0_15recursive_unionILNS0_5TraitE0ELm4EJN2xt14xrange_adaptorIlNS6_12placeholders5xtuphES9_EENS7_IS9_lS9_EENS7_IS9_S9_lEENS7_IlllEENS7_IS9_S9_S9_EENS6_6xrangeIlEENS6_14xstepped_rangeIlEENS6_8xall_tagENS6_13xellipsis_tagENS6_12xnewaxis_tagEEEEEEODaOT_NS_16in_place_index_tILm0EEE, symObjAddr: 0xED7C, symBinAddr: 0x100011C04, symSize: 0x24 }
  - { offsetInCU: 0x2C762, offset: 0x2C762, size: 0x8, addend: 0x0, symName: __ZN5mpark6detail10visitation4base23visit_return_type_checkINSt3__15arrayIlLm3EEES6_E6invokeINS1_7variant13value_visitorIRN2xt6detail17slice_getter_implINSB_7svectorImLm4ENS4_9allocatorImEELb1EEEEEEEJRKNS0_3altILm5ENSB_14xrange_adaptorINSB_12placeholders5xtuphElSO_EEEEEEEDcOT_DpOT0_, symObjAddr: 0xEDA0, symBinAddr: 0x100011C28, symSize: 0x48 }
  - { offsetInCU: 0x2C7A8, offset: 0x2C7A8, size: 0x8, addend: 0x0, symName: __ZN5mpark6detail6access4base7get_altILm5ERKNS0_4baseILNS0_5TraitE0EJlN2xt14xrange_adaptorINS6_12placeholders5xtuphEllEENS7_IlS9_lEENS7_IllS9_EENS7_IlS9_S9_EENS7_IS9_lS9_EENS7_IS9_S9_lEENS7_IlllEENS7_IS9_S9_S9_EENS6_6xrangeIlEENS6_14xstepped_rangeIlEENS6_8xall_tagENS6_13xellipsis_tagENS6_12xnewaxis_tagEEEEEEODaOT0_, symObjAddr: 0xEDE8, symBinAddr: 0x100011C70, symSize: 0x2C }
  - { offsetInCU: 0x2C7DF, offset: 0x2C7DF, size: 0x8, addend: 0x0, symName: __ZNK5mpark6detail10visitation7variant13value_visitorIRN2xt6detail17slice_getter_implINS4_7svectorImLm4ENSt3__19allocatorImEELb1EEEEEEclIJRKNS0_3altILm5ENS4_14xrange_adaptorINS4_12placeholders5xtuphElSJ_EEEEEEEDcDpOT_, symObjAddr: 0xEEB8, symBinAddr: 0x100011D40, symSize: 0x4C }
  - { offsetInCU: 0x2C824, offset: 0x2C824, size: 0x8, addend: 0x0, symName: __ZN5mpark6detail10visitation7variant26visit_exhaustiveness_checkIRN2xt6detail17slice_getter_implINS4_7svectorImLm4ENSt3__19allocatorImEELb1EEEEEJRKNS4_14xrange_adaptorINS4_12placeholders5xtuphElSG_EEEE6invokeESD_SJ_, symObjAddr: 0xEF04, symBinAddr: 0x100011D8C, symSize: 0x48 }
  - { offsetInCU: 0x2C857, offset: 0x2C857, size: 0x8, addend: 0x0, symName: __ZNK2xt6detail17slice_getter_implINS_7svectorImLm4ENSt3__19allocatorImEELb1EEEEclINS_12placeholders5xtuphElSA_EENS3_5arrayIlLm3EEERKNS_14xrange_adaptorIT_T0_T1_EE, symObjAddr: 0xEFF0, symBinAddr: 0x100011E78, symSize: 0x98 }
  - { offsetInCU: 0x2C8B6, offset: 0x2C8B6, size: 0x8, addend: 0x0, symName: __ZNK2xt14xrange_adaptorINS_12placeholders5xtuphElS2_E3getIS2_lS2_EENSt3__19enable_ifIXaaaantsr3xtl11is_integralIT_EE5valuesr3xtl11is_integralIT0_EE5valuentsr3xtl11is_integralIT1_EE5valueENS_6xrangeIlEEE4typeEm, symObjAddr: 0xF088, symBinAddr: 0x100011F10, symSize: 0x48 }
  - { offsetInCU: 0x2C905, offset: 0x2C905, size: 0x8, addend: 0x0, symName: __ZN2xt14xrange_adaptorINS_12placeholders5xtuphElS2_E9normalizeElm, symObjAddr: 0xF0D0, symBinAddr: 0x100011F58, symSize: 0x8C }
  - { offsetInCU: 0x2C946, offset: 0x2C946, size: 0x8, addend: 0x0, symName: __ZN5mpark6detail6access15recursive_union7get_altIRKNS0_15recursive_unionILNS0_5TraitE0ELm0EJlN2xt14xrange_adaptorINS6_12placeholders5xtuphEllEENS7_IlS9_lEENS7_IllS9_EENS7_IlS9_S9_EENS7_IS9_lS9_EENS7_IS9_S9_lEENS7_IlllEENS7_IS9_S9_S9_EENS6_6xrangeIlEENS6_14xstepped_rangeIlEENS6_8xall_tagENS6_13xellipsis_tagENS6_12xnewaxis_tagEEEELm5EEEODaOT_NS_16in_place_index_tIXT0_EEE, symObjAddr: 0xF15C, symBinAddr: 0x100011FE4, symSize: 0x28 }
  - { offsetInCU: 0x2C987, offset: 0x2C987, size: 0x8, addend: 0x0, symName: __ZN5mpark6detail6access15recursive_union7get_altIRKNS0_15recursive_unionILNS0_5TraitE0ELm1EJN2xt14xrange_adaptorINS6_12placeholders5xtuphEllEENS7_IlS9_lEENS7_IllS9_EENS7_IlS9_S9_EENS7_IS9_lS9_EENS7_IS9_S9_lEENS7_IlllEENS7_IS9_S9_S9_EENS6_6xrangeIlEENS6_14xstepped_rangeIlEENS6_8xall_tagENS6_13xellipsis_tagENS6_12xnewaxis_tagEEEELm4EEEODaOT_NS_16in_place_index_tIXT0_EEE, symObjAddr: 0xF184, symBinAddr: 0x10001200C, symSize: 0x28 }
  - { offsetInCU: 0x2C9C8, offset: 0x2C9C8, size: 0x8, addend: 0x0, symName: __ZN5mpark6detail6access15recursive_union7get_altIRKNS0_15recursive_unionILNS0_5TraitE0ELm2EJN2xt14xrange_adaptorIlNS6_12placeholders5xtuphElEENS7_IllS9_EENS7_IlS9_S9_EENS7_IS9_lS9_EENS7_IS9_S9_lEENS7_IlllEENS7_IS9_S9_S9_EENS6_6xrangeIlEENS6_14xstepped_rangeIlEENS6_8xall_tagENS6_13xellipsis_tagENS6_12xnewaxis_tagEEEELm3EEEODaOT_NS_16in_place_index_tIXT0_EEE, symObjAddr: 0xF1AC, symBinAddr: 0x100012034, symSize: 0x28 }
  - { offsetInCU: 0x2CA09, offset: 0x2CA09, size: 0x8, addend: 0x0, symName: __ZN5mpark6detail6access15recursive_union7get_altIRKNS0_15recursive_unionILNS0_5TraitE0ELm3EJN2xt14xrange_adaptorIllNS6_12placeholders5xtuphEEENS7_IlS9_S9_EENS7_IS9_lS9_EENS7_IS9_S9_lEENS7_IlllEENS7_IS9_S9_S9_EENS6_6xrangeIlEENS6_14xstepped_rangeIlEENS6_8xall_tagENS6_13xellipsis_tagENS6_12xnewaxis_tagEEEELm2EEEODaOT_NS_16in_place_index_tIXT0_EEE, symObjAddr: 0xF1D4, symBinAddr: 0x10001205C, symSize: 0x28 }
  - { offsetInCU: 0x2CA4A, offset: 0x2CA4A, size: 0x8, addend: 0x0, symName: __ZN5mpark6detail6access15recursive_union7get_altIRKNS0_15recursive_unionILNS0_5TraitE0ELm4EJN2xt14xrange_adaptorIlNS6_12placeholders5xtuphES9_EENS7_IS9_lS9_EENS7_IS9_S9_lEENS7_IlllEENS7_IS9_S9_S9_EENS6_6xrangeIlEENS6_14xstepped_rangeIlEENS6_8xall_tagENS6_13xellipsis_tagENS6_12xnewaxis_tagEEEELm1EEEODaOT_NS_16in_place_index_tIXT0_EEE, symObjAddr: 0xF1FC, symBinAddr: 0x100012084, symSize: 0x28 }
  - { offsetInCU: 0x2CA8B, offset: 0x2CA8B, size: 0x8, addend: 0x0, symName: __ZN5mpark6detail6access15recursive_union7get_altIRKNS0_15recursive_unionILNS0_5TraitE0ELm5EJN2xt14xrange_adaptorINS6_12placeholders5xtuphElS9_EENS7_IS9_S9_lEENS7_IlllEENS7_IS9_S9_S9_EENS6_6xrangeIlEENS6_14xstepped_rangeIlEENS6_8xall_tagENS6_13xellipsis_tagENS6_12xnewaxis_tagEEEEEEODaOT_NS_16in_place_index_tILm0EEE, symObjAddr: 0xF224, symBinAddr: 0x1000120AC, symSize: 0x24 }
  - { offsetInCU: 0x2CACD, offset: 0x2CACD, size: 0x8, addend: 0x0, symName: __ZN5mpark6detail10visitation4base23visit_return_type_checkINSt3__15arrayIlLm3EEES6_E6invokeINS1_7variant13value_visitorIRN2xt6detail17slice_getter_implINSB_7svectorImLm4ENS4_9allocatorImEELb1EEEEEEEJRKNS0_3altILm6ENSB_14xrange_adaptorINSB_12placeholders5xtuphESO_lEEEEEEEDcOT_DpOT0_, symObjAddr: 0xF248, symBinAddr: 0x1000120D0, symSize: 0x48 }
  - { offsetInCU: 0x2CB13, offset: 0x2CB13, size: 0x8, addend: 0x0, symName: __ZN5mpark6detail6access4base7get_altILm6ERKNS0_4baseILNS0_5TraitE0EJlN2xt14xrange_adaptorINS6_12placeholders5xtuphEllEENS7_IlS9_lEENS7_IllS9_EENS7_IlS9_S9_EENS7_IS9_lS9_EENS7_IS9_S9_lEENS7_IlllEENS7_IS9_S9_S9_EENS6_6xrangeIlEENS6_14xstepped_rangeIlEENS6_8xall_tagENS6_13xellipsis_tagENS6_12xnewaxis_tagEEEEEEODaOT0_, symObjAddr: 0xF290, symBinAddr: 0x100012118, symSize: 0x2C }
  - { offsetInCU: 0x2CB4A, offset: 0x2CB4A, size: 0x8, addend: 0x0, symName: __ZNK5mpark6detail10visitation7variant13value_visitorIRN2xt6detail17slice_getter_implINS4_7svectorImLm4ENSt3__19allocatorImEELb1EEEEEEclIJRKNS0_3altILm6ENS4_14xrange_adaptorINS4_12placeholders5xtuphESJ_lEEEEEEEDcDpOT_, symObjAddr: 0xF360, symBinAddr: 0x1000121E8, symSize: 0x4C }
  - { offsetInCU: 0x2CB8F, offset: 0x2CB8F, size: 0x8, addend: 0x0, symName: __ZN5mpark6detail10visitation7variant26visit_exhaustiveness_checkIRN2xt6detail17slice_getter_implINS4_7svectorImLm4ENSt3__19allocatorImEELb1EEEEEJRKNS4_14xrange_adaptorINS4_12placeholders5xtuphESG_lEEEE6invokeESD_SJ_, symObjAddr: 0xF3AC, symBinAddr: 0x100012234, symSize: 0x48 }
  - { offsetInCU: 0x2CBC2, offset: 0x2CBC2, size: 0x8, addend: 0x0, symName: __ZNK2xt6detail17slice_getter_implINS_7svectorImLm4ENSt3__19allocatorImEELb1EEEEclINS_12placeholders5xtuphESA_lEENS3_5arrayIlLm3EEERKNS_14xrange_adaptorIT_T0_T1_EE, symObjAddr: 0xF498, symBinAddr: 0x100012320, symSize: 0x90 }
  - { offsetInCU: 0x2CC21, offset: 0x2CC21, size: 0x8, addend: 0x0, symName: __ZNK2xt14xrange_adaptorINS_12placeholders5xtuphES2_lE3getIS2_S2_lEENSt3__19enable_ifIXaaaantsr3xtl11is_integralIT_EE5valuentsr3xtl11is_integralIT0_EE5valuesr3xtl11is_integralIT1_EE5valueENS_14xstepped_rangeIlEEE4typeEm, symObjAddr: 0xF528, symBinAddr: 0x1000123B0, symSize: 0xB4 }
  - { offsetInCU: 0x2CC8E, offset: 0x2CC8E, size: 0x8, addend: 0x0, symName: __ZN5mpark6detail6access15recursive_union7get_altIRKNS0_15recursive_unionILNS0_5TraitE0ELm0EJlN2xt14xrange_adaptorINS6_12placeholders5xtuphEllEENS7_IlS9_lEENS7_IllS9_EENS7_IlS9_S9_EENS7_IS9_lS9_EENS7_IS9_S9_lEENS7_IlllEENS7_IS9_S9_S9_EENS6_6xrangeIlEENS6_14xstepped_rangeIlEENS6_8xall_tagENS6_13xellipsis_tagENS6_12xnewaxis_tagEEEELm6EEEODaOT_NS_16in_place_index_tIXT0_EEE, symObjAddr: 0xF5DC, symBinAddr: 0x100012464, symSize: 0x28 }
  - { offsetInCU: 0x2CCCF, offset: 0x2CCCF, size: 0x8, addend: 0x0, symName: __ZN5mpark6detail6access15recursive_union7get_altIRKNS0_15recursive_unionILNS0_5TraitE0ELm1EJN2xt14xrange_adaptorINS6_12placeholders5xtuphEllEENS7_IlS9_lEENS7_IllS9_EENS7_IlS9_S9_EENS7_IS9_lS9_EENS7_IS9_S9_lEENS7_IlllEENS7_IS9_S9_S9_EENS6_6xrangeIlEENS6_14xstepped_rangeIlEENS6_8xall_tagENS6_13xellipsis_tagENS6_12xnewaxis_tagEEEELm5EEEODaOT_NS_16in_place_index_tIXT0_EEE, symObjAddr: 0xF604, symBinAddr: 0x10001248C, symSize: 0x28 }
  - { offsetInCU: 0x2CD10, offset: 0x2CD10, size: 0x8, addend: 0x0, symName: __ZN5mpark6detail6access15recursive_union7get_altIRKNS0_15recursive_unionILNS0_5TraitE0ELm2EJN2xt14xrange_adaptorIlNS6_12placeholders5xtuphElEENS7_IllS9_EENS7_IlS9_S9_EENS7_IS9_lS9_EENS7_IS9_S9_lEENS7_IlllEENS7_IS9_S9_S9_EENS6_6xrangeIlEENS6_14xstepped_rangeIlEENS6_8xall_tagENS6_13xellipsis_tagENS6_12xnewaxis_tagEEEELm4EEEODaOT_NS_16in_place_index_tIXT0_EEE, symObjAddr: 0xF62C, symBinAddr: 0x1000124B4, symSize: 0x28 }
  - { offsetInCU: 0x2CD51, offset: 0x2CD51, size: 0x8, addend: 0x0, symName: __ZN5mpark6detail6access15recursive_union7get_altIRKNS0_15recursive_unionILNS0_5TraitE0ELm3EJN2xt14xrange_adaptorIllNS6_12placeholders5xtuphEEENS7_IlS9_S9_EENS7_IS9_lS9_EENS7_IS9_S9_lEENS7_IlllEENS7_IS9_S9_S9_EENS6_6xrangeIlEENS6_14xstepped_rangeIlEENS6_8xall_tagENS6_13xellipsis_tagENS6_12xnewaxis_tagEEEELm3EEEODaOT_NS_16in_place_index_tIXT0_EEE, symObjAddr: 0xF654, symBinAddr: 0x1000124DC, symSize: 0x28 }
  - { offsetInCU: 0x2CD92, offset: 0x2CD92, size: 0x8, addend: 0x0, symName: __ZN5mpark6detail6access15recursive_union7get_altIRKNS0_15recursive_unionILNS0_5TraitE0ELm4EJN2xt14xrange_adaptorIlNS6_12placeholders5xtuphES9_EENS7_IS9_lS9_EENS7_IS9_S9_lEENS7_IlllEENS7_IS9_S9_S9_EENS6_6xrangeIlEENS6_14xstepped_rangeIlEENS6_8xall_tagENS6_13xellipsis_tagENS6_12xnewaxis_tagEEEELm2EEEODaOT_NS_16in_place_index_tIXT0_EEE, symObjAddr: 0xF67C, symBinAddr: 0x100012504, symSize: 0x28 }
  - { offsetInCU: 0x2CDD3, offset: 0x2CDD3, size: 0x8, addend: 0x0, symName: __ZN5mpark6detail6access15recursive_union7get_altIRKNS0_15recursive_unionILNS0_5TraitE0ELm5EJN2xt14xrange_adaptorINS6_12placeholders5xtuphElS9_EENS7_IS9_S9_lEENS7_IlllEENS7_IS9_S9_S9_EENS6_6xrangeIlEENS6_14xstepped_rangeIlEENS6_8xall_tagENS6_13xellipsis_tagENS6_12xnewaxis_tagEEEELm1EEEODaOT_NS_16in_place_index_tIXT0_EEE, symObjAddr: 0xF6A4, symBinAddr: 0x10001252C, symSize: 0x28 }
  - { offsetInCU: 0x2CE14, offset: 0x2CE14, size: 0x8, addend: 0x0, symName: __ZN5mpark6detail6access15recursive_union7get_altIRKNS0_15recursive_unionILNS0_5TraitE0ELm6EJN2xt14xrange_adaptorINS6_12placeholders5xtuphES9_lEENS7_IlllEENS7_IS9_S9_S9_EENS6_6xrangeIlEENS6_14xstepped_rangeIlEENS6_8xall_tagENS6_13xellipsis_tagENS6_12xnewaxis_tagEEEEEEODaOT_NS_16in_place_index_tILm0EEE, symObjAddr: 0xF6CC, symBinAddr: 0x100012554, symSize: 0x24 }
  - { offsetInCU: 0x2CE56, offset: 0x2CE56, size: 0x8, addend: 0x0, symName: __ZN5mpark6detail10visitation4base23visit_return_type_checkINSt3__15arrayIlLm3EEES6_E6invokeINS1_7variant13value_visitorIRN2xt6detail17slice_getter_implINSB_7svectorImLm4ENS4_9allocatorImEELb1EEEEEEEJRKNS0_3altILm7ENSB_14xrange_adaptorIlllEEEEEEEDcOT_DpOT0_, symObjAddr: 0xF6F0, symBinAddr: 0x100012578, symSize: 0x48 }
  - { offsetInCU: 0x2CE9C, offset: 0x2CE9C, size: 0x8, addend: 0x0, symName: __ZN5mpark6detail6access4base7get_altILm7ERKNS0_4baseILNS0_5TraitE0EJlN2xt14xrange_adaptorINS6_12placeholders5xtuphEllEENS7_IlS9_lEENS7_IllS9_EENS7_IlS9_S9_EENS7_IS9_lS9_EENS7_IS9_S9_lEENS7_IlllEENS7_IS9_S9_S9_EENS6_6xrangeIlEENS6_14xstepped_rangeIlEENS6_8xall_tagENS6_13xellipsis_tagENS6_12xnewaxis_tagEEEEEEODaOT0_, symObjAddr: 0xF738, symBinAddr: 0x1000125C0, symSize: 0x2C }
  - { offsetInCU: 0x2CED3, offset: 0x2CED3, size: 0x8, addend: 0x0, symName: __ZNK5mpark6detail10visitation7variant13value_visitorIRN2xt6detail17slice_getter_implINS4_7svectorImLm4ENSt3__19allocatorImEELb1EEEEEEclIJRKNS0_3altILm7ENS4_14xrange_adaptorIlllEEEEEEEDcDpOT_, symObjAddr: 0xF808, symBinAddr: 0x100012690, symSize: 0x4C }
  - { offsetInCU: 0x2CF18, offset: 0x2CF18, size: 0x8, addend: 0x0, symName: __ZN5mpark6detail10visitation7variant26visit_exhaustiveness_checkIRN2xt6detail17slice_getter_implINS4_7svectorImLm4ENSt3__19allocatorImEELb1EEEEEJRKNS4_14xrange_adaptorIlllEEEE6invokeESD_SH_, symObjAddr: 0xF854, symBinAddr: 0x1000126DC, symSize: 0x48 }
  - { offsetInCU: 0x2CF4B, offset: 0x2CF4B, size: 0x8, addend: 0x0, symName: __ZNK2xt6detail17slice_getter_implINS_7svectorImLm4ENSt3__19allocatorImEELb1EEEEclIlllEENS3_5arrayIlLm3EEERKNS_14xrange_adaptorIT_T0_T1_EE, symObjAddr: 0xF940, symBinAddr: 0x1000127C8, symSize: 0x90 }
  - { offsetInCU: 0x2CFAA, offset: 0x2CFAA, size: 0x8, addend: 0x0, symName: __ZNK2xt14xrange_adaptorIlllE3getIlllEENSt3__19enable_ifIXaaaasr3xtl11is_integralIT_EE5valuesr3xtl11is_integralIT0_EE5valuesr3xtl11is_integralIT1_EE5valueENS_14xstepped_rangeIlEEE4typeEm, symObjAddr: 0xF9D0, symBinAddr: 0x100012858, symSize: 0x38 }
  - { offsetInCU: 0x2CFF9, offset: 0x2CFF9, size: 0x8, addend: 0x0, symName: __ZN2xt14xrange_adaptorIlllE17get_stepped_rangeElllm, symObjAddr: 0xFA08, symBinAddr: 0x100012890, symSize: 0x1B8 }
  - { offsetInCU: 0x2D058, offset: 0x2D058, size: 0x8, addend: 0x0, symName: __ZN5mpark6detail6access15recursive_union7get_altIRKNS0_15recursive_unionILNS0_5TraitE0ELm0EJlN2xt14xrange_adaptorINS6_12placeholders5xtuphEllEENS7_IlS9_lEENS7_IllS9_EENS7_IlS9_S9_EENS7_IS9_lS9_EENS7_IS9_S9_lEENS7_IlllEENS7_IS9_S9_S9_EENS6_6xrangeIlEENS6_14xstepped_rangeIlEENS6_8xall_tagENS6_13xellipsis_tagENS6_12xnewaxis_tagEEEELm7EEEODaOT_NS_16in_place_index_tIXT0_EEE, symObjAddr: 0xFBC0, symBinAddr: 0x100012A48, symSize: 0x28 }
  - { offsetInCU: 0x2D099, offset: 0x2D099, size: 0x8, addend: 0x0, symName: __ZN5mpark6detail6access15recursive_union7get_altIRKNS0_15recursive_unionILNS0_5TraitE0ELm1EJN2xt14xrange_adaptorINS6_12placeholders5xtuphEllEENS7_IlS9_lEENS7_IllS9_EENS7_IlS9_S9_EENS7_IS9_lS9_EENS7_IS9_S9_lEENS7_IlllEENS7_IS9_S9_S9_EENS6_6xrangeIlEENS6_14xstepped_rangeIlEENS6_8xall_tagENS6_13xellipsis_tagENS6_12xnewaxis_tagEEEELm6EEEODaOT_NS_16in_place_index_tIXT0_EEE, symObjAddr: 0xFBE8, symBinAddr: 0x100012A70, symSize: 0x28 }
  - { offsetInCU: 0x2D0DA, offset: 0x2D0DA, size: 0x8, addend: 0x0, symName: __ZN5mpark6detail6access15recursive_union7get_altIRKNS0_15recursive_unionILNS0_5TraitE0ELm2EJN2xt14xrange_adaptorIlNS6_12placeholders5xtuphElEENS7_IllS9_EENS7_IlS9_S9_EENS7_IS9_lS9_EENS7_IS9_S9_lEENS7_IlllEENS7_IS9_S9_S9_EENS6_6xrangeIlEENS6_14xstepped_rangeIlEENS6_8xall_tagENS6_13xellipsis_tagENS6_12xnewaxis_tagEEEELm5EEEODaOT_NS_16in_place_index_tIXT0_EEE, symObjAddr: 0xFC10, symBinAddr: 0x100012A98, symSize: 0x28 }
  - { offsetInCU: 0x2D11B, offset: 0x2D11B, size: 0x8, addend: 0x0, symName: __ZN5mpark6detail6access15recursive_union7get_altIRKNS0_15recursive_unionILNS0_5TraitE0ELm3EJN2xt14xrange_adaptorIllNS6_12placeholders5xtuphEEENS7_IlS9_S9_EENS7_IS9_lS9_EENS7_IS9_S9_lEENS7_IlllEENS7_IS9_S9_S9_EENS6_6xrangeIlEENS6_14xstepped_rangeIlEENS6_8xall_tagENS6_13xellipsis_tagENS6_12xnewaxis_tagEEEELm4EEEODaOT_NS_16in_place_index_tIXT0_EEE, symObjAddr: 0xFC38, symBinAddr: 0x100012AC0, symSize: 0x28 }
  - { offsetInCU: 0x2D15C, offset: 0x2D15C, size: 0x8, addend: 0x0, symName: __ZN5mpark6detail6access15recursive_union7get_altIRKNS0_15recursive_unionILNS0_5TraitE0ELm4EJN2xt14xrange_adaptorIlNS6_12placeholders5xtuphES9_EENS7_IS9_lS9_EENS7_IS9_S9_lEENS7_IlllEENS7_IS9_S9_S9_EENS6_6xrangeIlEENS6_14xstepped_rangeIlEENS6_8xall_tagENS6_13xellipsis_tagENS6_12xnewaxis_tagEEEELm3EEEODaOT_NS_16in_place_index_tIXT0_EEE, symObjAddr: 0xFC60, symBinAddr: 0x100012AE8, symSize: 0x28 }
  - { offsetInCU: 0x2D19D, offset: 0x2D19D, size: 0x8, addend: 0x0, symName: __ZN5mpark6detail6access15recursive_union7get_altIRKNS0_15recursive_unionILNS0_5TraitE0ELm5EJN2xt14xrange_adaptorINS6_12placeholders5xtuphElS9_EENS7_IS9_S9_lEENS7_IlllEENS7_IS9_S9_S9_EENS6_6xrangeIlEENS6_14xstepped_rangeIlEENS6_8xall_tagENS6_13xellipsis_tagENS6_12xnewaxis_tagEEEELm2EEEODaOT_NS_16in_place_index_tIXT0_EEE, symObjAddr: 0xFC88, symBinAddr: 0x100012B10, symSize: 0x28 }
  - { offsetInCU: 0x2D1DE, offset: 0x2D1DE, size: 0x8, addend: 0x0, symName: __ZN5mpark6detail6access15recursive_union7get_altIRKNS0_15recursive_unionILNS0_5TraitE0ELm6EJN2xt14xrange_adaptorINS6_12placeholders5xtuphES9_lEENS7_IlllEENS7_IS9_S9_S9_EENS6_6xrangeIlEENS6_14xstepped_rangeIlEENS6_8xall_tagENS6_13xellipsis_tagENS6_12xnewaxis_tagEEEELm1EEEODaOT_NS_16in_place_index_tIXT0_EEE, symObjAddr: 0xFCB0, symBinAddr: 0x100012B38, symSize: 0x28 }
  - { offsetInCU: 0x2D21F, offset: 0x2D21F, size: 0x8, addend: 0x0, symName: __ZN5mpark6detail6access15recursive_union7get_altIRKNS0_15recursive_unionILNS0_5TraitE0ELm7EJN2xt14xrange_adaptorIlllEENS7_INS6_12placeholders5xtuphESA_SA_EENS6_6xrangeIlEENS6_14xstepped_rangeIlEENS6_8xall_tagENS6_13xellipsis_tagENS6_12xnewaxis_tagEEEEEEODaOT_NS_16in_place_index_tILm0EEE, symObjAddr: 0xFCD8, symBinAddr: 0x100012B60, symSize: 0x24 }
  - { offsetInCU: 0x2D261, offset: 0x2D261, size: 0x8, addend: 0x0, symName: __ZN5mpark6detail10visitation4base23visit_return_type_checkINSt3__15arrayIlLm3EEES6_E6invokeINS1_7variant13value_visitorIRN2xt6detail17slice_getter_implINSB_7svectorImLm4ENS4_9allocatorImEELb1EEEEEEEJRKNS0_3altILm8ENSB_14xrange_adaptorINSB_12placeholders5xtuphESO_SO_EEEEEEEDcOT_DpOT0_, symObjAddr: 0xFCFC, symBinAddr: 0x100012B84, symSize: 0x48 }
  - { offsetInCU: 0x2D2A7, offset: 0x2D2A7, size: 0x8, addend: 0x0, symName: __ZN5mpark6detail6access4base7get_altILm8ERKNS0_4baseILNS0_5TraitE0EJlN2xt14xrange_adaptorINS6_12placeholders5xtuphEllEENS7_IlS9_lEENS7_IllS9_EENS7_IlS9_S9_EENS7_IS9_lS9_EENS7_IS9_S9_lEENS7_IlllEENS7_IS9_S9_S9_EENS6_6xrangeIlEENS6_14xstepped_rangeIlEENS6_8xall_tagENS6_13xellipsis_tagENS6_12xnewaxis_tagEEEEEEODaOT0_, symObjAddr: 0xFD44, symBinAddr: 0x100012BCC, symSize: 0x2C }
  - { offsetInCU: 0x2D2DE, offset: 0x2D2DE, size: 0x8, addend: 0x0, symName: __ZNK5mpark6detail10visitation7variant13value_visitorIRN2xt6detail17slice_getter_implINS4_7svectorImLm4ENSt3__19allocatorImEELb1EEEEEEclIJRKNS0_3altILm8ENS4_14xrange_adaptorINS4_12placeholders5xtuphESJ_SJ_EEEEEEEDcDpOT_, symObjAddr: 0xFE14, symBinAddr: 0x100012C9C, symSize: 0x4C }
  - { offsetInCU: 0x2D323, offset: 0x2D323, size: 0x8, addend: 0x0, symName: __ZN5mpark6detail10visitation7variant26visit_exhaustiveness_checkIRN2xt6detail17slice_getter_implINS4_7svectorImLm4ENSt3__19allocatorImEELb1EEEEEJRKNS4_14xrange_adaptorINS4_12placeholders5xtuphESG_SG_EEEE6invokeESD_SJ_, symObjAddr: 0xFE60, symBinAddr: 0x100012CE8, symSize: 0x48 }
  - { offsetInCU: 0x2D356, offset: 0x2D356, size: 0x8, addend: 0x0, symName: __ZNK2xt6detail17slice_getter_implINS_7svectorImLm4ENSt3__19allocatorImEELb1EEEEclINS_12placeholders5xtuphESA_SA_EENS3_5arrayIlLm3EEERKNS_14xrange_adaptorIT_T0_T1_EE, symObjAddr: 0xFF4C, symBinAddr: 0x100012DD4, symSize: 0x94 }
  - { offsetInCU: 0x2D3B5, offset: 0x2D3B5, size: 0x8, addend: 0x0, symName: __ZNK2xt14xrange_adaptorINS_12placeholders5xtuphES2_S2_E3getIS2_S2_S2_EENSt3__19enable_ifIXaaaantsr3xtl11is_integralIT_EE5valuentsr3xtl11is_integralIT0_EE5valuentsr3xtl11is_integralIT1_EE5valueENS_4xallIlEEE4typeEm, symObjAddr: 0xFFE0, symBinAddr: 0x100012E68, symSize: 0x30 }
  - { offsetInCU: 0x2D405, offset: 0x2D405, size: 0x8, addend: 0x0, symName: __ZNK2xt4xallIlEclEl, symObjAddr: 0x10010, symBinAddr: 0x100012E98, symSize: 0x18 }
  - { offsetInCU: 0x2D43B, offset: 0x2D43B, size: 0x8, addend: 0x0, symName: __ZNK2xt4xallIlE4sizeEv, symObjAddr: 0x10028, symBinAddr: 0x100012EB0, symSize: 0x18 }
  - { offsetInCU: 0x2D463, offset: 0x2D463, size: 0x8, addend: 0x0, symName: __ZNK2xt4xallIlE9step_sizeEv, symObjAddr: 0x10040, symBinAddr: 0x100012EC8, symSize: 0x14 }
  - { offsetInCU: 0x2D48B, offset: 0x2D48B, size: 0x8, addend: 0x0, symName: __ZN2xt4xallIlEC1El, symObjAddr: 0x10054, symBinAddr: 0x100012EDC, symSize: 0x34 }
  - { offsetInCU: 0x2D4C5, offset: 0x2D4C5, size: 0x8, addend: 0x0, symName: __ZN2xt4xallIlEC2El, symObjAddr: 0x10088, symBinAddr: 0x100012F10, symSize: 0x20 }
  - { offsetInCU: 0x2D4FE, offset: 0x2D4FE, size: 0x8, addend: 0x0, symName: __ZN5mpark6detail6access15recursive_union7get_altIRKNS0_15recursive_unionILNS0_5TraitE0ELm0EJlN2xt14xrange_adaptorINS6_12placeholders5xtuphEllEENS7_IlS9_lEENS7_IllS9_EENS7_IlS9_S9_EENS7_IS9_lS9_EENS7_IS9_S9_lEENS7_IlllEENS7_IS9_S9_S9_EENS6_6xrangeIlEENS6_14xstepped_rangeIlEENS6_8xall_tagENS6_13xellipsis_tagENS6_12xnewaxis_tagEEEELm8EEEODaOT_NS_16in_place_index_tIXT0_EEE, symObjAddr: 0x100A8, symBinAddr: 0x100012F30, symSize: 0x28 }
  - { offsetInCU: 0x2D53F, offset: 0x2D53F, size: 0x8, addend: 0x0, symName: __ZN5mpark6detail6access15recursive_union7get_altIRKNS0_15recursive_unionILNS0_5TraitE0ELm1EJN2xt14xrange_adaptorINS6_12placeholders5xtuphEllEENS7_IlS9_lEENS7_IllS9_EENS7_IlS9_S9_EENS7_IS9_lS9_EENS7_IS9_S9_lEENS7_IlllEENS7_IS9_S9_S9_EENS6_6xrangeIlEENS6_14xstepped_rangeIlEENS6_8xall_tagENS6_13xellipsis_tagENS6_12xnewaxis_tagEEEELm7EEEODaOT_NS_16in_place_index_tIXT0_EEE, symObjAddr: 0x100D0, symBinAddr: 0x100012F58, symSize: 0x28 }
  - { offsetInCU: 0x2D580, offset: 0x2D580, size: 0x8, addend: 0x0, symName: __ZN5mpark6detail6access15recursive_union7get_altIRKNS0_15recursive_unionILNS0_5TraitE0ELm2EJN2xt14xrange_adaptorIlNS6_12placeholders5xtuphElEENS7_IllS9_EENS7_IlS9_S9_EENS7_IS9_lS9_EENS7_IS9_S9_lEENS7_IlllEENS7_IS9_S9_S9_EENS6_6xrangeIlEENS6_14xstepped_rangeIlEENS6_8xall_tagENS6_13xellipsis_tagENS6_12xnewaxis_tagEEEELm6EEEODaOT_NS_16in_place_index_tIXT0_EEE, symObjAddr: 0x100F8, symBinAddr: 0x100012F80, symSize: 0x28 }
  - { offsetInCU: 0x2D5C1, offset: 0x2D5C1, size: 0x8, addend: 0x0, symName: __ZN5mpark6detail6access15recursive_union7get_altIRKNS0_15recursive_unionILNS0_5TraitE0ELm3EJN2xt14xrange_adaptorIllNS6_12placeholders5xtuphEEENS7_IlS9_S9_EENS7_IS9_lS9_EENS7_IS9_S9_lEENS7_IlllEENS7_IS9_S9_S9_EENS6_6xrangeIlEENS6_14xstepped_rangeIlEENS6_8xall_tagENS6_13xellipsis_tagENS6_12xnewaxis_tagEEEELm5EEEODaOT_NS_16in_place_index_tIXT0_EEE, symObjAddr: 0x10120, symBinAddr: 0x100012FA8, symSize: 0x28 }
  - { offsetInCU: 0x2D602, offset: 0x2D602, size: 0x8, addend: 0x0, symName: __ZN5mpark6detail6access15recursive_union7get_altIRKNS0_15recursive_unionILNS0_5TraitE0ELm4EJN2xt14xrange_adaptorIlNS6_12placeholders5xtuphES9_EENS7_IS9_lS9_EENS7_IS9_S9_lEENS7_IlllEENS7_IS9_S9_S9_EENS6_6xrangeIlEENS6_14xstepped_rangeIlEENS6_8xall_tagENS6_13xellipsis_tagENS6_12xnewaxis_tagEEEELm4EEEODaOT_NS_16in_place_index_tIXT0_EEE, symObjAddr: 0x10148, symBinAddr: 0x100012FD0, symSize: 0x28 }
  - { offsetInCU: 0x2D643, offset: 0x2D643, size: 0x8, addend: 0x0, symName: __ZN5mpark6detail6access15recursive_union7get_altIRKNS0_15recursive_unionILNS0_5TraitE0ELm5EJN2xt14xrange_adaptorINS6_12placeholders5xtuphElS9_EENS7_IS9_S9_lEENS7_IlllEENS7_IS9_S9_S9_EENS6_6xrangeIlEENS6_14xstepped_rangeIlEENS6_8xall_tagENS6_13xellipsis_tagENS6_12xnewaxis_tagEEEELm3EEEODaOT_NS_16in_place_index_tIXT0_EEE, symObjAddr: 0x10170, symBinAddr: 0x100012FF8, symSize: 0x28 }
  - { offsetInCU: 0x2D684, offset: 0x2D684, size: 0x8, addend: 0x0, symName: __ZN5mpark6detail6access15recursive_union7get_altIRKNS0_15recursive_unionILNS0_5TraitE0ELm6EJN2xt14xrange_adaptorINS6_12placeholders5xtuphES9_lEENS7_IlllEENS7_IS9_S9_S9_EENS6_6xrangeIlEENS6_14xstepped_rangeIlEENS6_8xall_tagENS6_13xellipsis_tagENS6_12xnewaxis_tagEEEELm2EEEODaOT_NS_16in_place_index_tIXT0_EEE, symObjAddr: 0x10198, symBinAddr: 0x100013020, symSize: 0x28 }
  - { offsetInCU: 0x2D6C5, offset: 0x2D6C5, size: 0x8, addend: 0x0, symName: __ZN5mpark6detail6access15recursive_union7get_altIRKNS0_15recursive_unionILNS0_5TraitE0ELm7EJN2xt14xrange_adaptorIlllEENS7_INS6_12placeholders5xtuphESA_SA_EENS6_6xrangeIlEENS6_14xstepped_rangeIlEENS6_8xall_tagENS6_13xellipsis_tagENS6_12xnewaxis_tagEEEELm1EEEODaOT_NS_16in_place_index_tIXT0_EEE, symObjAddr: 0x101C0, symBinAddr: 0x100013048, symSize: 0x28 }
  - { offsetInCU: 0x2D706, offset: 0x2D706, size: 0x8, addend: 0x0, symName: __ZN5mpark6detail6access15recursive_union7get_altIRKNS0_15recursive_unionILNS0_5TraitE0ELm8EJN2xt14xrange_adaptorINS6_12placeholders5xtuphES9_S9_EENS6_6xrangeIlEENS6_14xstepped_rangeIlEENS6_8xall_tagENS6_13xellipsis_tagENS6_12xnewaxis_tagEEEEEEODaOT_NS_16in_place_index_tILm0EEE, symObjAddr: 0x101E8, symBinAddr: 0x100013070, symSize: 0x24 }
  - { offsetInCU: 0x2D748, offset: 0x2D748, size: 0x8, addend: 0x0, symName: __ZN5mpark6detail10visitation4base23visit_return_type_checkINSt3__15arrayIlLm3EEES6_E6invokeINS1_7variant13value_visitorIRN2xt6detail17slice_getter_implINSB_7svectorImLm4ENS4_9allocatorImEELb1EEEEEEEJRKNS0_3altILm9ENSB_6xrangeIlEEEEEEEDcOT_DpOT0_, symObjAddr: 0x1020C, symBinAddr: 0x100013094, symSize: 0x48 }
  - { offsetInCU: 0x2D78E, offset: 0x2D78E, size: 0x8, addend: 0x0, symName: __ZN5mpark6detail6access4base7get_altILm9ERKNS0_4baseILNS0_5TraitE0EJlN2xt14xrange_adaptorINS6_12placeholders5xtuphEllEENS7_IlS9_lEENS7_IllS9_EENS7_IlS9_S9_EENS7_IS9_lS9_EENS7_IS9_S9_lEENS7_IlllEENS7_IS9_S9_S9_EENS6_6xrangeIlEENS6_14xstepped_rangeIlEENS6_8xall_tagENS6_13xellipsis_tagENS6_12xnewaxis_tagEEEEEEODaOT0_, symObjAddr: 0x10254, symBinAddr: 0x1000130DC, symSize: 0x2C }
  - { offsetInCU: 0x2D7C5, offset: 0x2D7C5, size: 0x8, addend: 0x0, symName: __ZNK5mpark6detail10visitation7variant13value_visitorIRN2xt6detail17slice_getter_implINS4_7svectorImLm4ENSt3__19allocatorImEELb1EEEEEEclIJRKNS0_3altILm9ENS4_6xrangeIlEEEEEEEDcDpOT_, symObjAddr: 0x10324, symBinAddr: 0x1000131AC, symSize: 0x4C }
  - { offsetInCU: 0x2D80A, offset: 0x2D80A, size: 0x8, addend: 0x0, symName: __ZN5mpark6detail10visitation7variant26visit_exhaustiveness_checkIRN2xt6detail17slice_getter_implINS4_7svectorImLm4ENSt3__19allocatorImEELb1EEEEEJRKNS4_6xrangeIlEEEE6invokeESD_SH_, symObjAddr: 0x10370, symBinAddr: 0x1000131F8, symSize: 0x48 }
  - { offsetInCU: 0x2D83D, offset: 0x2D83D, size: 0x8, addend: 0x0, symName: __ZNK2xt6detail17slice_getter_implINS_7svectorImLm4ENSt3__19allocatorImEELb1EEEEclIlEENS3_5arrayIlLm3EEERKNS_6xrangeIT_EE, symObjAddr: 0x1045C, symBinAddr: 0x1000132E4, symSize: 0x50 }
  - { offsetInCU: 0x2D87A, offset: 0x2D87A, size: 0x8, addend: 0x0, symName: __ZN5mpark6detail6access15recursive_union7get_altIRKNS0_15recursive_unionILNS0_5TraitE0ELm0EJlN2xt14xrange_adaptorINS6_12placeholders5xtuphEllEENS7_IlS9_lEENS7_IllS9_EENS7_IlS9_S9_EENS7_IS9_lS9_EENS7_IS9_S9_lEENS7_IlllEENS7_IS9_S9_S9_EENS6_6xrangeIlEENS6_14xstepped_rangeIlEENS6_8xall_tagENS6_13xellipsis_tagENS6_12xnewaxis_tagEEEELm9EEEODaOT_NS_16in_place_index_tIXT0_EEE, symObjAddr: 0x104AC, symBinAddr: 0x100013334, symSize: 0x28 }
  - { offsetInCU: 0x2D8BB, offset: 0x2D8BB, size: 0x8, addend: 0x0, symName: __ZN5mpark6detail6access15recursive_union7get_altIRKNS0_15recursive_unionILNS0_5TraitE0ELm1EJN2xt14xrange_adaptorINS6_12placeholders5xtuphEllEENS7_IlS9_lEENS7_IllS9_EENS7_IlS9_S9_EENS7_IS9_lS9_EENS7_IS9_S9_lEENS7_IlllEENS7_IS9_S9_S9_EENS6_6xrangeIlEENS6_14xstepped_rangeIlEENS6_8xall_tagENS6_13xellipsis_tagENS6_12xnewaxis_tagEEEELm8EEEODaOT_NS_16in_place_index_tIXT0_EEE, symObjAddr: 0x104D4, symBinAddr: 0x10001335C, symSize: 0x28 }
  - { offsetInCU: 0x2D8FC, offset: 0x2D8FC, size: 0x8, addend: 0x0, symName: __ZN5mpark6detail6access15recursive_union7get_altIRKNS0_15recursive_unionILNS0_5TraitE0ELm2EJN2xt14xrange_adaptorIlNS6_12placeholders5xtuphElEENS7_IllS9_EENS7_IlS9_S9_EENS7_IS9_lS9_EENS7_IS9_S9_lEENS7_IlllEENS7_IS9_S9_S9_EENS6_6xrangeIlEENS6_14xstepped_rangeIlEENS6_8xall_tagENS6_13xellipsis_tagENS6_12xnewaxis_tagEEEELm7EEEODaOT_NS_16in_place_index_tIXT0_EEE, symObjAddr: 0x104FC, symBinAddr: 0x100013384, symSize: 0x28 }
  - { offsetInCU: 0x2D93D, offset: 0x2D93D, size: 0x8, addend: 0x0, symName: __ZN5mpark6detail6access15recursive_union7get_altIRKNS0_15recursive_unionILNS0_5TraitE0ELm3EJN2xt14xrange_adaptorIllNS6_12placeholders5xtuphEEENS7_IlS9_S9_EENS7_IS9_lS9_EENS7_IS9_S9_lEENS7_IlllEENS7_IS9_S9_S9_EENS6_6xrangeIlEENS6_14xstepped_rangeIlEENS6_8xall_tagENS6_13xellipsis_tagENS6_12xnewaxis_tagEEEELm6EEEODaOT_NS_16in_place_index_tIXT0_EEE, symObjAddr: 0x10524, symBinAddr: 0x1000133AC, symSize: 0x28 }
  - { offsetInCU: 0x2D97E, offset: 0x2D97E, size: 0x8, addend: 0x0, symName: __ZN5mpark6detail6access15recursive_union7get_altIRKNS0_15recursive_unionILNS0_5TraitE0ELm4EJN2xt14xrange_adaptorIlNS6_12placeholders5xtuphES9_EENS7_IS9_lS9_EENS7_IS9_S9_lEENS7_IlllEENS7_IS9_S9_S9_EENS6_6xrangeIlEENS6_14xstepped_rangeIlEENS6_8xall_tagENS6_13xellipsis_tagENS6_12xnewaxis_tagEEEELm5EEEODaOT_NS_16in_place_index_tIXT0_EEE, symObjAddr: 0x1054C, symBinAddr: 0x1000133D4, symSize: 0x28 }
  - { offsetInCU: 0x2D9BF, offset: 0x2D9BF, size: 0x8, addend: 0x0, symName: __ZN5mpark6detail6access15recursive_union7get_altIRKNS0_15recursive_unionILNS0_5TraitE0ELm5EJN2xt14xrange_adaptorINS6_12placeholders5xtuphElS9_EENS7_IS9_S9_lEENS7_IlllEENS7_IS9_S9_S9_EENS6_6xrangeIlEENS6_14xstepped_rangeIlEENS6_8xall_tagENS6_13xellipsis_tagENS6_12xnewaxis_tagEEEELm4EEEODaOT_NS_16in_place_index_tIXT0_EEE, symObjAddr: 0x10574, symBinAddr: 0x1000133FC, symSize: 0x28 }
  - { offsetInCU: 0x2DA00, offset: 0x2DA00, size: 0x8, addend: 0x0, symName: __ZN5mpark6detail6access15recursive_union7get_altIRKNS0_15recursive_unionILNS0_5TraitE0ELm6EJN2xt14xrange_adaptorINS6_12placeholders5xtuphES9_lEENS7_IlllEENS7_IS9_S9_S9_EENS6_6xrangeIlEENS6_14xstepped_rangeIlEENS6_8xall_tagENS6_13xellipsis_tagENS6_12xnewaxis_tagEEEELm3EEEODaOT_NS_16in_place_index_tIXT0_EEE, symObjAddr: 0x1059C, symBinAddr: 0x100013424, symSize: 0x28 }
  - { offsetInCU: 0x2DA41, offset: 0x2DA41, size: 0x8, addend: 0x0, symName: __ZN5mpark6detail6access15recursive_union7get_altIRKNS0_15recursive_unionILNS0_5TraitE0ELm7EJN2xt14xrange_adaptorIlllEENS7_INS6_12placeholders5xtuphESA_SA_EENS6_6xrangeIlEENS6_14xstepped_rangeIlEENS6_8xall_tagENS6_13xellipsis_tagENS6_12xnewaxis_tagEEEELm2EEEODaOT_NS_16in_place_index_tIXT0_EEE, symObjAddr: 0x105C4, symBinAddr: 0x10001344C, symSize: 0x28 }
  - { offsetInCU: 0x2DA82, offset: 0x2DA82, size: 0x8, addend: 0x0, symName: __ZN5mpark6detail6access15recursive_union7get_altIRKNS0_15recursive_unionILNS0_5TraitE0ELm8EJN2xt14xrange_adaptorINS6_12placeholders5xtuphES9_S9_EENS6_6xrangeIlEENS6_14xstepped_rangeIlEENS6_8xall_tagENS6_13xellipsis_tagENS6_12xnewaxis_tagEEEELm1EEEODaOT_NS_16in_place_index_tIXT0_EEE, symObjAddr: 0x105EC, symBinAddr: 0x100013474, symSize: 0x28 }
  - { offsetInCU: 0x2DAC3, offset: 0x2DAC3, size: 0x8, addend: 0x0, symName: __ZN5mpark6detail6access15recursive_union7get_altIRKNS0_15recursive_unionILNS0_5TraitE0ELm9EJN2xt6xrangeIlEENS6_14xstepped_rangeIlEENS6_8xall_tagENS6_13xellipsis_tagENS6_12xnewaxis_tagEEEEEEODaOT_NS_16in_place_index_tILm0EEE, symObjAddr: 0x10614, symBinAddr: 0x10001349C, symSize: 0x24 }
  - { offsetInCU: 0x2DB05, offset: 0x2DB05, size: 0x8, addend: 0x0, symName: __ZN5mpark6detail10visitation4base23visit_return_type_checkINSt3__15arrayIlLm3EEES6_E6invokeINS1_7variant13value_visitorIRN2xt6detail17slice_getter_implINSB_7svectorImLm4ENS4_9allocatorImEELb1EEEEEEEJRKNS0_3altILm10ENSB_14xstepped_rangeIlEEEEEEEDcOT_DpOT0_, symObjAddr: 0x10638, symBinAddr: 0x1000134C0, symSize: 0x48 }
  - { offsetInCU: 0x2DB4B, offset: 0x2DB4B, size: 0x8, addend: 0x0, symName: __ZN5mpark6detail6access4base7get_altILm10ERKNS0_4baseILNS0_5TraitE0EJlN2xt14xrange_adaptorINS6_12placeholders5xtuphEllEENS7_IlS9_lEENS7_IllS9_EENS7_IlS9_S9_EENS7_IS9_lS9_EENS7_IS9_S9_lEENS7_IlllEENS7_IS9_S9_S9_EENS6_6xrangeIlEENS6_14xstepped_rangeIlEENS6_8xall_tagENS6_13xellipsis_tagENS6_12xnewaxis_tagEEEEEEODaOT0_, symObjAddr: 0x10680, symBinAddr: 0x100013508, symSize: 0x2C }
  - { offsetInCU: 0x2DB82, offset: 0x2DB82, size: 0x8, addend: 0x0, symName: __ZNK5mpark6detail10visitation7variant13value_visitorIRN2xt6detail17slice_getter_implINS4_7svectorImLm4ENSt3__19allocatorImEELb1EEEEEEclIJRKNS0_3altILm10ENS4_14xstepped_rangeIlEEEEEEEDcDpOT_, symObjAddr: 0x10750, symBinAddr: 0x1000135D8, symSize: 0x4C }
  - { offsetInCU: 0x2DBC7, offset: 0x2DBC7, size: 0x8, addend: 0x0, symName: __ZN5mpark6detail10visitation7variant26visit_exhaustiveness_checkIRN2xt6detail17slice_getter_implINS4_7svectorImLm4ENSt3__19allocatorImEELb1EEEEEJRKNS4_14xstepped_rangeIlEEEE6invokeESD_SH_, symObjAddr: 0x1079C, symBinAddr: 0x100013624, symSize: 0x48 }
  - { offsetInCU: 0x2DBFA, offset: 0x2DBFA, size: 0x8, addend: 0x0, symName: __ZNK2xt6detail17slice_getter_implINS_7svectorImLm4ENSt3__19allocatorImEELb1EEEEclIlEENS3_5arrayIlLm3EEERKNS_14xstepped_rangeIT_EE, symObjAddr: 0x10888, symBinAddr: 0x100013710, symSize: 0x64 }
  - { offsetInCU: 0x2DC38, offset: 0x2DC38, size: 0x8, addend: 0x0, symName: __ZNK2xt14xstepped_rangeIlE9step_sizeEmm, symObjAddr: 0x108EC, symBinAddr: 0x100013774, symSize: 0x28 }
  - { offsetInCU: 0x2DC77, offset: 0x2DC77, size: 0x8, addend: 0x0, symName: __ZN5mpark6detail6access15recursive_union7get_altIRKNS0_15recursive_unionILNS0_5TraitE0ELm0EJlN2xt14xrange_adaptorINS6_12placeholders5xtuphEllEENS7_IlS9_lEENS7_IllS9_EENS7_IlS9_S9_EENS7_IS9_lS9_EENS7_IS9_S9_lEENS7_IlllEENS7_IS9_S9_S9_EENS6_6xrangeIlEENS6_14xstepped_rangeIlEENS6_8xall_tagENS6_13xellipsis_tagENS6_12xnewaxis_tagEEEELm10EEEODaOT_NS_16in_place_index_tIXT0_EEE, symObjAddr: 0x10914, symBinAddr: 0x10001379C, symSize: 0x28 }
  - { offsetInCU: 0x2DCB8, offset: 0x2DCB8, size: 0x8, addend: 0x0, symName: __ZN5mpark6detail6access15recursive_union7get_altIRKNS0_15recursive_unionILNS0_5TraitE0ELm1EJN2xt14xrange_adaptorINS6_12placeholders5xtuphEllEENS7_IlS9_lEENS7_IllS9_EENS7_IlS9_S9_EENS7_IS9_lS9_EENS7_IS9_S9_lEENS7_IlllEENS7_IS9_S9_S9_EENS6_6xrangeIlEENS6_14xstepped_rangeIlEENS6_8xall_tagENS6_13xellipsis_tagENS6_12xnewaxis_tagEEEELm9EEEODaOT_NS_16in_place_index_tIXT0_EEE, symObjAddr: 0x1093C, symBinAddr: 0x1000137C4, symSize: 0x28 }
  - { offsetInCU: 0x2DCF9, offset: 0x2DCF9, size: 0x8, addend: 0x0, symName: __ZN5mpark6detail6access15recursive_union7get_altIRKNS0_15recursive_unionILNS0_5TraitE0ELm2EJN2xt14xrange_adaptorIlNS6_12placeholders5xtuphElEENS7_IllS9_EENS7_IlS9_S9_EENS7_IS9_lS9_EENS7_IS9_S9_lEENS7_IlllEENS7_IS9_S9_S9_EENS6_6xrangeIlEENS6_14xstepped_rangeIlEENS6_8xall_tagENS6_13xellipsis_tagENS6_12xnewaxis_tagEEEELm8EEEODaOT_NS_16in_place_index_tIXT0_EEE, symObjAddr: 0x10964, symBinAddr: 0x1000137EC, symSize: 0x28 }
  - { offsetInCU: 0x2DD3A, offset: 0x2DD3A, size: 0x8, addend: 0x0, symName: __ZN5mpark6detail6access15recursive_union7get_altIRKNS0_15recursive_unionILNS0_5TraitE0ELm3EJN2xt14xrange_adaptorIllNS6_12placeholders5xtuphEEENS7_IlS9_S9_EENS7_IS9_lS9_EENS7_IS9_S9_lEENS7_IlllEENS7_IS9_S9_S9_EENS6_6xrangeIlEENS6_14xstepped_rangeIlEENS6_8xall_tagENS6_13xellipsis_tagENS6_12xnewaxis_tagEEEELm7EEEODaOT_NS_16in_place_index_tIXT0_EEE, symObjAddr: 0x1098C, symBinAddr: 0x100013814, symSize: 0x28 }
  - { offsetInCU: 0x2DD7B, offset: 0x2DD7B, size: 0x8, addend: 0x0, symName: __ZN5mpark6detail6access15recursive_union7get_altIRKNS0_15recursive_unionILNS0_5TraitE0ELm4EJN2xt14xrange_adaptorIlNS6_12placeholders5xtuphES9_EENS7_IS9_lS9_EENS7_IS9_S9_lEENS7_IlllEENS7_IS9_S9_S9_EENS6_6xrangeIlEENS6_14xstepped_rangeIlEENS6_8xall_tagENS6_13xellipsis_tagENS6_12xnewaxis_tagEEEELm6EEEODaOT_NS_16in_place_index_tIXT0_EEE, symObjAddr: 0x109B4, symBinAddr: 0x10001383C, symSize: 0x28 }
  - { offsetInCU: 0x2DDBC, offset: 0x2DDBC, size: 0x8, addend: 0x0, symName: __ZN5mpark6detail6access15recursive_union7get_altIRKNS0_15recursive_unionILNS0_5TraitE0ELm5EJN2xt14xrange_adaptorINS6_12placeholders5xtuphElS9_EENS7_IS9_S9_lEENS7_IlllEENS7_IS9_S9_S9_EENS6_6xrangeIlEENS6_14xstepped_rangeIlEENS6_8xall_tagENS6_13xellipsis_tagENS6_12xnewaxis_tagEEEELm5EEEODaOT_NS_16in_place_index_tIXT0_EEE, symObjAddr: 0x109DC, symBinAddr: 0x100013864, symSize: 0x28 }
  - { offsetInCU: 0x2DDFD, offset: 0x2DDFD, size: 0x8, addend: 0x0, symName: __ZN5mpark6detail6access15recursive_union7get_altIRKNS0_15recursive_unionILNS0_5TraitE0ELm6EJN2xt14xrange_adaptorINS6_12placeholders5xtuphES9_lEENS7_IlllEENS7_IS9_S9_S9_EENS6_6xrangeIlEENS6_14xstepped_rangeIlEENS6_8xall_tagENS6_13xellipsis_tagENS6_12xnewaxis_tagEEEELm4EEEODaOT_NS_16in_place_index_tIXT0_EEE, symObjAddr: 0x10A04, symBinAddr: 0x10001388C, symSize: 0x28 }
  - { offsetInCU: 0x2DE3E, offset: 0x2DE3E, size: 0x8, addend: 0x0, symName: __ZN5mpark6detail6access15recursive_union7get_altIRKNS0_15recursive_unionILNS0_5TraitE0ELm7EJN2xt14xrange_adaptorIlllEENS7_INS6_12placeholders5xtuphESA_SA_EENS6_6xrangeIlEENS6_14xstepped_rangeIlEENS6_8xall_tagENS6_13xellipsis_tagENS6_12xnewaxis_tagEEEELm3EEEODaOT_NS_16in_place_index_tIXT0_EEE, symObjAddr: 0x10A2C, symBinAddr: 0x1000138B4, symSize: 0x28 }
  - { offsetInCU: 0x2DE7F, offset: 0x2DE7F, size: 0x8, addend: 0x0, symName: __ZN5mpark6detail6access15recursive_union7get_altIRKNS0_15recursive_unionILNS0_5TraitE0ELm8EJN2xt14xrange_adaptorINS6_12placeholders5xtuphES9_S9_EENS6_6xrangeIlEENS6_14xstepped_rangeIlEENS6_8xall_tagENS6_13xellipsis_tagENS6_12xnewaxis_tagEEEELm2EEEODaOT_NS_16in_place_index_tIXT0_EEE, symObjAddr: 0x10A54, symBinAddr: 0x1000138DC, symSize: 0x28 }
  - { offsetInCU: 0x2DEC0, offset: 0x2DEC0, size: 0x8, addend: 0x0, symName: __ZN5mpark6detail6access15recursive_union7get_altIRKNS0_15recursive_unionILNS0_5TraitE0ELm9EJN2xt6xrangeIlEENS6_14xstepped_rangeIlEENS6_8xall_tagENS6_13xellipsis_tagENS6_12xnewaxis_tagEEEELm1EEEODaOT_NS_16in_place_index_tIXT0_EEE, symObjAddr: 0x10A7C, symBinAddr: 0x100013904, symSize: 0x28 }
  - { offsetInCU: 0x2DF01, offset: 0x2DF01, size: 0x8, addend: 0x0, symName: __ZN5mpark6detail6access15recursive_union7get_altIRKNS0_15recursive_unionILNS0_5TraitE0ELm10EJN2xt14xstepped_rangeIlEENS6_8xall_tagENS6_13xellipsis_tagENS6_12xnewaxis_tagEEEEEEODaOT_NS_16in_place_index_tILm0EEE, symObjAddr: 0x10AA4, symBinAddr: 0x10001392C, symSize: 0x24 }
  - { offsetInCU: 0x2DF38, offset: 0x2DF38, size: 0x8, addend: 0x0, symName: __ZN5mpark6detail10visitation4base23visit_return_type_checkINSt3__15arrayIlLm3EEES6_E6invokeINS1_7variant13value_visitorIRN2xt6detail17slice_getter_implINSB_7svectorImLm4ENS4_9allocatorImEELb1EEEEEEEJRKNS0_3altILm11ENSB_8xall_tagEEEEEEDcOT_DpOT0_, symObjAddr: 0x10AC8, symBinAddr: 0x100013950, symSize: 0x48 }
  - { offsetInCU: 0x2DF7E, offset: 0x2DF7E, size: 0x8, addend: 0x0, symName: __ZN5mpark6detail6access4base7get_altILm11ERKNS0_4baseILNS0_5TraitE0EJlN2xt14xrange_adaptorINS6_12placeholders5xtuphEllEENS7_IlS9_lEENS7_IllS9_EENS7_IlS9_S9_EENS7_IS9_lS9_EENS7_IS9_S9_lEENS7_IlllEENS7_IS9_S9_S9_EENS6_6xrangeIlEENS6_14xstepped_rangeIlEENS6_8xall_tagENS6_13xellipsis_tagENS6_12xnewaxis_tagEEEEEEODaOT0_, symObjAddr: 0x10B10, symBinAddr: 0x100013998, symSize: 0x2C }
  - { offsetInCU: 0x2DFB5, offset: 0x2DFB5, size: 0x8, addend: 0x0, symName: __ZNK5mpark6detail10visitation7variant13value_visitorIRN2xt6detail17slice_getter_implINS4_7svectorImLm4ENSt3__19allocatorImEELb1EEEEEEclIJRKNS0_3altILm11ENS4_8xall_tagEEEEEEDcDpOT_, symObjAddr: 0x10BE0, symBinAddr: 0x100013A68, symSize: 0x4C }
  - { offsetInCU: 0x2DFFF, offset: 0x2DFFF, size: 0x8, addend: 0x0, symName: __ZN5mpark6detail10visitation7variant26visit_exhaustiveness_checkIRN2xt6detail17slice_getter_implINS4_7svectorImLm4ENSt3__19allocatorImEELb1EEEEEJRKNS4_8xall_tagEEE6invokeESD_SG_, symObjAddr: 0x10C2C, symBinAddr: 0x100013AB4, symSize: 0x48 }
  - { offsetInCU: 0x2E032, offset: 0x2E032, size: 0x8, addend: 0x0, symName: __ZNK2xt6detail17slice_getter_implINS_7svectorImLm4ENSt3__19allocatorImEELb1EEEEclINS_8xall_tagEEENS3_5arrayIlLm3EEERKT_, symObjAddr: 0x10D18, symBinAddr: 0x100013BA0, symSize: 0x3C }
  - { offsetInCU: 0x2E06B, offset: 0x2E06B, size: 0x8, addend: 0x0, symName: __ZN5mpark6detail10visitation4base23visit_return_type_checkINSt3__15arrayIlLm3EEES6_E6invokeINS1_7variant13value_visitorIRN2xt6detail17slice_getter_implINSB_7svectorImLm4ENS4_9allocatorImEELb1EEEEEEEJRKNS0_3altILm12ENSB_13xellipsis_tagEEEEEEDcOT_DpOT0_, symObjAddr: 0x10D54, symBinAddr: 0x100013BDC, symSize: 0x48 }
  - { offsetInCU: 0x2E0B1, offset: 0x2E0B1, size: 0x8, addend: 0x0, symName: __ZN5mpark6detail6access4base7get_altILm12ERKNS0_4baseILNS0_5TraitE0EJlN2xt14xrange_adaptorINS6_12placeholders5xtuphEllEENS7_IlS9_lEENS7_IllS9_EENS7_IlS9_S9_EENS7_IS9_lS9_EENS7_IS9_S9_lEENS7_IlllEENS7_IS9_S9_S9_EENS6_6xrangeIlEENS6_14xstepped_rangeIlEENS6_8xall_tagENS6_13xellipsis_tagENS6_12xnewaxis_tagEEEEEEODaOT0_, symObjAddr: 0x10D9C, symBinAddr: 0x100013C24, symSize: 0x2C }
  - { offsetInCU: 0x2E0E8, offset: 0x2E0E8, size: 0x8, addend: 0x0, symName: __ZNK5mpark6detail10visitation7variant13value_visitorIRN2xt6detail17slice_getter_implINS4_7svectorImLm4ENSt3__19allocatorImEELb1EEEEEEclIJRKNS0_3altILm12ENS4_13xellipsis_tagEEEEEEDcDpOT_, symObjAddr: 0x10E6C, symBinAddr: 0x100013CF4, symSize: 0x4C }
  - { offsetInCU: 0x2E132, offset: 0x2E132, size: 0x8, addend: 0x0, symName: __ZN5mpark6detail10visitation7variant26visit_exhaustiveness_checkIRN2xt6detail17slice_getter_implINS4_7svectorImLm4ENSt3__19allocatorImEELb1EEEEEJRKNS4_13xellipsis_tagEEE6invokeESD_SG_, symObjAddr: 0x10EB8, symBinAddr: 0x100013D40, symSize: 0x48 }
  - { offsetInCU: 0x2E165, offset: 0x2E165, size: 0x8, addend: 0x0, symName: __ZNK2xt6detail17slice_getter_implINS_7svectorImLm4ENSt3__19allocatorImEELb1EEEEclINS_13xellipsis_tagEEENS3_5arrayIlLm3EEERKT_, symObjAddr: 0x10FA4, symBinAddr: 0x100013E2C, symSize: 0x3C }
  - { offsetInCU: 0x2E19E, offset: 0x2E19E, size: 0x8, addend: 0x0, symName: __ZN5mpark6detail10visitation4base23visit_return_type_checkINSt3__15arrayIlLm3EEES6_E6invokeINS1_7variant13value_visitorIRN2xt6detail17slice_getter_implINSB_7svectorImLm4ENS4_9allocatorImEELb1EEEEEEEJRKNS0_3altILm13ENSB_12xnewaxis_tagEEEEEEDcOT_DpOT0_, symObjAddr: 0x10FE0, symBinAddr: 0x100013E68, symSize: 0x48 }
  - { offsetInCU: 0x2E1E4, offset: 0x2E1E4, size: 0x8, addend: 0x0, symName: __ZN5mpark6detail6access4base7get_altILm13ERKNS0_4baseILNS0_5TraitE0EJlN2xt14xrange_adaptorINS6_12placeholders5xtuphEllEENS7_IlS9_lEENS7_IllS9_EENS7_IlS9_S9_EENS7_IS9_lS9_EENS7_IS9_S9_lEENS7_IlllEENS7_IS9_S9_S9_EENS6_6xrangeIlEENS6_14xstepped_rangeIlEENS6_8xall_tagENS6_13xellipsis_tagENS6_12xnewaxis_tagEEEEEEODaOT0_, symObjAddr: 0x11028, symBinAddr: 0x100013EB0, symSize: 0x2C }
  - { offsetInCU: 0x2E21B, offset: 0x2E21B, size: 0x8, addend: 0x0, symName: __ZNK5mpark6detail10visitation7variant13value_visitorIRN2xt6detail17slice_getter_implINS4_7svectorImLm4ENSt3__19allocatorImEELb1EEEEEEclIJRKNS0_3altILm13ENS4_12xnewaxis_tagEEEEEEDcDpOT_, symObjAddr: 0x110F8, symBinAddr: 0x100013F80, symSize: 0x4C }
  - { offsetInCU: 0x2E265, offset: 0x2E265, size: 0x8, addend: 0x0, symName: __ZN5mpark6detail10visitation7variant26visit_exhaustiveness_checkIRN2xt6detail17slice_getter_implINS4_7svectorImLm4ENSt3__19allocatorImEELb1EEEEEJRKNS4_12xnewaxis_tagEEE6invokeESD_SG_, symObjAddr: 0x11144, symBinAddr: 0x100013FCC, symSize: 0x48 }
  - { offsetInCU: 0x2E298, offset: 0x2E298, size: 0x8, addend: 0x0, symName: __ZNK2xt6detail17slice_getter_implINS_7svectorImLm4ENSt3__19allocatorImEELb1EEEEclINS_12xnewaxis_tagEEENS3_5arrayIlLm3EEERKT_, symObjAddr: 0x11230, symBinAddr: 0x1000140B8, symSize: 0x3C }
  - { offsetInCU: 0x2E2D1, offset: 0x2E2D1, size: 0x8, addend: 0x0, symName: __ZN2xt6detail20inner_storage_getterIKNS_16xarray_containerINS_7uvectorIdNSt3__19allocatorIdEEEELNS_11layout_typeE2ENS_7svectorImLm4ENS5_ImEELb1EEENS_22xtensor_expression_tagEEEE11get_stridesERSE_, symObjAddr: 0x112FC, symBinAddr: 0x100014184, symSize: 0x24 }
  - { offsetInCU: 0x2E2F3, offset: 0x2E2F3, size: 0x8, addend: 0x0, symName: __ZN2xt6detail20inner_storage_getterIKNS_16xarray_containerINS_7uvectorIdNSt3__19allocatorIdEEEELNS_11layout_typeE2ENS_7svectorImLm4ENS5_ImEELb1EEENS_22xtensor_expression_tagEEEE10get_offsetERSE_, symObjAddr: 0x11320, symBinAddr: 0x1000141A8, symSize: 0x24 }
  - { offsetInCU: 0x2E316, offset: 0x2E316, size: 0x8, addend: 0x0, symName: __ZNK2xt10xcontainerINS_16xarray_containerINS_7uvectorIdNSt3__19allocatorIdEEEELNS_11layout_typeE2ENS_7svectorImLm4ENS4_ImEELb1EEENS_22xtensor_expression_tagEEEE11data_offsetEv, symObjAddr: 0x11344, symBinAddr: 0x1000141CC, symSize: 0x14 }
  - { offsetInCU: 0x2E33E, offset: 0x2E33E, size: 0x8, addend: 0x0, symName: __ZN2xt13xstrided_viewIRKNS_16xarray_containerINS_7uvectorIdNSt3__19allocatorIdEEEELNS_11layout_typeE2ENS_7svectorImLm4ENS4_ImEELb1EEENS_22xtensor_expression_tagEEESA_LS7_0ENS_6detail20inner_storage_getterISE_EEEC2ISE_SA_EEOT_OT0_ONS8_IlLm4ENS4_IlEELb1EEEmS7_, symObjAddr: 0x11358, symBinAddr: 0x1000141E0, symSize: 0x68 }
  - { offsetInCU: 0x2E3C2, offset: 0x2E3C2, size: 0x8, addend: 0x0, symName: __ZN2xt14xview_semanticINS_13xstrided_viewIRKNS_16xarray_containerINS_7uvectorIdNSt3__19allocatorIdEEEELNS_11layout_typeE2ENS_7svectorImLm4ENS5_ImEELb1EEENS_22xtensor_expression_tagEEESB_LS8_0ENS_6detail20inner_storage_getterISF_EEEEEC2Ev, symObjAddr: 0x113C0, symBinAddr: 0x100014248, symSize: 0x2C }
  - { offsetInCU: 0x2E3F2, offset: 0x2E3F2, size: 0x8, addend: 0x0, symName: __ZN2xt18xstrided_view_baseINS_13xstrided_viewIRKNS_16xarray_containerINS_7uvectorIdNSt3__19allocatorIdEEEELNS_11layout_typeE2ENS_7svectorImLm4ENS5_ImEELb1EEENS_22xtensor_expression_tagEEESB_LS8_0ENS_6detail20inner_storage_getterISF_EEEEEC2ISF_SB_EEOT_OT0_ONS9_IlLm4ENS5_IlEELb1EEEmS8_, symObjAddr: 0x113EC, symBinAddr: 0x100014274, symSize: 0xE8 }
  - { offsetInCU: 0x2E476, offset: 0x2E476, size: 0x8, addend: 0x0, symName: __ZN2xt14xsemantic_baseINS_13xstrided_viewIRKNS_16xarray_containerINS_7uvectorIdNSt3__19allocatorIdEEEELNS_11layout_typeE2ENS_7svectorImLm4ENS5_ImEELb1EEENS_22xtensor_expression_tagEEESB_LS8_0ENS_6detail20inner_storage_getterISF_EEEEEC2Ev, symObjAddr: 0x114D4, symBinAddr: 0x10001435C, symSize: 0x2C }
  - { offsetInCU: 0x2E4A0, offset: 0x2E4A0, size: 0x8, addend: 0x0, symName: __ZN2xt20xsharable_expressionINS_13xstrided_viewIRKNS_16xarray_containerINS_7uvectorIdNSt3__19allocatorIdEEEELNS_11layout_typeE2ENS_7svectorImLm4ENS5_ImEELb1EEENS_22xtensor_expression_tagEEESB_LS8_0ENS_6detail20inner_storage_getterISF_EEEEEC2Ev, symObjAddr: 0x11500, symBinAddr: 0x100014388, symSize: 0x30 }
  - { offsetInCU: 0x2E4CB, offset: 0x2E4CB, size: 0x8, addend: 0x0, symName: __ZNSt3__110shared_ptrIN2xt13xstrided_viewIRKNS1_16xarray_containerINS1_7uvectorIdNS_9allocatorIdEEEELNS1_11layout_typeE2ENS1_7svectorImLm4ENS5_ImEELb1EEENS1_22xtensor_expression_tagEEESB_LS8_0ENS1_6detail20inner_storage_getterISF_EEEEEC1B8ue170006EDn, symObjAddr: 0x11530, symBinAddr: 0x1000143B8, symSize: 0x34 }
  - { offsetInCU: 0x2E500, offset: 0x2E500, size: 0x8, addend: 0x0, symName: __ZNSt3__110shared_ptrIN2xt13xstrided_viewIRKNS1_16xarray_containerINS1_7uvectorIdNS_9allocatorIdEEEELNS1_11layout_typeE2ENS1_7svectorImLm4ENS5_ImEELb1EEENS1_22xtensor_expression_tagEEESB_LS8_0ENS1_6detail20inner_storage_getterISF_EEEEEC2B8ue170006EDn, symObjAddr: 0x11564, symBinAddr: 0x1000143EC, symSize: 0x20 }
  - { offsetInCU: 0x2E534, offset: 0x2E534, size: 0x8, addend: 0x0, symName: __ZN2xt6detail20inner_storage_getterIRKNS_16xarray_containerINS_7uvectorIdNSt3__19allocatorIdEEEELNS_11layout_typeE2ENS_7svectorImLm4ENS5_ImEELb1EEENS_22xtensor_expression_tagEEEE16get_flat_storageESF_, symObjAddr: 0x11584, symBinAddr: 0x10001440C, symSize: 0x24 }
  - { offsetInCU: 0x2E557, offset: 0x2E557, size: 0x8, addend: 0x0, symName: __ZN2xt6detail17strided_view_argsINS0_21no_adj_strides_policyEED2Ev, symObjAddr: 0x11620, symBinAddr: 0x1000144A8, symSize: 0x38 }
  - { offsetInCU: 0x2E584, offset: 0x2E584, size: 0x8, addend: 0x0, symName: __ZNK2xt17xconst_accessibleINS_13xstrided_viewIRKNS_16xarray_containerINS_7uvectorIdNSt3__19allocatorIdEEEELNS_11layout_typeE2ENS_7svectorImLm4ENS5_ImEELb1EEENS_22xtensor_expression_tagEEESB_LS8_0ENS_6detail20inner_storage_getterISF_EEEEE12derived_castEv, symObjAddr: 0x11658, symBinAddr: 0x1000144E0, symSize: 0x18 }
  - { offsetInCU: 0x2E5AA, offset: 0x2E5AA, size: 0x8, addend: 0x0, symName: __Z5isinfB8ue170006Ua9enable_ifIXLb1EEEd, symObjAddr: 0x11670, symBinAddr: 0x1000144F8, symSize: 0x2C }
  - { offsetInCU: 0x2E5D8, offset: 0x2E5D8, size: 0x8, addend: 0x0, symName: __Z5isnanB8ue170006Ua9enable_ifIXLb1EEEd, symObjAddr: 0x1169C, symBinAddr: 0x100014524, symSize: 0x20 }
  - { offsetInCU: 0x2E606, offset: 0x2E606, size: 0x8, addend: 0x0, symName: __Z3absB8ue170006d, symObjAddr: 0x116BC, symBinAddr: 0x100014544, symSize: 0x18 }
  - { offsetInCU: 0x2E633, offset: 0x2E633, size: 0x8, addend: 0x0, symName: __ZNSt3__16vectorIdNS_9allocatorIdEEE9push_backB8ue170006ERKd, symObjAddr: 0x11710, symBinAddr: 0x100014598, symSize: 0x6C }
  - { offsetInCU: 0x2E66A, offset: 0x2E66A, size: 0x8, addend: 0x0, symName: __ZNSt3__16vectorIdNS_9allocatorIdEEE9__end_capB8ue170006Ev, symObjAddr: 0x1177C, symBinAddr: 0x100014604, symSize: 0x28 }
  - { offsetInCU: 0x2E690, offset: 0x2E690, size: 0x8, addend: 0x0, symName: __ZNSt3__16vectorIdNS_9allocatorIdEEE22__construct_one_at_endB8ue170006IJRKdEEEvDpOT_, symObjAddr: 0x117A4, symBinAddr: 0x10001462C, symSize: 0x90 }
  - { offsetInCU: 0x2E6DF, offset: 0x2E6DF, size: 0x8, addend: 0x0, symName: __ZNSt3__16vectorIdNS_9allocatorIdEEE21__push_back_slow_pathIRKdEEvOT_, symObjAddr: 0x11834, symBinAddr: 0x1000146BC, symSize: 0xD8 }
  - { offsetInCU: 0x2E73D, offset: 0x2E73D, size: 0x8, addend: 0x0, symName: __ZNSt3__117__compressed_pairIPdNS_9allocatorIdEEE5firstB8ue170006Ev, symObjAddr: 0x1190C, symBinAddr: 0x100014794, symSize: 0x24 }
  - { offsetInCU: 0x2E763, offset: 0x2E763, size: 0x8, addend: 0x0, symName: __ZNSt3__122__compressed_pair_elemIPdLi0ELb0EE5__getB8ue170006Ev, symObjAddr: 0x11930, symBinAddr: 0x1000147B8, symSize: 0x14 }
  - { offsetInCU: 0x2E7A4, offset: 0x2E7A4, size: 0x8, addend: 0x0, symName: __ZNSt3__16vectorIdNS_9allocatorIdEEE21_ConstructTransactionC1B8ue170006ERS3_m, symObjAddr: 0x11944, symBinAddr: 0x1000147CC, symSize: 0x3C }
  - { offsetInCU: 0x2E7EB, offset: 0x2E7EB, size: 0x8, addend: 0x0, symName: __ZNSt3__116allocator_traitsINS_9allocatorIdEEE9constructB8ue170006IdJRKdEvEEvRS2_PT_DpOT0_, symObjAddr: 0x11980, symBinAddr: 0x100014808, symSize: 0x34 }
  - { offsetInCU: 0x2E842, offset: 0x2E842, size: 0x8, addend: 0x0, symName: __ZNSt3__16vectorIdNS_9allocatorIdEEE7__allocB8ue170006Ev, symObjAddr: 0x119B4, symBinAddr: 0x10001483C, symSize: 0x28 }
  - { offsetInCU: 0x2E868, offset: 0x2E868, size: 0x8, addend: 0x0, symName: __ZNSt3__16vectorIdNS_9allocatorIdEEE21_ConstructTransactionD1B8ue170006Ev, symObjAddr: 0x119F0, symBinAddr: 0x100014878, symSize: 0x2C }
  - { offsetInCU: 0x2E892, offset: 0x2E892, size: 0x8, addend: 0x0, symName: __ZNSt3__16vectorIdNS_9allocatorIdEEE21_ConstructTransactionC2B8ue170006ERS3_m, symObjAddr: 0x11A1C, symBinAddr: 0x1000148A4, symSize: 0x44 }
  - { offsetInCU: 0x2E8DA, offset: 0x2E8DA, size: 0x8, addend: 0x0, symName: __ZNSt3__19allocatorIdE9constructB8ue170006IdJRKdEEEvPT_DpOT0_, symObjAddr: 0x11A60, symBinAddr: 0x1000148E8, symSize: 0x28 }
  - { offsetInCU: 0x2E930, offset: 0x2E930, size: 0x8, addend: 0x0, symName: __ZNSt3__117__compressed_pairIPdNS_9allocatorIdEEE6secondB8ue170006Ev, symObjAddr: 0x11A88, symBinAddr: 0x100014910, symSize: 0x24 }
  - { offsetInCU: 0x2E956, offset: 0x2E956, size: 0x8, addend: 0x0, symName: __ZNSt3__122__compressed_pair_elemINS_9allocatorIdEELi1ELb1EE5__getB8ue170006Ev, symObjAddr: 0x11AAC, symBinAddr: 0x100014934, symSize: 0x14 }
  - { offsetInCU: 0x2E97C, offset: 0x2E97C, size: 0x8, addend: 0x0, symName: __ZNSt3__16vectorIdNS_9allocatorIdEEE21_ConstructTransactionD2B8ue170006Ev, symObjAddr: 0x11AC0, symBinAddr: 0x100014948, symSize: 0x20 }
  - { offsetInCU: 0x2E9A6, offset: 0x2E9A6, size: 0x8, addend: 0x0, symName: __ZNKSt3__16vectorIdNS_9allocatorIdEEE11__recommendB8ue170006Em, symObjAddr: 0x11AE0, symBinAddr: 0x100014968, symSize: 0xB4 }
  - { offsetInCU: 0x2E9FB, offset: 0x2E9FB, size: 0x8, addend: 0x0, symName: __ZNKSt3__16vectorIdNS_9allocatorIdEEE4sizeB8ue170006Ev, symObjAddr: 0x11B94, symBinAddr: 0x100014A1C, symSize: 0x28 }
  - { offsetInCU: 0x2EA21, offset: 0x2EA21, size: 0x8, addend: 0x0, symName: __ZNSt3__114__split_bufferIdRNS_9allocatorIdEEEC1EmmS3_, symObjAddr: 0x11BBC, symBinAddr: 0x100014A44, symSize: 0x44 }
  - { offsetInCU: 0x2EA77, offset: 0x2EA77, size: 0x8, addend: 0x0, symName: __ZNSt3__114__split_bufferIdRNS_9allocatorIdEEED1Ev, symObjAddr: 0x11D10, symBinAddr: 0x100014B98, symSize: 0x2C }
  - { offsetInCU: 0x2EAA3, offset: 0x2EAA3, size: 0x8, addend: 0x0, symName: __ZNKSt3__16vectorIdNS_9allocatorIdEEE8max_sizeEv, symObjAddr: 0x11D3C, symBinAddr: 0x100014BC4, symSize: 0x60 }
  - { offsetInCU: 0x2EACB, offset: 0x2EACB, size: 0x8, addend: 0x0, symName: __ZNKSt3__16vectorIdNS_9allocatorIdEEE20__throw_length_errorB8ue170006Ev, symObjAddr: 0x11D9C, symBinAddr: 0x100014C24, symSize: 0x1C }
  - { offsetInCU: 0x2EAF1, offset: 0x2EAF1, size: 0x8, addend: 0x0, symName: __ZNKSt3__16vectorIdNS_9allocatorIdEEE8capacityB8ue170006Ev, symObjAddr: 0x11DB8, symBinAddr: 0x100014C40, symSize: 0x40 }
  - { offsetInCU: 0x2EB17, offset: 0x2EB17, size: 0x8, addend: 0x0, symName: __ZNKSt3__16vectorIdNS_9allocatorIdEEE7__allocB8ue170006Ev, symObjAddr: 0x11E24, symBinAddr: 0x100014CAC, symSize: 0x28 }
  - { offsetInCU: 0x2EB3D, offset: 0x2EB3D, size: 0x8, addend: 0x0, symName: __ZNSt3__114numeric_limitsIlE3maxB8ue170006Ev, symObjAddr: 0x11E4C, symBinAddr: 0x100014CD4, symSize: 0x14 }
  - { offsetInCU: 0x2EB51, offset: 0x2EB51, size: 0x8, addend: 0x0, symName: __ZNKSt3__117__compressed_pairIPdNS_9allocatorIdEEE6secondB8ue170006Ev, symObjAddr: 0x11E60, symBinAddr: 0x100014CE8, symSize: 0x24 }
  - { offsetInCU: 0x2EB77, offset: 0x2EB77, size: 0x8, addend: 0x0, symName: __ZNKSt3__122__compressed_pair_elemINS_9allocatorIdEELi1ELb1EE5__getB8ue170006Ev, symObjAddr: 0x11E84, symBinAddr: 0x100014D0C, symSize: 0x14 }
  - { offsetInCU: 0x2EB9D, offset: 0x2EB9D, size: 0x8, addend: 0x0, symName: __ZNSt3__123__libcpp_numeric_limitsIlLb1EE3maxB8ue170006Ev, symObjAddr: 0x11E98, symBinAddr: 0x100014D20, symSize: 0x8 }
  - { offsetInCU: 0x2EBB1, offset: 0x2EBB1, size: 0x8, addend: 0x0, symName: __ZNSt12length_errorC1B8ue170006EPKc, symObjAddr: 0x11F04, symBinAddr: 0x100014D8C, symSize: 0x34 }
  - { offsetInCU: 0x2EBE9, offset: 0x2EBE9, size: 0x8, addend: 0x0, symName: __ZNSt12length_errorC2B8ue170006EPKc, symObjAddr: 0x11F38, symBinAddr: 0x100014DC0, symSize: 0x4C }
  - { offsetInCU: 0x2EC21, offset: 0x2EC21, size: 0x8, addend: 0x0, symName: __ZNKSt3__16vectorIdNS_9allocatorIdEEE9__end_capB8ue170006Ev, symObjAddr: 0x11F84, symBinAddr: 0x100014E0C, symSize: 0x28 }
  - { offsetInCU: 0x2EC47, offset: 0x2EC47, size: 0x8, addend: 0x0, symName: __ZNKSt3__117__compressed_pairIPdNS_9allocatorIdEEE5firstB8ue170006Ev, symObjAddr: 0x11FAC, symBinAddr: 0x100014E34, symSize: 0x24 }
  - { offsetInCU: 0x2EC6D, offset: 0x2EC6D, size: 0x8, addend: 0x0, symName: __ZNKSt3__122__compressed_pair_elemIPdLi0ELb0EE5__getB8ue170006Ev, symObjAddr: 0x11FD0, symBinAddr: 0x100014E58, symSize: 0x14 }
  - { offsetInCU: 0x2EC93, offset: 0x2EC93, size: 0x8, addend: 0x0, symName: __ZNSt3__114__split_bufferIdRNS_9allocatorIdEEEC2EmmS3_, symObjAddr: 0x12038, symBinAddr: 0x100014EC0, symSize: 0xD4 }
  - { offsetInCU: 0x2ED06, offset: 0x2ED06, size: 0x8, addend: 0x0, symName: __ZNSt3__117__compressed_pairIPdRNS_9allocatorIdEEEC1B8ue170006IDnS4_EEOT_OT0_, symObjAddr: 0x1210C, symBinAddr: 0x100014F94, symSize: 0x3C }
  - { offsetInCU: 0x2ED5E, offset: 0x2ED5E, size: 0x8, addend: 0x0, symName: __ZNSt3__114__split_bufferIdRNS_9allocatorIdEEE7__allocB8ue170006Ev, symObjAddr: 0x12188, symBinAddr: 0x100015010, symSize: 0x28 }
  - { offsetInCU: 0x2ED84, offset: 0x2ED84, size: 0x8, addend: 0x0, symName: __ZNSt3__114__split_bufferIdRNS_9allocatorIdEEE9__end_capB8ue170006Ev, symObjAddr: 0x121B0, symBinAddr: 0x100015038, symSize: 0x28 }
  - { offsetInCU: 0x2EDAA, offset: 0x2EDAA, size: 0x8, addend: 0x0, symName: __ZNSt3__117__compressed_pairIPdRNS_9allocatorIdEEEC2B8ue170006IDnS4_EEOT_OT0_, symObjAddr: 0x121D8, symBinAddr: 0x100015060, symSize: 0x48 }
  - { offsetInCU: 0x2EE02, offset: 0x2EE02, size: 0x8, addend: 0x0, symName: __ZNSt3__122__compressed_pair_elemIRNS_9allocatorIdEELi1ELb0EEC2B8ue170006IS3_vEEOT_, symObjAddr: 0x12220, symBinAddr: 0x1000150A8, symSize: 0x20 }
  - { offsetInCU: 0x2EE44, offset: 0x2EE44, size: 0x8, addend: 0x0, symName: __ZNSt3__117__compressed_pairIPdRNS_9allocatorIdEEE6secondB8ue170006Ev, symObjAddr: 0x12240, symBinAddr: 0x1000150C8, symSize: 0x28 }
  - { offsetInCU: 0x2EE6A, offset: 0x2EE6A, size: 0x8, addend: 0x0, symName: __ZNSt3__122__compressed_pair_elemIRNS_9allocatorIdEELi1ELb0EE5__getB8ue170006Ev, symObjAddr: 0x12268, symBinAddr: 0x1000150F0, symSize: 0x18 }
  - { offsetInCU: 0x2EE90, offset: 0x2EE90, size: 0x8, addend: 0x0, symName: __ZNSt3__117__compressed_pairIPdRNS_9allocatorIdEEE5firstB8ue170006Ev, symObjAddr: 0x12280, symBinAddr: 0x100015108, symSize: 0x24 }
  - { offsetInCU: 0x2EEB6, offset: 0x2EEB6, size: 0x8, addend: 0x0, symName: __ZNKSt3__16vectorIdNS_9allocatorIdEEE17__annotate_deleteB8ue170006Ev, symObjAddr: 0x122A4, symBinAddr: 0x10001512C, symSize: 0xB8 }
  - { offsetInCU: 0x2EEDC, offset: 0x2EEDC, size: 0x8, addend: 0x0, symName: __ZNSt3__116reverse_iteratorIPdEC1B8ue170006ES1_, symObjAddr: 0x123D4, symBinAddr: 0x10001525C, symSize: 0x34 }
  - { offsetInCU: 0x2EF14, offset: 0x2EF14, size: 0x8, addend: 0x0, symName: __ZNKSt3__116reverse_iteratorIPdE4baseB8ue170006Ev, symObjAddr: 0x12408, symBinAddr: 0x100015290, symSize: 0x18 }
  - { offsetInCU: 0x2EF3A, offset: 0x2EF3A, size: 0x8, addend: 0x0, symName: __ZNKSt3__16vectorIdNS_9allocatorIdEEE14__annotate_newB8ue170006Em, symObjAddr: 0x1245C, symBinAddr: 0x1000152E4, symSize: 0xAC }
  - { offsetInCU: 0x2EF6F, offset: 0x2EF6F, size: 0x8, addend: 0x0, symName: __ZNKSt3__16vectorIdNS_9allocatorIdEEE31__annotate_contiguous_containerB8ue170006EPKvS5_S5_S5_, symObjAddr: 0x12508, symBinAddr: 0x100015390, symSize: 0x20 }
  - { offsetInCU: 0x2EFC1, offset: 0x2EFC1, size: 0x8, addend: 0x0, symName: __ZNKSt3__16vectorIdNS_9allocatorIdEEE4dataB8ue170006Ev, symObjAddr: 0x12528, symBinAddr: 0x1000153B0, symSize: 0x28 }
  - { offsetInCU: 0x2F00D, offset: 0x2F00D, size: 0x8, addend: 0x0, symName: __ZNKSt3__111__move_loopINS_17_ClassicAlgPolicyEEclB8ue170006INS_16reverse_iteratorIPdEES6_S6_EENS_4pairIT_T1_EES8_T0_S9_, symObjAddr: 0x12840, symBinAddr: 0x1000156C8, symSize: 0xA0 }
  - { offsetInCU: 0x2F07D, offset: 0x2F07D, size: 0x8, addend: 0x0, symName: __ZNSt3__18_IterOpsINS_17_ClassicAlgPolicyEE11__iter_moveB8ue170006IRNS_16reverse_iteratorIPdEEEENS_9enable_ifIXsr12is_referenceIDTdeclsr3stdE7declvalIRT_EEEEE5valueEDTclsr3stdE4movedeclsr3stdE7declvalISA_EEEEE4typeEOS9_, symObjAddr: 0x12A74, symBinAddr: 0x1000158FC, symSize: 0x28 }
  - { offsetInCU: 0x2F0A9, offset: 0x2F0A9, size: 0x8, addend: 0x0, symName: __ZNKSt3__116reverse_iteratorIPdEdeB8ue170006Ev, symObjAddr: 0x12A9C, symBinAddr: 0x100015924, symSize: 0x28 }
  - { offsetInCU: 0x2F0DD, offset: 0x2F0DD, size: 0x8, addend: 0x0, symName: __ZNSt3__116reverse_iteratorIPdEppB8ue170006Ev, symObjAddr: 0x12AC4, symBinAddr: 0x10001594C, symSize: 0x20 }
  - { offsetInCU: 0x2F103, offset: 0x2F103, size: 0x8, addend: 0x0, symName: __ZNSt3__18_IterOpsINS_17_ClassicAlgPolicyEE25__validate_iter_referenceB8ue170006IRNS_16reverse_iteratorIPdEEEEvv, symObjAddr: 0x12AE4, symBinAddr: 0x10001596C, symSize: 0x4 }
  - { offsetInCU: 0x2F121, offset: 0x2F121, size: 0x8, addend: 0x0, symName: __ZNSt3__118__unwrap_iter_implINS_16reverse_iteratorIPdEELb0EE8__unwrapB8ue170006ES3_, symObjAddr: 0x12AE8, symBinAddr: 0x100015970, symSize: 0x24 }
  - { offsetInCU: 0x2F14A, offset: 0x2F14A, size: 0x8, addend: 0x0, symName: __ZNSt3__14pairINS_16reverse_iteratorIPdEES3_EC1B8ue170006IS3_S3_LPv0EEEOT_OT0_, symObjAddr: 0x12B0C, symBinAddr: 0x100015994, symSize: 0x3C }
  - { offsetInCU: 0x2F1A8, offset: 0x2F1A8, size: 0x8, addend: 0x0, symName: __ZNSt3__14pairINS_16reverse_iteratorIPdEES3_EC2B8ue170006IS3_S3_LPv0EEEOT_OT0_, symObjAddr: 0x12B48, symBinAddr: 0x1000159D0, symSize: 0x34 }
  - { offsetInCU: 0x2F206, offset: 0x2F206, size: 0x8, addend: 0x0, symName: __ZNSt3__118__unwrap_iter_implINS_16reverse_iteratorIPdEELb0EE8__rewrapB8ue170006ES3_S3_, symObjAddr: 0x12B7C, symBinAddr: 0x100015A04, symSize: 0x2C }
  - { offsetInCU: 0x2F233, offset: 0x2F233, size: 0x8, addend: 0x0, symName: __ZNSt3__116reverse_iteratorIPdEC2B8ue170006ES1_, symObjAddr: 0x12BA8, symBinAddr: 0x100015A30, symSize: 0x28 }
  - { offsetInCU: 0x2F26B, offset: 0x2F26B, size: 0x8, addend: 0x0, symName: __ZNSt3__114__split_bufferIdRNS_9allocatorIdEEED2Ev, symObjAddr: 0x12BD0, symBinAddr: 0x100015A58, symSize: 0x8C }
  - { offsetInCU: 0x2F297, offset: 0x2F297, size: 0x8, addend: 0x0, symName: __ZNSt3__114__split_bufferIdRNS_9allocatorIdEEE5clearB8ue170006Ev, symObjAddr: 0x12C5C, symBinAddr: 0x100015AE4, symSize: 0x28 }
  - { offsetInCU: 0x2F2BD, offset: 0x2F2BD, size: 0x8, addend: 0x0, symName: __ZNKSt3__114__split_bufferIdRNS_9allocatorIdEEE8capacityB8ue170006Ev, symObjAddr: 0x12C84, symBinAddr: 0x100015B0C, symSize: 0x40 }
  - { offsetInCU: 0x2F2E3, offset: 0x2F2E3, size: 0x8, addend: 0x0, symName: __ZNSt3__114__split_bufferIdRNS_9allocatorIdEEE17__destruct_at_endB8ue170006EPd, symObjAddr: 0x12CC4, symBinAddr: 0x100015B4C, symSize: 0x2C }
  - { offsetInCU: 0x2F317, offset: 0x2F317, size: 0x8, addend: 0x0, symName: __ZNSt3__114__split_bufferIdRNS_9allocatorIdEEE17__destruct_at_endB8ue170006EPdNS_17integral_constantIbLb0EEE, symObjAddr: 0x12CF0, symBinAddr: 0x100015B78, symSize: 0x80 }
  - { offsetInCU: 0x2F356, offset: 0x2F356, size: 0x8, addend: 0x0, symName: __ZNSt3__116allocator_traitsINS_9allocatorIdEEE7destroyB8ue170006IdvEEvRS2_PT_, symObjAddr: 0x12D70, symBinAddr: 0x100015BF8, symSize: 0x2C }
  - { offsetInCU: 0x2F393, offset: 0x2F393, size: 0x8, addend: 0x0, symName: __ZNSt3__19allocatorIdE7destroyB8ue170006EPd, symObjAddr: 0x12D9C, symBinAddr: 0x100015C24, symSize: 0x14 }
  - { offsetInCU: 0x2F3C7, offset: 0x2F3C7, size: 0x8, addend: 0x0, symName: __ZNKSt3__114__split_bufferIdRNS_9allocatorIdEEE9__end_capB8ue170006Ev, symObjAddr: 0x12DB0, symBinAddr: 0x100015C38, symSize: 0x28 }
  - { offsetInCU: 0x2F3ED, offset: 0x2F3ED, size: 0x8, addend: 0x0, symName: __ZNKSt3__117__compressed_pairIPdRNS_9allocatorIdEEE5firstB8ue170006Ev, symObjAddr: 0x12DD8, symBinAddr: 0x100015C60, symSize: 0x24 }
  - { offsetInCU: 0x2F413, offset: 0x2F413, size: 0x8, addend: 0x0, symName: __ZNK2xt7uvectorIdNSt3__19allocatorIdEEEixEm, symObjAddr: 0x12DFC, symBinAddr: 0x100015C84, symSize: 0x24 }
  - { offsetInCU: 0x2F449, offset: 0x2F449, size: 0x8, addend: 0x0, symName: __ZNSt3__16vectorIN5mpark7variantIJlN2xt14xrange_adaptorINS3_12placeholders5xtuphEllEENS4_IlS6_lEENS4_IllS6_EENS4_IlS6_S6_EENS4_IS6_lS6_EENS4_IS6_S6_lEENS4_IlllEENS4_IS6_S6_S6_EENS3_6xrangeIlEENS3_14xstepped_rangeIlEENS3_8xall_tagENS3_13xellipsis_tagENS3_12xnewaxis_tagEEEENS_9allocatorISM_EEE9__end_capB8ue170006Ev, symObjAddr: 0x12E20, symBinAddr: 0x100015CA8, symSize: 0x28 }
  - { offsetInCU: 0x2F46F, offset: 0x2F46F, size: 0x8, addend: 0x0, symName: __ZNSt3__16vectorIN5mpark7variantIJlN2xt14xrange_adaptorINS3_12placeholders5xtuphEllEENS4_IlS6_lEENS4_IllS6_EENS4_IlS6_S6_EENS4_IS6_lS6_EENS4_IS6_S6_lEENS4_IlllEENS4_IS6_S6_S6_EENS3_6xrangeIlEENS3_14xstepped_rangeIlEENS3_8xall_tagENS3_13xellipsis_tagENS3_12xnewaxis_tagEEEENS_9allocatorISM_EEE22__construct_one_at_endB8ue170006IJSM_EEEvDpOT_, symObjAddr: 0x12E48, symBinAddr: 0x100015CD0, symSize: 0x90 }
  - { offsetInCU: 0x2F4BE, offset: 0x2F4BE, size: 0x8, addend: 0x0, symName: __ZNSt3__16vectorIN5mpark7variantIJlN2xt14xrange_adaptorINS3_12placeholders5xtuphEllEENS4_IlS6_lEENS4_IllS6_EENS4_IlS6_S6_EENS4_IS6_lS6_EENS4_IS6_S6_lEENS4_IlllEENS4_IS6_S6_S6_EENS3_6xrangeIlEENS3_14xstepped_rangeIlEENS3_8xall_tagENS3_13xellipsis_tagENS3_12xnewaxis_tagEEEENS_9allocatorISM_EEE21__push_back_slow_pathISM_EEvOT_, symObjAddr: 0x12ED8, symBinAddr: 0x100015D60, symSize: 0xD8 }
  - { offsetInCU: 0x2F51C, offset: 0x2F51C, size: 0x8, addend: 0x0, symName: __ZNSt3__117__compressed_pairIPN5mpark7variantIJlN2xt14xrange_adaptorINS3_12placeholders5xtuphEllEENS4_IlS6_lEENS4_IllS6_EENS4_IlS6_S6_EENS4_IS6_lS6_EENS4_IS6_S6_lEENS4_IlllEENS4_IS6_S6_S6_EENS3_6xrangeIlEENS3_14xstepped_rangeIlEENS3_8xall_tagENS3_13xellipsis_tagENS3_12xnewaxis_tagEEEENS_9allocatorISM_EEE5firstB8ue170006Ev, symObjAddr: 0x12FB0, symBinAddr: 0x100015E38, symSize: 0x24 }
  - { offsetInCU: 0x2F542, offset: 0x2F542, size: 0x8, addend: 0x0, symName: __ZNSt3__122__compressed_pair_elemIPN5mpark7variantIJlN2xt14xrange_adaptorINS3_12placeholders5xtuphEllEENS4_IlS6_lEENS4_IllS6_EENS4_IlS6_S6_EENS4_IS6_lS6_EENS4_IS6_S6_lEENS4_IlllEENS4_IS6_S6_S6_EENS3_6xrangeIlEENS3_14xstepped_rangeIlEENS3_8xall_tagENS3_13xellipsis_tagENS3_12xnewaxis_tagEEEELi0ELb0EE5__getB8ue170006Ev, symObjAddr: 0x12FD4, symBinAddr: 0x100015E5C, symSize: 0x14 }
  - { offsetInCU: 0x2F583, offset: 0x2F583, size: 0x8, addend: 0x0, symName: __ZNSt3__16vectorIN5mpark7variantIJlN2xt14xrange_adaptorINS3_12placeholders5xtuphEllEENS4_IlS6_lEENS4_IllS6_EENS4_IlS6_S6_EENS4_IS6_lS6_EENS4_IS6_S6_lEENS4_IlllEENS4_IS6_S6_S6_EENS3_6xrangeIlEENS3_14xstepped_rangeIlEENS3_8xall_tagENS3_13xellipsis_tagENS3_12xnewaxis_tagEEEENS_9allocatorISM_EEE21_ConstructTransactionC1B8ue170006ERSP_m, symObjAddr: 0x12FE8, symBinAddr: 0x100015E70, symSize: 0x3C }
  - { offsetInCU: 0x2F5CA, offset: 0x2F5CA, size: 0x8, addend: 0x0, symName: __ZNSt3__116allocator_traitsINS_9allocatorIN5mpark7variantIJlN2xt14xrange_adaptorINS4_12placeholders5xtuphEllEENS5_IlS7_lEENS5_IllS7_EENS5_IlS7_S7_EENS5_IS7_lS7_EENS5_IS7_S7_lEENS5_IlllEENS5_IS7_S7_S7_EENS4_6xrangeIlEENS4_14xstepped_rangeIlEENS4_8xall_tagENS4_13xellipsis_tagENS4_12xnewaxis_tagEEEEEEE9constructB8ue170006ISN_JSN_EvEEvRSO_PT_DpOT0_, symObjAddr: 0x13024, symBinAddr: 0x100015EAC, symSize: 0x34 }
  - { offsetInCU: 0x2F621, offset: 0x2F621, size: 0x8, addend: 0x0, symName: __ZNSt3__16vectorIN5mpark7variantIJlN2xt14xrange_adaptorINS3_12placeholders5xtuphEllEENS4_IlS6_lEENS4_IllS6_EENS4_IlS6_S6_EENS4_IS6_lS6_EENS4_IS6_S6_lEENS4_IlllEENS4_IS6_S6_S6_EENS3_6xrangeIlEENS3_14xstepped_rangeIlEENS3_8xall_tagENS3_13xellipsis_tagENS3_12xnewaxis_tagEEEENS_9allocatorISM_EEE7__allocB8ue170006Ev, symObjAddr: 0x13058, symBinAddr: 0x100015EE0, symSize: 0x28 }
  - { offsetInCU: 0x2F647, offset: 0x2F647, size: 0x8, addend: 0x0, symName: __ZNSt3__16vectorIN5mpark7variantIJlN2xt14xrange_adaptorINS3_12placeholders5xtuphEllEENS4_IlS6_lEENS4_IllS6_EENS4_IlS6_S6_EENS4_IS6_lS6_EENS4_IS6_S6_lEENS4_IlllEENS4_IS6_S6_S6_EENS3_6xrangeIlEENS3_14xstepped_rangeIlEENS3_8xall_tagENS3_13xellipsis_tagENS3_12xnewaxis_tagEEEENS_9allocatorISM_EEE21_ConstructTransactionD1B8ue170006Ev, symObjAddr: 0x13094, symBinAddr: 0x100015F1C, symSize: 0x2C }
  - { offsetInCU: 0x2F671, offset: 0x2F671, size: 0x8, addend: 0x0, symName: __ZNSt3__16vectorIN5mpark7variantIJlN2xt14xrange_adaptorINS3_12placeholders5xtuphEllEENS4_IlS6_lEENS4_IllS6_EENS4_IlS6_S6_EENS4_IS6_lS6_EENS4_IS6_S6_lEENS4_IlllEENS4_IS6_S6_S6_EENS3_6xrangeIlEENS3_14xstepped_rangeIlEENS3_8xall_tagENS3_13xellipsis_tagENS3_12xnewaxis_tagEEEENS_9allocatorISM_EEE21_ConstructTransactionC2B8ue170006ERSP_m, symObjAddr: 0x130C0, symBinAddr: 0x100015F48, symSize: 0x44 }
  - { offsetInCU: 0x2F6B9, offset: 0x2F6B9, size: 0x8, addend: 0x0, symName: __ZNSt3__19allocatorIN5mpark7variantIJlN2xt14xrange_adaptorINS3_12placeholders5xtuphEllEENS4_IlS6_lEENS4_IllS6_EENS4_IlS6_S6_EENS4_IS6_lS6_EENS4_IS6_S6_lEENS4_IlllEENS4_IS6_S6_S6_EENS3_6xrangeIlEENS3_14xstepped_rangeIlEENS3_8xall_tagENS3_13xellipsis_tagENS3_12xnewaxis_tagEEEEE9constructB8ue170006ISM_JSM_EEEvPT_DpOT0_, symObjAddr: 0x13104, symBinAddr: 0x100015F8C, symSize: 0x30 }
  - { offsetInCU: 0x2F70F, offset: 0x2F70F, size: 0x8, addend: 0x0, symName: __ZNSt3__117__compressed_pairIPN5mpark7variantIJlN2xt14xrange_adaptorINS3_12placeholders5xtuphEllEENS4_IlS6_lEENS4_IllS6_EENS4_IlS6_S6_EENS4_IS6_lS6_EENS4_IS6_S6_lEENS4_IlllEENS4_IS6_S6_S6_EENS3_6xrangeIlEENS3_14xstepped_rangeIlEENS3_8xall_tagENS3_13xellipsis_tagENS3_12xnewaxis_tagEEEENS_9allocatorISM_EEE6secondB8ue170006Ev, symObjAddr: 0x13134, symBinAddr: 0x100015FBC, symSize: 0x24 }
  - { offsetInCU: 0x2F735, offset: 0x2F735, size: 0x8, addend: 0x0, symName: __ZNSt3__122__compressed_pair_elemINS_9allocatorIN5mpark7variantIJlN2xt14xrange_adaptorINS4_12placeholders5xtuphEllEENS5_IlS7_lEENS5_IllS7_EENS5_IlS7_S7_EENS5_IS7_lS7_EENS5_IS7_S7_lEENS5_IlllEENS5_IS7_S7_S7_EENS4_6xrangeIlEENS4_14xstepped_rangeIlEENS4_8xall_tagENS4_13xellipsis_tagENS4_12xnewaxis_tagEEEEEELi1ELb1EE5__getB8ue170006Ev, symObjAddr: 0x13158, symBinAddr: 0x100015FE0, symSize: 0x14 }
  - { offsetInCU: 0x2F75B, offset: 0x2F75B, size: 0x8, addend: 0x0, symName: __ZNSt3__16vectorIN5mpark7variantIJlN2xt14xrange_adaptorINS3_12placeholders5xtuphEllEENS4_IlS6_lEENS4_IllS6_EENS4_IlS6_S6_EENS4_IS6_lS6_EENS4_IS6_S6_lEENS4_IlllEENS4_IS6_S6_S6_EENS3_6xrangeIlEENS3_14xstepped_rangeIlEENS3_8xall_tagENS3_13xellipsis_tagENS3_12xnewaxis_tagEEEENS_9allocatorISM_EEE21_ConstructTransactionD2B8ue170006Ev, symObjAddr: 0x1316C, symBinAddr: 0x100015FF4, symSize: 0x20 }
  - { offsetInCU: 0x2F785, offset: 0x2F785, size: 0x8, addend: 0x0, symName: __ZNKSt3__16vectorIN5mpark7variantIJlN2xt14xrange_adaptorINS3_12placeholders5xtuphEllEENS4_IlS6_lEENS4_IllS6_EENS4_IlS6_S6_EENS4_IS6_lS6_EENS4_IS6_S6_lEENS4_IlllEENS4_IS6_S6_S6_EENS3_6xrangeIlEENS3_14xstepped_rangeIlEENS3_8xall_tagENS3_13xellipsis_tagENS3_12xnewaxis_tagEEEENS_9allocatorISM_EEE11__recommendB8ue170006Em, symObjAddr: 0x1318C, symBinAddr: 0x100016014, symSize: 0xB4 }
  - { offsetInCU: 0x2F7DA, offset: 0x2F7DA, size: 0x8, addend: 0x0, symName: __ZNSt3__114__split_bufferIN5mpark7variantIJlN2xt14xrange_adaptorINS3_12placeholders5xtuphEllEENS4_IlS6_lEENS4_IllS6_EENS4_IlS6_S6_EENS4_IS6_lS6_EENS4_IS6_S6_lEENS4_IlllEENS4_IS6_S6_S6_EENS3_6xrangeIlEENS3_14xstepped_rangeIlEENS3_8xall_tagENS3_13xellipsis_tagENS3_12xnewaxis_tagEEEERNS_9allocatorISM_EEEC1EmmSP_, symObjAddr: 0x13240, symBinAddr: 0x1000160C8, symSize: 0x44 }
  - { offsetInCU: 0x2F830, offset: 0x2F830, size: 0x8, addend: 0x0, symName: __ZNSt3__114__split_bufferIN5mpark7variantIJlN2xt14xrange_adaptorINS3_12placeholders5xtuphEllEENS4_IlS6_lEENS4_IllS6_EENS4_IlS6_S6_EENS4_IS6_lS6_EENS4_IS6_S6_lEENS4_IlllEENS4_IS6_S6_S6_EENS3_6xrangeIlEENS3_14xstepped_rangeIlEENS3_8xall_tagENS3_13xellipsis_tagENS3_12xnewaxis_tagEEEERNS_9allocatorISM_EEED1Ev, symObjAddr: 0x13394, symBinAddr: 0x10001621C, symSize: 0x2C }
  - { offsetInCU: 0x2F85C, offset: 0x2F85C, size: 0x8, addend: 0x0, symName: __ZNKSt3__16vectorIN5mpark7variantIJlN2xt14xrange_adaptorINS3_12placeholders5xtuphEllEENS4_IlS6_lEENS4_IllS6_EENS4_IlS6_S6_EENS4_IS6_lS6_EENS4_IS6_S6_lEENS4_IlllEENS4_IS6_S6_S6_EENS3_6xrangeIlEENS3_14xstepped_rangeIlEENS3_8xall_tagENS3_13xellipsis_tagENS3_12xnewaxis_tagEEEENS_9allocatorISM_EEE8max_sizeEv, symObjAddr: 0x133C0, symBinAddr: 0x100016248, symSize: 0x60 }
  - { offsetInCU: 0x2F884, offset: 0x2F884, size: 0x8, addend: 0x0, symName: __ZNKSt3__16vectorIN5mpark7variantIJlN2xt14xrange_adaptorINS3_12placeholders5xtuphEllEENS4_IlS6_lEENS4_IllS6_EENS4_IlS6_S6_EENS4_IS6_lS6_EENS4_IS6_S6_lEENS4_IlllEENS4_IS6_S6_S6_EENS3_6xrangeIlEENS3_14xstepped_rangeIlEENS3_8xall_tagENS3_13xellipsis_tagENS3_12xnewaxis_tagEEEENS_9allocatorISM_EEE20__throw_length_errorB8ue170006Ev, symObjAddr: 0x13420, symBinAddr: 0x1000162A8, symSize: 0x1C }
  - { offsetInCU: 0x2F8AA, offset: 0x2F8AA, size: 0x8, addend: 0x0, symName: __ZNKSt3__16vectorIN5mpark7variantIJlN2xt14xrange_adaptorINS3_12placeholders5xtuphEllEENS4_IlS6_lEENS4_IllS6_EENS4_IlS6_S6_EENS4_IS6_lS6_EENS4_IS6_S6_lEENS4_IlllEENS4_IS6_S6_S6_EENS3_6xrangeIlEENS3_14xstepped_rangeIlEENS3_8xall_tagENS3_13xellipsis_tagENS3_12xnewaxis_tagEEEENS_9allocatorISM_EEE8capacityB8ue170006Ev, symObjAddr: 0x1343C, symBinAddr: 0x1000162C4, symSize: 0x40 }
  - { offsetInCU: 0x2F8DA, offset: 0x2F8DA, size: 0x8, addend: 0x0, symName: __ZNSt3__116allocator_traitsINS_9allocatorIN5mpark7variantIJlN2xt14xrange_adaptorINS4_12placeholders5xtuphEllEENS5_IlS7_lEENS5_IllS7_EENS5_IlS7_S7_EENS5_IS7_lS7_EENS5_IS7_S7_lEENS5_IlllEENS5_IS7_S7_S7_EENS4_6xrangeIlEENS4_14xstepped_rangeIlEENS4_8xall_tagENS4_13xellipsis_tagENS4_12xnewaxis_tagEEEEEEE8max_sizeB8ue170006ISO_vEEmRKSO_, symObjAddr: 0x1347C, symBinAddr: 0x100016304, symSize: 0x24 }
  - { offsetInCU: 0x2F908, offset: 0x2F908, size: 0x8, addend: 0x0, symName: __ZNKSt3__16vectorIN5mpark7variantIJlN2xt14xrange_adaptorINS3_12placeholders5xtuphEllEENS4_IlS6_lEENS4_IllS6_EENS4_IlS6_S6_EENS4_IS6_lS6_EENS4_IS6_S6_lEENS4_IlllEENS4_IS6_S6_S6_EENS3_6xrangeIlEENS3_14xstepped_rangeIlEENS3_8xall_tagENS3_13xellipsis_tagENS3_12xnewaxis_tagEEEENS_9allocatorISM_EEE7__allocB8ue170006Ev, symObjAddr: 0x134A0, symBinAddr: 0x100016328, symSize: 0x28 }
  - { offsetInCU: 0x2F92E, offset: 0x2F92E, size: 0x8, addend: 0x0, symName: __ZNKSt3__19allocatorIN5mpark7variantIJlN2xt14xrange_adaptorINS3_12placeholders5xtuphEllEENS4_IlS6_lEENS4_IllS6_EENS4_IlS6_S6_EENS4_IS6_lS6_EENS4_IS6_S6_lEENS4_IlllEENS4_IS6_S6_S6_EENS3_6xrangeIlEENS3_14xstepped_rangeIlEENS3_8xall_tagENS3_13xellipsis_tagENS3_12xnewaxis_tagEEEEE8max_sizeB8ue170006Ev, symObjAddr: 0x134C8, symBinAddr: 0x100016350, symSize: 0x14 }
  - { offsetInCU: 0x2F954, offset: 0x2F954, size: 0x8, addend: 0x0, symName: __ZNKSt3__117__compressed_pairIPN5mpark7variantIJlN2xt14xrange_adaptorINS3_12placeholders5xtuphEllEENS4_IlS6_lEENS4_IllS6_EENS4_IlS6_S6_EENS4_IS6_lS6_EENS4_IS6_S6_lEENS4_IlllEENS4_IS6_S6_S6_EENS3_6xrangeIlEENS3_14xstepped_rangeIlEENS3_8xall_tagENS3_13xellipsis_tagENS3_12xnewaxis_tagEEEENS_9allocatorISM_EEE6secondB8ue170006Ev, symObjAddr: 0x134DC, symBinAddr: 0x100016364, symSize: 0x24 }
  - { offsetInCU: 0x2F97A, offset: 0x2F97A, size: 0x8, addend: 0x0, symName: __ZNKSt3__122__compressed_pair_elemINS_9allocatorIN5mpark7variantIJlN2xt14xrange_adaptorINS4_12placeholders5xtuphEllEENS5_IlS7_lEENS5_IllS7_EENS5_IlS7_S7_EENS5_IS7_lS7_EENS5_IS7_S7_lEENS5_IlllEENS5_IS7_S7_S7_EENS4_6xrangeIlEENS4_14xstepped_rangeIlEENS4_8xall_tagENS4_13xellipsis_tagENS4_12xnewaxis_tagEEEEEELi1ELb1EE5__getB8ue170006Ev, symObjAddr: 0x13500, symBinAddr: 0x100016388, symSize: 0x14 }
  - { offsetInCU: 0x2F9A0, offset: 0x2F9A0, size: 0x8, addend: 0x0, symName: __ZNKSt3__16vectorIN5mpark7variantIJlN2xt14xrange_adaptorINS3_12placeholders5xtuphEllEENS4_IlS6_lEENS4_IllS6_EENS4_IlS6_S6_EENS4_IS6_lS6_EENS4_IS6_S6_lEENS4_IlllEENS4_IS6_S6_S6_EENS3_6xrangeIlEENS3_14xstepped_rangeIlEENS3_8xall_tagENS3_13xellipsis_tagENS3_12xnewaxis_tagEEEENS_9allocatorISM_EEE9__end_capB8ue170006Ev, symObjAddr: 0x13514, symBinAddr: 0x10001639C, symSize: 0x28 }
  - { offsetInCU: 0x2F9C6, offset: 0x2F9C6, size: 0x8, addend: 0x0, symName: __ZNKSt3__117__compressed_pairIPN5mpark7variantIJlN2xt14xrange_adaptorINS3_12placeholders5xtuphEllEENS4_IlS6_lEENS4_IllS6_EENS4_IlS6_S6_EENS4_IS6_lS6_EENS4_IS6_S6_lEENS4_IlllEENS4_IS6_S6_S6_EENS3_6xrangeIlEENS3_14xstepped_rangeIlEENS3_8xall_tagENS3_13xellipsis_tagENS3_12xnewaxis_tagEEEENS_9allocatorISM_EEE5firstB8ue170006Ev, symObjAddr: 0x1353C, symBinAddr: 0x1000163C4, symSize: 0x24 }
  - { offsetInCU: 0x2F9EC, offset: 0x2F9EC, size: 0x8, addend: 0x0, symName: __ZNKSt3__122__compressed_pair_elemIPN5mpark7variantIJlN2xt14xrange_adaptorINS3_12placeholders5xtuphEllEENS4_IlS6_lEENS4_IllS6_EENS4_IlS6_S6_EENS4_IS6_lS6_EENS4_IS6_S6_lEENS4_IlllEENS4_IS6_S6_S6_EENS3_6xrangeIlEENS3_14xstepped_rangeIlEENS3_8xall_tagENS3_13xellipsis_tagENS3_12xnewaxis_tagEEEELi0ELb0EE5__getB8ue170006Ev, symObjAddr: 0x13560, symBinAddr: 0x1000163E8, symSize: 0x14 }
  - { offsetInCU: 0x2FA12, offset: 0x2FA12, size: 0x8, addend: 0x0, symName: __ZNSt3__114__split_bufferIN5mpark7variantIJlN2xt14xrange_adaptorINS3_12placeholders5xtuphEllEENS4_IlS6_lEENS4_IllS6_EENS4_IlS6_S6_EENS4_IS6_lS6_EENS4_IS6_S6_lEENS4_IlllEENS4_IS6_S6_S6_EENS3_6xrangeIlEENS3_14xstepped_rangeIlEENS3_8xall_tagENS3_13xellipsis_tagENS3_12xnewaxis_tagEEEERNS_9allocatorISM_EEEC2EmmSP_, symObjAddr: 0x13574, symBinAddr: 0x1000163FC, symSize: 0xD4 }
  - { offsetInCU: 0x2FA85, offset: 0x2FA85, size: 0x8, addend: 0x0, symName: __ZNSt3__117__compressed_pairIPN5mpark7variantIJlN2xt14xrange_adaptorINS3_12placeholders5xtuphEllEENS4_IlS6_lEENS4_IllS6_EENS4_IlS6_S6_EENS4_IS6_lS6_EENS4_IS6_S6_lEENS4_IlllEENS4_IS6_S6_S6_EENS3_6xrangeIlEENS3_14xstepped_rangeIlEENS3_8xall_tagENS3_13xellipsis_tagENS3_12xnewaxis_tagEEEERNS_9allocatorISM_EEEC1B8ue170006IDnSQ_EEOT_OT0_, symObjAddr: 0x13648, symBinAddr: 0x1000164D0, symSize: 0x3C }
  - { offsetInCU: 0x2FADD, offset: 0x2FADD, size: 0x8, addend: 0x0, symName: __ZNSt3__114__split_bufferIN5mpark7variantIJlN2xt14xrange_adaptorINS3_12placeholders5xtuphEllEENS4_IlS6_lEENS4_IllS6_EENS4_IlS6_S6_EENS4_IS6_lS6_EENS4_IS6_S6_lEENS4_IlllEENS4_IS6_S6_S6_EENS3_6xrangeIlEENS3_14xstepped_rangeIlEENS3_8xall_tagENS3_13xellipsis_tagENS3_12xnewaxis_tagEEEERNS_9allocatorISM_EEE7__allocB8ue170006Ev, symObjAddr: 0x136C4, symBinAddr: 0x10001654C, symSize: 0x28 }
  - { offsetInCU: 0x2FB03, offset: 0x2FB03, size: 0x8, addend: 0x0, symName: __ZNSt3__114__split_bufferIN5mpark7variantIJlN2xt14xrange_adaptorINS3_12placeholders5xtuphEllEENS4_IlS6_lEENS4_IllS6_EENS4_IlS6_S6_EENS4_IS6_lS6_EENS4_IS6_S6_lEENS4_IlllEENS4_IS6_S6_S6_EENS3_6xrangeIlEENS3_14xstepped_rangeIlEENS3_8xall_tagENS3_13xellipsis_tagENS3_12xnewaxis_tagEEEERNS_9allocatorISM_EEE9__end_capB8ue170006Ev, symObjAddr: 0x136EC, symBinAddr: 0x100016574, symSize: 0x28 }
  - { offsetInCU: 0x2FB29, offset: 0x2FB29, size: 0x8, addend: 0x0, symName: __ZNSt3__117__compressed_pairIPN5mpark7variantIJlN2xt14xrange_adaptorINS3_12placeholders5xtuphEllEENS4_IlS6_lEENS4_IllS6_EENS4_IlS6_S6_EENS4_IS6_lS6_EENS4_IS6_S6_lEENS4_IlllEENS4_IS6_S6_S6_EENS3_6xrangeIlEENS3_14xstepped_rangeIlEENS3_8xall_tagENS3_13xellipsis_tagENS3_12xnewaxis_tagEEEERNS_9allocatorISM_EEEC2B8ue170006IDnSQ_EEOT_OT0_, symObjAddr: 0x13714, symBinAddr: 0x10001659C, symSize: 0x48 }
  - { offsetInCU: 0x2FB81, offset: 0x2FB81, size: 0x8, addend: 0x0, symName: __ZNSt3__122__compressed_pair_elemIRNS_9allocatorIN5mpark7variantIJlN2xt14xrange_adaptorINS4_12placeholders5xtuphEllEENS5_IlS7_lEENS5_IllS7_EENS5_IlS7_S7_EENS5_IS7_lS7_EENS5_IS7_S7_lEENS5_IlllEENS5_IS7_S7_S7_EENS4_6xrangeIlEENS4_14xstepped_rangeIlEENS4_8xall_tagENS4_13xellipsis_tagENS4_12xnewaxis_tagEEEEEELi1ELb0EEC2B8ue170006ISP_vEEOT_, symObjAddr: 0x1375C, symBinAddr: 0x1000165E4, symSize: 0x20 }
  - { offsetInCU: 0x2FBC3, offset: 0x2FBC3, size: 0x8, addend: 0x0, symName: __ZNSt3__19allocatorIN5mpark7variantIJlN2xt14xrange_adaptorINS3_12placeholders5xtuphEllEENS4_IlS6_lEENS4_IllS6_EENS4_IlS6_S6_EENS4_IS6_lS6_EENS4_IS6_S6_lEENS4_IlllEENS4_IS6_S6_S6_EENS3_6xrangeIlEENS3_14xstepped_rangeIlEENS3_8xall_tagENS3_13xellipsis_tagENS3_12xnewaxis_tagEEEEE8allocateB8ue170006Em, symObjAddr: 0x1377C, symBinAddr: 0x100016604, symSize: 0x58 }
  - { offsetInCU: 0x2FBF7, offset: 0x2FBF7, size: 0x8, addend: 0x0, symName: __ZNSt3__117__compressed_pairIPN5mpark7variantIJlN2xt14xrange_adaptorINS3_12placeholders5xtuphEllEENS4_IlS6_lEENS4_IllS6_EENS4_IlS6_S6_EENS4_IS6_lS6_EENS4_IS6_S6_lEENS4_IlllEENS4_IS6_S6_S6_EENS3_6xrangeIlEENS3_14xstepped_rangeIlEENS3_8xall_tagENS3_13xellipsis_tagENS3_12xnewaxis_tagEEEERNS_9allocatorISM_EEE6secondB8ue170006Ev, symObjAddr: 0x137D4, symBinAddr: 0x10001665C, symSize: 0x28 }
  - { offsetInCU: 0x2FC1D, offset: 0x2FC1D, size: 0x8, addend: 0x0, symName: __ZNSt3__122__compressed_pair_elemIRNS_9allocatorIN5mpark7variantIJlN2xt14xrange_adaptorINS4_12placeholders5xtuphEllEENS5_IlS7_lEENS5_IllS7_EENS5_IlS7_S7_EENS5_IS7_lS7_EENS5_IS7_S7_lEENS5_IlllEENS5_IS7_S7_S7_EENS4_6xrangeIlEENS4_14xstepped_rangeIlEENS4_8xall_tagENS4_13xellipsis_tagENS4_12xnewaxis_tagEEEEEELi1ELb0EE5__getB8ue170006Ev, symObjAddr: 0x137FC, symBinAddr: 0x100016684, symSize: 0x18 }
  - { offsetInCU: 0x2FC43, offset: 0x2FC43, size: 0x8, addend: 0x0, symName: __ZNSt3__117__compressed_pairIPN5mpark7variantIJlN2xt14xrange_adaptorINS3_12placeholders5xtuphEllEENS4_IlS6_lEENS4_IllS6_EENS4_IlS6_S6_EENS4_IS6_lS6_EENS4_IS6_S6_lEENS4_IlllEENS4_IS6_S6_S6_EENS3_6xrangeIlEENS3_14xstepped_rangeIlEENS3_8xall_tagENS3_13xellipsis_tagENS3_12xnewaxis_tagEEEERNS_9allocatorISM_EEE5firstB8ue170006Ev, symObjAddr: 0x13814, symBinAddr: 0x10001669C, symSize: 0x24 }
  - { offsetInCU: 0x2FC69, offset: 0x2FC69, size: 0x8, addend: 0x0, symName: __ZNKSt3__16vectorIN5mpark7variantIJlN2xt14xrange_adaptorINS3_12placeholders5xtuphEllEENS4_IlS6_lEENS4_IllS6_EENS4_IlS6_S6_EENS4_IS6_lS6_EENS4_IS6_S6_lEENS4_IlllEENS4_IS6_S6_S6_EENS3_6xrangeIlEENS3_14xstepped_rangeIlEENS3_8xall_tagENS3_13xellipsis_tagENS3_12xnewaxis_tagEEEENS_9allocatorISM_EEE17__annotate_deleteB8ue170006Ev, symObjAddr: 0x13838, symBinAddr: 0x1000166C0, symSize: 0xB8 }
  - { offsetInCU: 0x2FC8F, offset: 0x2FC8F, size: 0x8, addend: 0x0, symName: __ZNSt3__116reverse_iteratorIPN5mpark7variantIJlN2xt14xrange_adaptorINS3_12placeholders5xtuphEllEENS4_IlS6_lEENS4_IllS6_EENS4_IlS6_S6_EENS4_IS6_lS6_EENS4_IS6_S6_lEENS4_IlllEENS4_IS6_S6_S6_EENS3_6xrangeIlEENS3_14xstepped_rangeIlEENS3_8xall_tagENS3_13xellipsis_tagENS3_12xnewaxis_tagEEEEEC1B8ue170006ESN_, symObjAddr: 0x13968, symBinAddr: 0x1000167F0, symSize: 0x34 }
  - { offsetInCU: 0x2FCC7, offset: 0x2FCC7, size: 0x8, addend: 0x0, symName: __ZNKSt3__116reverse_iteratorIPN5mpark7variantIJlN2xt14xrange_adaptorINS3_12placeholders5xtuphEllEENS4_IlS6_lEENS4_IllS6_EENS4_IlS6_S6_EENS4_IS6_lS6_EENS4_IS6_S6_lEENS4_IlllEENS4_IS6_S6_S6_EENS3_6xrangeIlEENS3_14xstepped_rangeIlEENS3_8xall_tagENS3_13xellipsis_tagENS3_12xnewaxis_tagEEEEE4baseB8ue170006Ev, symObjAddr: 0x1399C, symBinAddr: 0x100016824, symSize: 0x18 }
  - { offsetInCU: 0x2FCED, offset: 0x2FCED, size: 0x8, addend: 0x0, symName: __ZNKSt3__16vectorIN5mpark7variantIJlN2xt14xrange_adaptorINS3_12placeholders5xtuphEllEENS4_IlS6_lEENS4_IllS6_EENS4_IlS6_S6_EENS4_IS6_lS6_EENS4_IS6_S6_lEENS4_IlllEENS4_IS6_S6_S6_EENS3_6xrangeIlEENS3_14xstepped_rangeIlEENS3_8xall_tagENS3_13xellipsis_tagENS3_12xnewaxis_tagEEEENS_9allocatorISM_EEE14__annotate_newB8ue170006Em, symObjAddr: 0x139F0, symBinAddr: 0x100016878, symSize: 0xAC }
  - { offsetInCU: 0x2FD22, offset: 0x2FD22, size: 0x8, addend: 0x0, symName: __ZNKSt3__16vectorIN5mpark7variantIJlN2xt14xrange_adaptorINS3_12placeholders5xtuphEllEENS4_IlS6_lEENS4_IllS6_EENS4_IlS6_S6_EENS4_IS6_lS6_EENS4_IS6_S6_lEENS4_IlllEENS4_IS6_S6_S6_EENS3_6xrangeIlEENS3_14xstepped_rangeIlEENS3_8xall_tagENS3_13xellipsis_tagENS3_12xnewaxis_tagEEEENS_9allocatorISM_EEE31__annotate_contiguous_containerB8ue170006EPKvSR_SR_SR_, symObjAddr: 0x13A9C, symBinAddr: 0x100016924, symSize: 0x20 }
  - { offsetInCU: 0x2FD74, offset: 0x2FD74, size: 0x8, addend: 0x0, symName: __ZNKSt3__16vectorIN5mpark7variantIJlN2xt14xrange_adaptorINS3_12placeholders5xtuphEllEENS4_IlS6_lEENS4_IllS6_EENS4_IlS6_S6_EENS4_IS6_lS6_EENS4_IS6_S6_lEENS4_IlllEENS4_IS6_S6_S6_EENS3_6xrangeIlEENS3_14xstepped_rangeIlEENS3_8xall_tagENS3_13xellipsis_tagENS3_12xnewaxis_tagEEEENS_9allocatorISM_EEE4dataB8ue170006Ev, symObjAddr: 0x13ABC, symBinAddr: 0x100016944, symSize: 0x28 }
  - { offsetInCU: 0x2FDB6, offset: 0x2FDB6, size: 0x8, addend: 0x0, symName: __ZNKSt3__111__move_loopINS_17_ClassicAlgPolicyEEclB8ue170006INS_16reverse_iteratorIPN5mpark7variantIJlN2xt14xrange_adaptorINS7_12placeholders5xtuphEllEENS8_IlSA_lEENS8_IllSA_EENS8_IlSA_SA_EENS8_ISA_lSA_EENS8_ISA_SA_lEENS8_IlllEENS8_ISA_SA_SA_EENS7_6xrangeIlEENS7_14xstepped_rangeIlEENS7_8xall_tagENS7_13xellipsis_tagENS7_12xnewaxis_tagEEEEEESS_SS_EENS_4pairIT_T1_EESU_T0_SV_, symObjAddr: 0x13DD4, symBinAddr: 0x100016C5C, symSize: 0xA8 }
  - { offsetInCU: 0x2FE20, offset: 0x2FE20, size: 0x8, addend: 0x0, symName: __ZNSt3__18_IterOpsINS_17_ClassicAlgPolicyEE11__iter_moveB8ue170006IRNS_16reverse_iteratorIPN5mpark7variantIJlN2xt14xrange_adaptorINS7_12placeholders5xtuphEllEENS8_IlSA_lEENS8_IllSA_EENS8_IlSA_SA_EENS8_ISA_lSA_EENS8_ISA_SA_lEENS8_IlllEENS8_ISA_SA_SA_EENS7_6xrangeIlEENS7_14xstepped_rangeIlEENS7_8xall_tagENS7_13xellipsis_tagENS7_12xnewaxis_tagEEEEEEEENS_9enable_ifIXsr12is_referenceIDTdeclsr3stdE7declvalIRT_EEEEE5valueEDTclsr3stdE4movedeclsr3stdE7declvalISW_EEEEE4typeEOSV_, symObjAddr: 0x14010, symBinAddr: 0x100016E98, symSize: 0x28 }
  - { offsetInCU: 0x2FE4C, offset: 0x2FE4C, size: 0x8, addend: 0x0, symName: __ZNKSt3__116reverse_iteratorIPN5mpark7variantIJlN2xt14xrange_adaptorINS3_12placeholders5xtuphEllEENS4_IlS6_lEENS4_IllS6_EENS4_IlS6_S6_EENS4_IS6_lS6_EENS4_IS6_S6_lEENS4_IlllEENS4_IS6_S6_S6_EENS3_6xrangeIlEENS3_14xstepped_rangeIlEENS3_8xall_tagENS3_13xellipsis_tagENS3_12xnewaxis_tagEEEEEdeB8ue170006Ev, symObjAddr: 0x14038, symBinAddr: 0x100016EC0, symSize: 0x28 }
  - { offsetInCU: 0x2FE80, offset: 0x2FE80, size: 0x8, addend: 0x0, symName: __ZNSt3__116reverse_iteratorIPN5mpark7variantIJlN2xt14xrange_adaptorINS3_12placeholders5xtuphEllEENS4_IlS6_lEENS4_IllS6_EENS4_IlS6_S6_EENS4_IS6_lS6_EENS4_IS6_S6_lEENS4_IlllEENS4_IS6_S6_S6_EENS3_6xrangeIlEENS3_14xstepped_rangeIlEENS3_8xall_tagENS3_13xellipsis_tagENS3_12xnewaxis_tagEEEEEppB8ue170006Ev, symObjAddr: 0x14060, symBinAddr: 0x100016EE8, symSize: 0x20 }
  - { offsetInCU: 0x2FEA6, offset: 0x2FEA6, size: 0x8, addend: 0x0, symName: __ZNSt3__18_IterOpsINS_17_ClassicAlgPolicyEE25__validate_iter_referenceB8ue170006IRNS_16reverse_iteratorIPN5mpark7variantIJlN2xt14xrange_adaptorINS7_12placeholders5xtuphEllEENS8_IlSA_lEENS8_IllSA_EENS8_IlSA_SA_EENS8_ISA_lSA_EENS8_ISA_SA_lEENS8_IlllEENS8_ISA_SA_SA_EENS7_6xrangeIlEENS7_14xstepped_rangeIlEENS7_8xall_tagENS7_13xellipsis_tagENS7_12xnewaxis_tagEEEEEEEEvv, symObjAddr: 0x14080, symBinAddr: 0x100016F08, symSize: 0x4 }
  - { offsetInCU: 0x2FEC4, offset: 0x2FEC4, size: 0x8, addend: 0x0, symName: __ZNSt3__118__unwrap_iter_implINS_16reverse_iteratorIPN5mpark7variantIJlN2xt14xrange_adaptorINS4_12placeholders5xtuphEllEENS5_IlS7_lEENS5_IllS7_EENS5_IlS7_S7_EENS5_IS7_lS7_EENS5_IS7_S7_lEENS5_IlllEENS5_IS7_S7_S7_EENS4_6xrangeIlEENS4_14xstepped_rangeIlEENS4_8xall_tagENS4_13xellipsis_tagENS4_12xnewaxis_tagEEEEEELb0EE8__unwrapB8ue170006ESP_, symObjAddr: 0x14084, symBinAddr: 0x100016F0C, symSize: 0x24 }
  - { offsetInCU: 0x2FEED, offset: 0x2FEED, size: 0x8, addend: 0x0, symName: __ZNSt3__14pairINS_16reverse_iteratorIPN5mpark7variantIJlN2xt14xrange_adaptorINS4_12placeholders5xtuphEllEENS5_IlS7_lEENS5_IllS7_EENS5_IlS7_S7_EENS5_IS7_lS7_EENS5_IS7_S7_lEENS5_IlllEENS5_IS7_S7_S7_EENS4_6xrangeIlEENS4_14xstepped_rangeIlEENS4_8xall_tagENS4_13xellipsis_tagENS4_12xnewaxis_tagEEEEEESP_EC1B8ue170006ISP_SP_LPv0EEEOT_OT0_, symObjAddr: 0x140A8, symBinAddr: 0x100016F30, symSize: 0x3C }
  - { offsetInCU: 0x2FF4B, offset: 0x2FF4B, size: 0x8, addend: 0x0, symName: __ZNSt3__14pairINS_16reverse_iteratorIPN5mpark7variantIJlN2xt14xrange_adaptorINS4_12placeholders5xtuphEllEENS5_IlS7_lEENS5_IllS7_EENS5_IlS7_S7_EENS5_IS7_lS7_EENS5_IS7_S7_lEENS5_IlllEENS5_IS7_S7_S7_EENS4_6xrangeIlEENS4_14xstepped_rangeIlEENS4_8xall_tagENS4_13xellipsis_tagENS4_12xnewaxis_tagEEEEEESP_EC2B8ue170006ISP_SP_LPv0EEEOT_OT0_, symObjAddr: 0x140E4, symBinAddr: 0x100016F6C, symSize: 0x34 }
  - { offsetInCU: 0x2FFA9, offset: 0x2FFA9, size: 0x8, addend: 0x0, symName: __ZNSt3__118__unwrap_iter_implINS_16reverse_iteratorIPN5mpark7variantIJlN2xt14xrange_adaptorINS4_12placeholders5xtuphEllEENS5_IlS7_lEENS5_IllS7_EENS5_IlS7_S7_EENS5_IS7_lS7_EENS5_IS7_S7_lEENS5_IlllEENS5_IS7_S7_S7_EENS4_6xrangeIlEENS4_14xstepped_rangeIlEENS4_8xall_tagENS4_13xellipsis_tagENS4_12xnewaxis_tagEEEEEELb0EE8__rewrapB8ue170006ESP_SP_, symObjAddr: 0x14118, symBinAddr: 0x100016FA0, symSize: 0x2C }
  - { offsetInCU: 0x2FFD6, offset: 0x2FFD6, size: 0x8, addend: 0x0, symName: __ZNSt3__116reverse_iteratorIPN5mpark7variantIJlN2xt14xrange_adaptorINS3_12placeholders5xtuphEllEENS4_IlS6_lEENS4_IllS6_EENS4_IlS6_S6_EENS4_IS6_lS6_EENS4_IS6_S6_lEENS4_IlllEENS4_IS6_S6_S6_EENS3_6xrangeIlEENS3_14xstepped_rangeIlEENS3_8xall_tagENS3_13xellipsis_tagENS3_12xnewaxis_tagEEEEEC2B8ue170006ESN_, symObjAddr: 0x14144, symBinAddr: 0x100016FCC, symSize: 0x28 }
  - { offsetInCU: 0x3000E, offset: 0x3000E, size: 0x8, addend: 0x0, symName: __ZNSt3__114__split_bufferIN5mpark7variantIJlN2xt14xrange_adaptorINS3_12placeholders5xtuphEllEENS4_IlS6_lEENS4_IllS6_EENS4_IlS6_S6_EENS4_IS6_lS6_EENS4_IS6_S6_lEENS4_IlllEENS4_IS6_S6_S6_EENS3_6xrangeIlEENS3_14xstepped_rangeIlEENS3_8xall_tagENS3_13xellipsis_tagENS3_12xnewaxis_tagEEEERNS_9allocatorISM_EEED2Ev, symObjAddr: 0x1416C, symBinAddr: 0x100016FF4, symSize: 0x8C }
  - { offsetInCU: 0x3003A, offset: 0x3003A, size: 0x8, addend: 0x0, symName: __ZNSt3__114__split_bufferIN5mpark7variantIJlN2xt14xrange_adaptorINS3_12placeholders5xtuphEllEENS4_IlS6_lEENS4_IllS6_EENS4_IlS6_S6_EENS4_IS6_lS6_EENS4_IS6_S6_lEENS4_IlllEENS4_IS6_S6_S6_EENS3_6xrangeIlEENS3_14xstepped_rangeIlEENS3_8xall_tagENS3_13xellipsis_tagENS3_12xnewaxis_tagEEEERNS_9allocatorISM_EEE5clearB8ue170006Ev, symObjAddr: 0x141F8, symBinAddr: 0x100017080, symSize: 0x28 }
  - { offsetInCU: 0x3005F, offset: 0x3005F, size: 0x8, addend: 0x0, symName: __ZNSt3__116allocator_traitsINS_9allocatorIN5mpark7variantIJlN2xt14xrange_adaptorINS4_12placeholders5xtuphEllEENS5_IlS7_lEENS5_IllS7_EENS5_IlS7_S7_EENS5_IS7_lS7_EENS5_IS7_S7_lEENS5_IlllEENS5_IS7_S7_S7_EENS4_6xrangeIlEENS4_14xstepped_rangeIlEENS4_8xall_tagENS4_13xellipsis_tagENS4_12xnewaxis_tagEEEEEEE10deallocateB8ue170006ERSO_PSN_m, symObjAddr: 0x14220, symBinAddr: 0x1000170A8, symSize: 0x34 }
  - { offsetInCU: 0x300A1, offset: 0x300A1, size: 0x8, addend: 0x0, symName: __ZNKSt3__114__split_bufferIN5mpark7variantIJlN2xt14xrange_adaptorINS3_12placeholders5xtuphEllEENS4_IlS6_lEENS4_IllS6_EENS4_IlS6_S6_EENS4_IS6_lS6_EENS4_IS6_S6_lEENS4_IlllEENS4_IS6_S6_S6_EENS3_6xrangeIlEENS3_14xstepped_rangeIlEENS3_8xall_tagENS3_13xellipsis_tagENS3_12xnewaxis_tagEEEERNS_9allocatorISM_EEE8capacityB8ue170006Ev, symObjAddr: 0x14254, symBinAddr: 0x1000170DC, symSize: 0x40 }
  - { offsetInCU: 0x300C7, offset: 0x300C7, size: 0x8, addend: 0x0, symName: __ZNSt3__114__split_bufferIN5mpark7variantIJlN2xt14xrange_adaptorINS3_12placeholders5xtuphEllEENS4_IlS6_lEENS4_IllS6_EENS4_IlS6_S6_EENS4_IS6_lS6_EENS4_IS6_S6_lEENS4_IlllEENS4_IS6_S6_S6_EENS3_6xrangeIlEENS3_14xstepped_rangeIlEENS3_8xall_tagENS3_13xellipsis_tagENS3_12xnewaxis_tagEEEERNS_9allocatorISM_EEE17__destruct_at_endB8ue170006EPSM_, symObjAddr: 0x14294, symBinAddr: 0x10001711C, symSize: 0x2C }
  - { offsetInCU: 0x300FB, offset: 0x300FB, size: 0x8, addend: 0x0, symName: __ZNSt3__114__split_bufferIN5mpark7variantIJlN2xt14xrange_adaptorINS3_12placeholders5xtuphEllEENS4_IlS6_lEENS4_IllS6_EENS4_IlS6_S6_EENS4_IS6_lS6_EENS4_IS6_S6_lEENS4_IlllEENS4_IS6_S6_S6_EENS3_6xrangeIlEENS3_14xstepped_rangeIlEENS3_8xall_tagENS3_13xellipsis_tagENS3_12xnewaxis_tagEEEERNS_9allocatorISM_EEE17__destruct_at_endB8ue170006EPSM_NS_17integral_constantIbLb0EEE, symObjAddr: 0x142C0, symBinAddr: 0x100017148, symSize: 0x80 }
  - { offsetInCU: 0x3013A, offset: 0x3013A, size: 0x8, addend: 0x0, symName: __ZNSt3__116allocator_traitsINS_9allocatorIN5mpark7variantIJlN2xt14xrange_adaptorINS4_12placeholders5xtuphEllEENS5_IlS7_lEENS5_IllS7_EENS5_IlS7_S7_EENS5_IS7_lS7_EENS5_IS7_S7_lEENS5_IlllEENS5_IS7_S7_S7_EENS4_6xrangeIlEENS4_14xstepped_rangeIlEENS4_8xall_tagENS4_13xellipsis_tagENS4_12xnewaxis_tagEEEEEEE7destroyB8ue170006ISN_vEEvRSO_PT_, symObjAddr: 0x14340, symBinAddr: 0x1000171C8, symSize: 0x2C }
  - { offsetInCU: 0x30177, offset: 0x30177, size: 0x8, addend: 0x0, symName: __ZNSt3__19allocatorIN5mpark7variantIJlN2xt14xrange_adaptorINS3_12placeholders5xtuphEllEENS4_IlS6_lEENS4_IllS6_EENS4_IlS6_S6_EENS4_IS6_lS6_EENS4_IS6_S6_lEENS4_IlllEENS4_IS6_S6_S6_EENS3_6xrangeIlEENS3_14xstepped_rangeIlEENS3_8xall_tagENS3_13xellipsis_tagENS3_12xnewaxis_tagEEEEE7destroyB8ue170006EPSM_, symObjAddr: 0x1436C, symBinAddr: 0x1000171F4, symSize: 0x14 }
  - { offsetInCU: 0x301AB, offset: 0x301AB, size: 0x8, addend: 0x0, symName: __ZNSt3__19allocatorIN5mpark7variantIJlN2xt14xrange_adaptorINS3_12placeholders5xtuphEllEENS4_IlS6_lEENS4_IllS6_EENS4_IlS6_S6_EENS4_IS6_lS6_EENS4_IS6_S6_lEENS4_IlllEENS4_IS6_S6_S6_EENS3_6xrangeIlEENS3_14xstepped_rangeIlEENS3_8xall_tagENS3_13xellipsis_tagENS3_12xnewaxis_tagEEEEE10deallocateB8ue170006EPSM_m, symObjAddr: 0x14380, symBinAddr: 0x100017208, symSize: 0x40 }
  - { offsetInCU: 0x301ED, offset: 0x301ED, size: 0x8, addend: 0x0, symName: __ZNKSt3__114__split_bufferIN5mpark7variantIJlN2xt14xrange_adaptorINS3_12placeholders5xtuphEllEENS4_IlS6_lEENS4_IllS6_EENS4_IlS6_S6_EENS4_IS6_lS6_EENS4_IS6_S6_lEENS4_IlllEENS4_IS6_S6_S6_EENS3_6xrangeIlEENS3_14xstepped_rangeIlEENS3_8xall_tagENS3_13xellipsis_tagENS3_12xnewaxis_tagEEEERNS_9allocatorISM_EEE9__end_capB8ue170006Ev, symObjAddr: 0x143C0, symBinAddr: 0x100017248, symSize: 0x28 }
  - { offsetInCU: 0x30213, offset: 0x30213, size: 0x8, addend: 0x0, symName: __ZNKSt3__117__compressed_pairIPN5mpark7variantIJlN2xt14xrange_adaptorINS3_12placeholders5xtuphEllEENS4_IlS6_lEENS4_IllS6_EENS4_IlS6_S6_EENS4_IS6_lS6_EENS4_IS6_S6_lEENS4_IlllEENS4_IS6_S6_S6_EENS3_6xrangeIlEENS3_14xstepped_rangeIlEENS3_8xall_tagENS3_13xellipsis_tagENS3_12xnewaxis_tagEEEERNS_9allocatorISM_EEE5firstB8ue170006Ev, symObjAddr: 0x143E8, symBinAddr: 0x100017270, symSize: 0x24 }
  - { offsetInCU: 0x30239, offset: 0x30239, size: 0x8, addend: 0x0, symName: __ZN5mpark7variantIJlN2xt14xrange_adaptorINS1_12placeholders5xtuphEllEENS2_IlS4_lEENS2_IllS4_EENS2_IlS4_S4_EENS2_IS4_lS4_EENS2_IS4_S4_lEENS2_IlllEENS2_IS4_S4_S4_EENS1_6xrangeIlEENS1_14xstepped_rangeIlEENS1_8xall_tagENS1_13xellipsis_tagENS1_12xnewaxis_tagEEEC2IiiLi0ELi0ELi0ELm0ElLi0EEEOT_, symObjAddr: 0x1440C, symBinAddr: 0x100017294, symSize: 0x48 }
  - { offsetInCU: 0x302AF, offset: 0x302AF, size: 0x8, addend: 0x0, symName: __ZN5mpark6detail4implIJlN2xt14xrange_adaptorINS2_12placeholders5xtuphEllEENS3_IlS5_lEENS3_IllS5_EENS3_IlS5_S5_EENS3_IS5_lS5_EENS3_IS5_S5_lEENS3_IlllEENS3_IS5_S5_S5_EENS2_6xrangeIlEENS2_14xstepped_rangeIlEENS2_8xall_tagENS2_13xellipsis_tagENS2_12xnewaxis_tagEEECI1NS0_4baseILNS0_5TraitE0EJlS6_S7_S8_S9_SA_SB_SC_SD_SF_SH_SI_SJ_SK_EEEILm0EJiEEENS_16in_place_index_tIXT_EEEDpOT0_, symObjAddr: 0x14468, symBinAddr: 0x1000172F0, symSize: 0x34 }
  - { offsetInCU: 0x302EE, offset: 0x302EE, size: 0x8, addend: 0x0, symName: __ZN5mpark6detail4implIJlN2xt14xrange_adaptorINS2_12placeholders5xtuphEllEENS3_IlS5_lEENS3_IllS5_EENS3_IlS5_S5_EENS3_IS5_lS5_EENS3_IS5_S5_lEENS3_IlllEENS3_IS5_S5_S5_EENS2_6xrangeIlEENS2_14xstepped_rangeIlEENS2_8xall_tagENS2_13xellipsis_tagENS2_12xnewaxis_tagEEECI2NS0_4baseILNS0_5TraitE0EJlS6_S7_S8_S9_SA_SB_SC_SD_SF_SH_SI_SJ_SK_EEEILm0EJiEEENS_16in_place_index_tIXT_EEEDpOT0_, symObjAddr: 0x1449C, symBinAddr: 0x100017324, symSize: 0x34 }
  - { offsetInCU: 0x3032D, offset: 0x3032D, size: 0x8, addend: 0x0, symName: __ZN5mpark6detail15copy_assignmentINS0_6traitsIJlN2xt14xrange_adaptorINS3_12placeholders5xtuphEllEENS4_IlS6_lEENS4_IllS6_EENS4_IlS6_S6_EENS4_IS6_lS6_EENS4_IS6_S6_lEENS4_IlllEENS4_IS6_S6_S6_EENS3_6xrangeIlEENS3_14xstepped_rangeIlEENS3_8xall_tagENS3_13xellipsis_tagENS3_12xnewaxis_tagEEEELNS0_5TraitE0EECI2NS0_4baseILSN_0EJlS7_S8_S9_SA_SB_SC_SD_SE_SG_SI_SJ_SK_SL_EEEILm0EJiEEENS_16in_place_index_tIXT_EEEDpOT0_, symObjAddr: 0x144D0, symBinAddr: 0x100017358, symSize: 0x34 }
  - { offsetInCU: 0x3036C, offset: 0x3036C, size: 0x8, addend: 0x0, symName: __ZN5mpark6detail15move_assignmentINS0_6traitsIJlN2xt14xrange_adaptorINS3_12placeholders5xtuphEllEENS4_IlS6_lEENS4_IllS6_EENS4_IlS6_S6_EENS4_IS6_lS6_EENS4_IS6_S6_lEENS4_IlllEENS4_IS6_S6_S6_EENS3_6xrangeIlEENS3_14xstepped_rangeIlEENS3_8xall_tagENS3_13xellipsis_tagENS3_12xnewaxis_tagEEEELNS0_5TraitE0EECI2NS0_4baseILSN_0EJlS7_S8_S9_SA_SB_SC_SD_SE_SG_SI_SJ_SK_SL_EEEILm0EJiEEENS_16in_place_index_tIXT_EEEDpOT0_, symObjAddr: 0x14504, symBinAddr: 0x10001738C, symSize: 0x34 }
  - { offsetInCU: 0x303B0, offset: 0x303B0, size: 0x8, addend: 0x0, symName: __ZN5mpark6detail10assignmentINS0_6traitsIJlN2xt14xrange_adaptorINS3_12placeholders5xtuphEllEENS4_IlS6_lEENS4_IllS6_EENS4_IlS6_S6_EENS4_IS6_lS6_EENS4_IS6_S6_lEENS4_IlllEENS4_IS6_S6_S6_EENS3_6xrangeIlEENS3_14xstepped_rangeIlEENS3_8xall_tagENS3_13xellipsis_tagENS3_12xnewaxis_tagEEEEECI2NS0_4baseILNS0_5TraitE0EJlS7_S8_S9_SA_SB_SC_SD_SE_SG_SI_SJ_SK_SL_EEEILm0EJiEEENS_16in_place_index_tIXT_EEEDpOT0_, symObjAddr: 0x14538, symBinAddr: 0x1000173C0, symSize: 0x34 }
  - { offsetInCU: 0x303EF, offset: 0x303EF, size: 0x8, addend: 0x0, symName: __ZN5mpark6detail16copy_constructorINS0_6traitsIJlN2xt14xrange_adaptorINS3_12placeholders5xtuphEllEENS4_IlS6_lEENS4_IllS6_EENS4_IlS6_S6_EENS4_IS6_lS6_EENS4_IS6_S6_lEENS4_IlllEENS4_IS6_S6_S6_EENS3_6xrangeIlEENS3_14xstepped_rangeIlEENS3_8xall_tagENS3_13xellipsis_tagENS3_12xnewaxis_tagEEEELNS0_5TraitE0EECI2NS0_4baseILSN_0EJlS7_S8_S9_SA_SB_SC_SD_SE_SG_SI_SJ_SK_SL_EEEILm0EJiEEENS_16in_place_index_tIXT_EEEDpOT0_, symObjAddr: 0x1456C, symBinAddr: 0x1000173F4, symSize: 0x34 }
  - { offsetInCU: 0x3042E, offset: 0x3042E, size: 0x8, addend: 0x0, symName: __ZN5mpark6detail16move_constructorINS0_6traitsIJlN2xt14xrange_adaptorINS3_12placeholders5xtuphEllEENS4_IlS6_lEENS4_IllS6_EENS4_IlS6_S6_EENS4_IS6_lS6_EENS4_IS6_S6_lEENS4_IlllEENS4_IS6_S6_S6_EENS3_6xrangeIlEENS3_14xstepped_rangeIlEENS3_8xall_tagENS3_13xellipsis_tagENS3_12xnewaxis_tagEEEELNS0_5TraitE0EECI2NS0_4baseILSN_0EJlS7_S8_S9_SA_SB_SC_SD_SE_SG_SI_SJ_SK_SL_EEEILm0EJiEEENS_16in_place_index_tIXT_EEEDpOT0_, symObjAddr: 0x145A0, symBinAddr: 0x100017428, symSize: 0x34 }
  - { offsetInCU: 0x30472, offset: 0x30472, size: 0x8, addend: 0x0, symName: __ZN5mpark6detail11constructorINS0_6traitsIJlN2xt14xrange_adaptorINS3_12placeholders5xtuphEllEENS4_IlS6_lEENS4_IllS6_EENS4_IlS6_S6_EENS4_IS6_lS6_EENS4_IS6_S6_lEENS4_IlllEENS4_IS6_S6_S6_EENS3_6xrangeIlEENS3_14xstepped_rangeIlEENS3_8xall_tagENS3_13xellipsis_tagENS3_12xnewaxis_tagEEEEECI2NS0_4baseILNS0_5TraitE0EJlS7_S8_S9_SA_SB_SC_SD_SE_SG_SI_SJ_SK_SL_EEEILm0EJiEEENS_16in_place_index_tIXT_EEEDpOT0_, symObjAddr: 0x145D4, symBinAddr: 0x10001745C, symSize: 0x34 }
  - { offsetInCU: 0x304B1, offset: 0x304B1, size: 0x8, addend: 0x0, symName: __ZN5mpark6detail10destructorINS0_6traitsIJlN2xt14xrange_adaptorINS3_12placeholders5xtuphEllEENS4_IlS6_lEENS4_IllS6_EENS4_IlS6_S6_EENS4_IS6_lS6_EENS4_IS6_S6_lEENS4_IlllEENS4_IS6_S6_S6_EENS3_6xrangeIlEENS3_14xstepped_rangeIlEENS3_8xall_tagENS3_13xellipsis_tagENS3_12xnewaxis_tagEEEELNS0_5TraitE0EECI2NS0_4baseILSN_0EJlS7_S8_S9_SA_SB_SC_SD_SE_SG_SI_SJ_SK_SL_EEEILm0EJiEEENS_16in_place_index_tIXT_EEEDpOT0_, symObjAddr: 0x14608, symBinAddr: 0x100017490, symSize: 0x34 }
  - { offsetInCU: 0x304F0, offset: 0x304F0, size: 0x8, addend: 0x0, symName: __ZN5mpark6detail4baseILNS0_5TraitE0EJlN2xt14xrange_adaptorINS3_12placeholders5xtuphEllEENS4_IlS6_lEENS4_IllS6_EENS4_IlS6_S6_EENS4_IS6_lS6_EENS4_IS6_S6_lEENS4_IlllEENS4_IS6_S6_S6_EENS3_6xrangeIlEENS3_14xstepped_rangeIlEENS3_8xall_tagENS3_13xellipsis_tagENS3_12xnewaxis_tagEEEC2ILm0EJiEEENS_16in_place_index_tIXT_EEEDpOT0_, symObjAddr: 0x1463C, symBinAddr: 0x1000174C4, symSize: 0x44 }
  - { offsetInCU: 0x30549, offset: 0x30549, size: 0x8, addend: 0x0, symName: __ZN5mpark6detail15recursive_unionILNS0_5TraitE0ELm0EJlN2xt14xrange_adaptorINS3_12placeholders5xtuphEllEENS4_IlS6_lEENS4_IllS6_EENS4_IlS6_S6_EENS4_IS6_lS6_EENS4_IS6_S6_lEENS4_IlllEENS4_IS6_S6_S6_EENS3_6xrangeIlEENS3_14xstepped_rangeIlEENS3_8xall_tagENS3_13xellipsis_tagENS3_12xnewaxis_tagEEEC1IJiEEENS_16in_place_index_tILm0EEEDpOT_, symObjAddr: 0x14680, symBinAddr: 0x100017508, symSize: 0x34 }
  - { offsetInCU: 0x30598, offset: 0x30598, size: 0x8, addend: 0x0, symName: __ZN5mpark6detail15recursive_unionILNS0_5TraitE0ELm0EJlN2xt14xrange_adaptorINS3_12placeholders5xtuphEllEENS4_IlS6_lEENS4_IllS6_EENS4_IlS6_S6_EENS4_IS6_lS6_EENS4_IS6_S6_lEENS4_IlllEENS4_IS6_S6_S6_EENS3_6xrangeIlEENS3_14xstepped_rangeIlEENS3_8xall_tagENS3_13xellipsis_tagENS3_12xnewaxis_tagEEEC2IJiEEENS_16in_place_index_tILm0EEEDpOT_, symObjAddr: 0x146B4, symBinAddr: 0x10001753C, symSize: 0x40 }
  - { offsetInCU: 0x305F1, offset: 0x305F1, size: 0x8, addend: 0x0, symName: __ZN5mpark6detail3altILm0ElEC1IJiEEENS_10in_place_tEDpOT_, symObjAddr: 0x146F4, symBinAddr: 0x10001757C, symSize: 0x34 }
  - { offsetInCU: 0x30640, offset: 0x30640, size: 0x8, addend: 0x0, symName: __ZN5mpark6detail3altILm0ElEC2IJiEEENS_10in_place_tEDpOT_, symObjAddr: 0x14728, symBinAddr: 0x1000175B0, symSize: 0x40 }
  - { offsetInCU: 0x3068F, offset: 0x3068F, size: 0x8, addend: 0x0, symName: __ZNSt3__16vectorIN5mpark7variantIJlN2xt14xrange_adaptorINS3_12placeholders5xtuphEllEENS4_IlS6_lEENS4_IllS6_EENS4_IlS6_S6_EENS4_IS6_lS6_EENS4_IS6_S6_lEENS4_IlllEENS4_IS6_S6_S6_EENS3_6xrangeIlEENS3_14xstepped_rangeIlEENS3_8xall_tagENS3_13xellipsis_tagENS3_12xnewaxis_tagEEEENS_9allocatorISM_EEE17__destruct_at_endB8ue170006EPSM_, symObjAddr: 0x14768, symBinAddr: 0x1000175F0, symSize: 0x4C }
  - { offsetInCU: 0x306D3, offset: 0x306D3, size: 0x8, addend: 0x0, symName: __ZNSt3__16vectorIN5mpark7variantIJlN2xt14xrange_adaptorINS3_12placeholders5xtuphEllEENS4_IlS6_lEENS4_IllS6_EENS4_IlS6_S6_EENS4_IS6_lS6_EENS4_IS6_S6_lEENS4_IlllEENS4_IS6_S6_S6_EENS3_6xrangeIlEENS3_14xstepped_rangeIlEENS3_8xall_tagENS3_13xellipsis_tagENS3_12xnewaxis_tagEEEENS_9allocatorISM_EEE22__base_destruct_at_endB8ue170006EPSM_, symObjAddr: 0x147B4, symBinAddr: 0x10001763C, symSize: 0x8C }
  - { offsetInCU: 0x30717, offset: 0x30717, size: 0x8, addend: 0x0, symName: __ZNKSt3__16vectorIN5mpark7variantIJlN2xt14xrange_adaptorINS3_12placeholders5xtuphEllEENS4_IlS6_lEENS4_IllS6_EENS4_IlS6_S6_EENS4_IS6_lS6_EENS4_IS6_S6_lEENS4_IlllEENS4_IS6_S6_S6_EENS3_6xrangeIlEENS3_14xstepped_rangeIlEENS3_8xall_tagENS3_13xellipsis_tagENS3_12xnewaxis_tagEEEENS_9allocatorISM_EEE17__annotate_shrinkB8ue170006Em, symObjAddr: 0x14840, symBinAddr: 0x1000176C8, symSize: 0xB4 }
  - { offsetInCU: 0x3074C, offset: 0x3074C, size: 0x8, addend: 0x0, symName: __ZN2xt13xstrided_viewIRKNS_16xarray_containerINS_7uvectorIdNSt3__19allocatorIdEEEELNS_11layout_typeE2ENS_7svectorImLm4ENS4_ImEELb1EEENS_22xtensor_expression_tagEEESA_LS7_0ENS_6detail20inner_storage_getterISE_EEED2Ev, symObjAddr: 0x148F4, symBinAddr: 0x10001777C, symSize: 0x38 }
  - { offsetInCU: 0x30778, offset: 0x30778, size: 0x8, addend: 0x0, symName: __ZN2xt18xstrided_view_baseINS_13xstrided_viewIRKNS_16xarray_containerINS_7uvectorIdNSt3__19allocatorIdEEEELNS_11layout_typeE2ENS_7svectorImLm4ENS5_ImEELb1EEENS_22xtensor_expression_tagEEESB_LS8_0ENS_6detail20inner_storage_getterISF_EEEEED2Ev, symObjAddr: 0x1492C, symBinAddr: 0x1000177B4, symSize: 0x48 }
  - { offsetInCU: 0x307A4, offset: 0x307A4, size: 0x8, addend: 0x0, symName: __ZN2xt14xview_semanticINS_13xstrided_viewIRKNS_16xarray_containerINS_7uvectorIdNSt3__19allocatorIdEEEELNS_11layout_typeE2ENS_7svectorImLm4ENS5_ImEELb1EEENS_22xtensor_expression_tagEEESB_LS8_0ENS_6detail20inner_storage_getterISF_EEEEED2Ev, symObjAddr: 0x14974, symBinAddr: 0x1000177FC, symSize: 0x2C }
  - { offsetInCU: 0x307CE, offset: 0x307CE, size: 0x8, addend: 0x0, symName: __ZN2xt14xsemantic_baseINS_13xstrided_viewIRKNS_16xarray_containerINS_7uvectorIdNSt3__19allocatorIdEEEELNS_11layout_typeE2ENS_7svectorImLm4ENS5_ImEELb1EEENS_22xtensor_expression_tagEEESB_LS8_0ENS_6detail20inner_storage_getterISF_EEEEED2Ev, symObjAddr: 0x149A0, symBinAddr: 0x100017828, symSize: 0x2C }
  - { offsetInCU: 0x307F8, offset: 0x307F8, size: 0x8, addend: 0x0, symName: __ZN2xt20xsharable_expressionINS_13xstrided_viewIRKNS_16xarray_containerINS_7uvectorIdNSt3__19allocatorIdEEEELNS_11layout_typeE2ENS_7svectorImLm4ENS5_ImEELb1EEENS_22xtensor_expression_tagEEESB_LS8_0ENS_6detail20inner_storage_getterISF_EEEEED2Ev, symObjAddr: 0x149CC, symBinAddr: 0x100017854, symSize: 0x2C }
  - { offsetInCU: 0x30822, offset: 0x30822, size: 0x8, addend: 0x0, symName: __ZNSt3__110shared_ptrIN2xt13xstrided_viewIRKNS1_16xarray_containerINS1_7uvectorIdNS_9allocatorIdEEEELNS1_11layout_typeE2ENS1_7svectorImLm4ENS5_ImEELb1EEENS1_22xtensor_expression_tagEEESB_LS8_0ENS1_6detail20inner_storage_getterISF_EEEEED1B8ue170006Ev, symObjAddr: 0x149F8, symBinAddr: 0x100017880, symSize: 0x2C }
  - { offsetInCU: 0x3084C, offset: 0x3084C, size: 0x8, addend: 0x0, symName: __ZNSt3__110shared_ptrIN2xt13xstrided_viewIRKNS1_16xarray_containerINS1_7uvectorIdNS_9allocatorIdEEEELNS1_11layout_typeE2ENS1_7svectorImLm4ENS5_ImEELb1EEENS1_22xtensor_expression_tagEEESB_LS8_0ENS1_6detail20inner_storage_getterISF_EEEEED2B8ue170006Ev, symObjAddr: 0x14A24, symBinAddr: 0x1000178AC, symSize: 0x54 }
  - { offsetInCU: 0x30876, offset: 0x30876, size: 0x8, addend: 0x0, symName: __ZNKSt3__16vectorIdNS_9allocatorIdEEE6cbeginB8ue170006Ev, symObjAddr: 0x14A78, symBinAddr: 0x100017900, symSize: 0x2C }
  - { offsetInCU: 0x3089C, offset: 0x3089C, size: 0x8, addend: 0x0, symName: __ZNKSt3__16vectorIdNS_9allocatorIdEEE5beginB8ue170006Ev, symObjAddr: 0x14AA4, symBinAddr: 0x10001792C, symSize: 0x30 }
  - { offsetInCU: 0x308C4, offset: 0x308C4, size: 0x8, addend: 0x0, symName: __ZNKSt3__16vectorIdNS_9allocatorIdEEE11__make_iterB8ue170006EPKd, symObjAddr: 0x14AD4, symBinAddr: 0x10001795C, symSize: 0x30 }
  - { offsetInCU: 0x308F9, offset: 0x308F9, size: 0x8, addend: 0x0, symName: __ZNSt3__111__wrap_iterIPKdEC1B8ue170006ES2_, symObjAddr: 0x14B04, symBinAddr: 0x10001798C, symSize: 0x34 }
  - { offsetInCU: 0x30931, offset: 0x30931, size: 0x8, addend: 0x0, symName: __ZNSt3__111__wrap_iterIPKdEC2B8ue170006ES2_, symObjAddr: 0x14B38, symBinAddr: 0x1000179C0, symSize: 0x20 }
  - { offsetInCU: 0x30969, offset: 0x30969, size: 0x8, addend: 0x0, symName: __ZNSt3__16vectorIN5mpark7variantIJlN2xt14xrange_adaptorINS3_12placeholders5xtuphEllEENS4_IlS6_lEENS4_IllS6_EENS4_IlS6_S6_EENS4_IS6_lS6_EENS4_IS6_S6_lEENS4_IlllEENS4_IS6_S6_S6_EENS3_6xrangeIlEENS3_14xstepped_rangeIlEENS3_8xall_tagENS3_13xellipsis_tagENS3_12xnewaxis_tagEEEENS_9allocatorISM_EEE7__clearB8ue170006Ev, symObjAddr: 0x14B58, symBinAddr: 0x1000179E0, symSize: 0x28 }
  - { offsetInCU: 0x3098F, offset: 0x3098F, size: 0x8, addend: 0x0, symName: __ZN2xt6detail7printerINS_16xarray_containerINS_7uvectorIdNSt3__19allocatorIdEEEELNS_11layout_typeE2ENS_7svectorImLm4ENS5_ImEELb1EEENS_22xtensor_expression_tagEEEvE10print_nextERNS4_13basic_ostreamIcNS4_11char_traitsIcEEEE, symObjAddr: 0x14B80, symBinAddr: 0x100017A08, symSize: 0x3E4 }
  - { offsetInCU: 0x30A1F, offset: 0x30A1F, size: 0x8, addend: 0x0, symName: __Z5floorB8ue170006ImENSt3__19enable_ifIXsr3std11is_integralIT_EE5valueEdE4typeES2_, symObjAddr: 0x14F64, symBinAddr: 0x100017DEC, symSize: 0x1C }
  - { offsetInCU: 0x30B31, offset: 0x30B31, size: 0x8, addend: 0x0, symName: __ZNSt3__118basic_stringstreamIcNS_11char_traitsIcEENS_9allocatorIcEEEC1B8ue170006Ev, symObjAddr: 0x15000, symBinAddr: 0x100017E88, symSize: 0x104 }
  - { offsetInCU: 0x30B5B, offset: 0x30B5B, size: 0x8, addend: 0x0, symName: __ZNSt3__113basic_ostreamIcNS_11char_traitsIcEEElsB8ue170006EPFRNS_8ios_baseES5_E, symObjAddr: 0x15104, symBinAddr: 0x100017F8C, symSize: 0x40 }
  - { offsetInCU: 0x30B8F, offset: 0x30B8F, size: 0x8, addend: 0x0, symName: __ZNKSt3__111__wrap_iterIPKdEdeB8ue170006Ev, symObjAddr: 0x15174, symBinAddr: 0x100017FFC, symSize: 0x18 }
  - { offsetInCU: 0x30BB5, offset: 0x30BB5, size: 0x8, addend: 0x0, symName: __ZNKSt3__118basic_stringstreamIcNS_11char_traitsIcEENS_9allocatorIcEEE3strB8ue170006Ev, symObjAddr: 0x1518C, symBinAddr: 0x100018014, symSize: 0x30 }
  - { offsetInCU: 0x30BDB, offset: 0x30BDB, size: 0x8, addend: 0x0, symName: __ZNSt3__112basic_stringIcNS_11char_traitsIcEENS_9allocatorIcEEE6rbeginB8ue170006Ev, symObjAddr: 0x151BC, symBinAddr: 0x100018044, symSize: 0x44 }
  - { offsetInCU: 0x30C01, offset: 0x30C01, size: 0x8, addend: 0x0, symName: __ZNKSt3__116reverse_iteratorINS_11__wrap_iterIPcEEEdeB8ue170006Ev, symObjAddr: 0x15200, symBinAddr: 0x100018088, symSize: 0x34 }
  - { offsetInCU: 0x30C35, offset: 0x30C35, size: 0x8, addend: 0x0, symName: __ZNSt3__116reverse_iteratorINS_11__wrap_iterIPcEEEppB8ue170006Ev, symObjAddr: 0x15234, symBinAddr: 0x1000180BC, symSize: 0x30 }
  - { offsetInCU: 0x30C60, offset: 0x30C60, size: 0x8, addend: 0x0, symName: __ZNSt3__118basic_stringstreamIcNS_11char_traitsIcEENS_9allocatorIcEEED1Ev, symObjAddr: 0x15264, symBinAddr: 0x1000180EC, symSize: 0x40 }
  - { offsetInCU: 0x30C8D, offset: 0x30C8D, size: 0x8, addend: 0x0, symName: __ZNSt3__112basic_stringIcNS_11char_traitsIcEENS_9allocatorIcEEEixB8ue170006Em, symObjAddr: 0x152D4, symBinAddr: 0x10001815C, symSize: 0x30 }
  - { offsetInCU: 0x30CC2, offset: 0x30CC2, size: 0x8, addend: 0x0, symName: __ZNKSt3__112basic_stringIcNS_11char_traitsIcEENS_9allocatorIcEEE4sizeB8ue170006Ev, symObjAddr: 0x15304, symBinAddr: 0x10001818C, symSize: 0x54 }
  - { offsetInCU: 0x30CE8, offset: 0x30CE8, size: 0x8, addend: 0x0, symName: __ZNSt3__111__wrap_iterIPKdEppB8ue170006Ev, symObjAddr: 0x15358, symBinAddr: 0x1000181E0, symSize: 0x20 }
  - { offsetInCU: 0x30D0E, offset: 0x30D0E, size: 0x8, addend: 0x0, symName: __ZNSt3__19basic_iosIcNS_11char_traitsIcEEEC2B8ue170006Ev, symObjAddr: 0x15378, symBinAddr: 0x100018200, symSize: 0x44 }
  - { offsetInCU: 0x30D38, offset: 0x30D38, size: 0x8, addend: 0x0, symName: __ZNSt3__114basic_iostreamIcNS_11char_traitsIcEEEC2B8ue170006EPNS_15basic_streambufIcS2_EE, symObjAddr: 0x153BC, symBinAddr: 0x100018244, symSize: 0xAC }
  - { offsetInCU: 0x30D7E, offset: 0x30D7E, size: 0x8, addend: 0x0, symName: __ZNSt3__115basic_stringbufIcNS_11char_traitsIcEENS_9allocatorIcEEEC1B8ue170006Ej, symObjAddr: 0x15468, symBinAddr: 0x1000182F0, symSize: 0x34 }
  - { offsetInCU: 0x30DB7, offset: 0x30DB7, size: 0x8, addend: 0x0, symName: __ZNSt3__18ios_baseC2B8ue170006Ev, symObjAddr: 0x1549C, symBinAddr: 0x100018324, symSize: 0x24 }
  - { offsetInCU: 0x30DE1, offset: 0x30DE1, size: 0x8, addend: 0x0, symName: __ZNSt3__113basic_istreamIcNS_11char_traitsIcEEEC2B8ue170006EPNS_15basic_streambufIcS2_EE, symObjAddr: 0x154C0, symBinAddr: 0x100018348, symSize: 0x64 }
  - { offsetInCU: 0x30E26, offset: 0x30E26, size: 0x8, addend: 0x0, symName: __ZNSt3__113basic_ostreamIcNS_11char_traitsIcEEEC2B8ue170006Ev, symObjAddr: 0x15524, symBinAddr: 0x1000183AC, symSize: 0x34 }
  - { offsetInCU: 0x30E5D, offset: 0x30E5D, size: 0x8, addend: 0x0, symName: __ZNSt3__19basic_iosIcNS_11char_traitsIcEEE4initB8ue170006EPNS_15basic_streambufIcS2_EE, symObjAddr: 0x15558, symBinAddr: 0x1000183E0, symSize: 0x44 }
  - { offsetInCU: 0x30E94, offset: 0x30E94, size: 0x8, addend: 0x0, symName: __ZNSt3__115basic_stringbufIcNS_11char_traitsIcEENS_9allocatorIcEEEC2B8ue170006Ej, symObjAddr: 0x1559C, symBinAddr: 0x100018424, symSize: 0x60 }
  - { offsetInCU: 0x30ECD, offset: 0x30ECD, size: 0x8, addend: 0x0, symName: __ZNSt3__112basic_stringIcNS_11char_traitsIcEENS_9allocatorIcEEEC1B8ue170006Ev, symObjAddr: 0x155FC, symBinAddr: 0x100018484, symSize: 0x2C }
  - { offsetInCU: 0x30EF7, offset: 0x30EF7, size: 0x8, addend: 0x0, symName: __ZNSt3__112basic_stringIcNS_11char_traitsIcEENS_9allocatorIcEEEC2B8ue170006Ev, symObjAddr: 0x15628, symBinAddr: 0x1000184B0, symSize: 0x48 }
  - { offsetInCU: 0x30F21, offset: 0x30F21, size: 0x8, addend: 0x0, symName: __ZNSt3__112basic_stringIcNS_11char_traitsIcEENS_9allocatorIcEEE14__default_initB8ue170006Ev, symObjAddr: 0x15670, symBinAddr: 0x1000184F8, symSize: 0x40 }
  - { offsetInCU: 0x30F47, offset: 0x30F47, size: 0x8, addend: 0x0, symName: __ZNSt3__117__compressed_pairINS_12basic_stringIcNS_11char_traitsIcEENS_9allocatorIcEEE5__repES5_E5firstB8ue170006Ev, symObjAddr: 0x156B0, symBinAddr: 0x100018538, symSize: 0x24 }
  - { offsetInCU: 0x30F6D, offset: 0x30F6D, size: 0x8, addend: 0x0, symName: __ZNSt3__122__compressed_pair_elemINS_12basic_stringIcNS_11char_traitsIcEENS_9allocatorIcEEE5__repELi0ELb0EE5__getB8ue170006Ev, symObjAddr: 0x156D4, symBinAddr: 0x10001855C, symSize: 0x14 }
  - { offsetInCU: 0x30F93, offset: 0x30F93, size: 0x8, addend: 0x0, symName: __ZNSt3__18ios_base4setfB8ue170006Ejj, symObjAddr: 0x156E8, symBinAddr: 0x100018570, symSize: 0x5C }
  - { offsetInCU: 0x30FE8, offset: 0x30FE8, size: 0x8, addend: 0x0, symName: __ZNSt3__18ios_base6unsetfB8ue170006Ej, symObjAddr: 0x15744, symBinAddr: 0x1000185CC, symSize: 0x28 }
  - { offsetInCU: 0x3101F, offset: 0x3101F, size: 0x8, addend: 0x0, symName: __ZNSt3__112basic_stringIcNS_11char_traitsIcEENS_9allocatorIcEEE3endB8ue170006Ev, symObjAddr: 0x1576C, symBinAddr: 0x1000185F4, symSize: 0x64 }
  - { offsetInCU: 0x31045, offset: 0x31045, size: 0x8, addend: 0x0, symName: __ZNSt3__116reverse_iteratorINS_11__wrap_iterIPcEEEC1B8ue170006ES3_, symObjAddr: 0x157D0, symBinAddr: 0x100018658, symSize: 0x34 }
  - { offsetInCU: 0x3107D, offset: 0x3107D, size: 0x8, addend: 0x0, symName: __ZNSt3__112basic_stringIcNS_11char_traitsIcEENS_9allocatorIcEEE15__make_iteratorB8ue170006EPc, symObjAddr: 0x15804, symBinAddr: 0x10001868C, symSize: 0x30 }
  - { offsetInCU: 0x310B2, offset: 0x310B2, size: 0x8, addend: 0x0, symName: __ZNSt3__112basic_stringIcNS_11char_traitsIcEENS_9allocatorIcEEE13__get_pointerB8ue170006Ev, symObjAddr: 0x15834, symBinAddr: 0x1000186BC, symSize: 0x54 }
  - { offsetInCU: 0x310D8, offset: 0x310D8, size: 0x8, addend: 0x0, symName: __ZNSt3__111__wrap_iterIPcEC1B8ue170006ES1_, symObjAddr: 0x15888, symBinAddr: 0x100018710, symSize: 0x34 }
  - { offsetInCU: 0x31110, offset: 0x31110, size: 0x8, addend: 0x0, symName: __ZNSt3__111__wrap_iterIPcEC2B8ue170006ES1_, symObjAddr: 0x158BC, symBinAddr: 0x100018744, symSize: 0x20 }
  - { offsetInCU: 0x31148, offset: 0x31148, size: 0x8, addend: 0x0, symName: __ZNSt3__112basic_stringIcNS_11char_traitsIcEENS_9allocatorIcEEE18__get_long_pointerB8ue170006Ev, symObjAddr: 0x158DC, symBinAddr: 0x100018764, symSize: 0x28 }
  - { offsetInCU: 0x3116E, offset: 0x3116E, size: 0x8, addend: 0x0, symName: __ZNSt3__112basic_stringIcNS_11char_traitsIcEENS_9allocatorIcEEE19__get_short_pointerB8ue170006Ev, symObjAddr: 0x15904, symBinAddr: 0x10001878C, symSize: 0x28 }
  - { offsetInCU: 0x31194, offset: 0x31194, size: 0x8, addend: 0x0, symName: __ZNSt3__114pointer_traitsIPcE10pointer_toB8ue170006ERc, symObjAddr: 0x1592C, symBinAddr: 0x1000187B4, symSize: 0x14 }
  - { offsetInCU: 0x311B7, offset: 0x311B7, size: 0x8, addend: 0x0, symName: __ZNSt3__116reverse_iteratorINS_11__wrap_iterIPcEEEC2B8ue170006ES3_, symObjAddr: 0x15940, symBinAddr: 0x1000187C8, symSize: 0x28 }
  - { offsetInCU: 0x311EF, offset: 0x311EF, size: 0x8, addend: 0x0, symName: __ZNSt3__111__wrap_iterIPcEmmB8ue170006Ev, symObjAddr: 0x15968, symBinAddr: 0x1000187F0, symSize: 0x20 }
  - { offsetInCU: 0x31215, offset: 0x31215, size: 0x8, addend: 0x0, symName: __ZNKSt3__111__wrap_iterIPcEdeB8ue170006Ev, symObjAddr: 0x15988, symBinAddr: 0x100018810, symSize: 0x18 }
  - { offsetInCU: 0x3123B, offset: 0x3123B, size: 0x8, addend: 0x0, symName: __ZNSt3__118basic_stringstreamIcNS_11char_traitsIcEENS_9allocatorIcEEED2Ev, symObjAddr: 0x159A0, symBinAddr: 0x100018828, symSize: 0x6C }
  - { offsetInCU: 0x31275, offset: 0x31275, size: 0x8, addend: 0x0, symName: __ZThn16_NSt3__118basic_stringstreamIcNS_11char_traitsIcEENS_9allocatorIcEEED1Ev, symObjAddr: 0x15A0C, symBinAddr: 0x100018894, symSize: 0x1C }
  - { offsetInCU: 0x3128C, offset: 0x3128C, size: 0x8, addend: 0x0, symName: __ZTv0_n24_NSt3__118basic_stringstreamIcNS_11char_traitsIcEENS_9allocatorIcEEED1Ev, symObjAddr: 0x15A28, symBinAddr: 0x1000188B0, symSize: 0x28 }
  - { offsetInCU: 0x312A8, offset: 0x312A8, size: 0x8, addend: 0x0, symName: __ZNSt3__115basic_stringbufIcNS_11char_traitsIcEENS_9allocatorIcEEED1Ev, symObjAddr: 0x15A50, symBinAddr: 0x1000188D8, symSize: 0x2C }
  - { offsetInCU: 0x312D5, offset: 0x312D5, size: 0x8, addend: 0x0, symName: __ZNSt3__115basic_stringbufIcNS_11char_traitsIcEENS_9allocatorIcEEED2Ev, symObjAddr: 0x15A7C, symBinAddr: 0x100018904, symSize: 0x48 }
  - { offsetInCU: 0x31302, offset: 0x31302, size: 0x8, addend: 0x0, symName: __ZNKSt3__112basic_stringIcNS_11char_traitsIcEENS_9allocatorIcEEE15__get_long_sizeB8ue170006Ev, symObjAddr: 0x15AC4, symBinAddr: 0x10001894C, symSize: 0x28 }
  - { offsetInCU: 0x31328, offset: 0x31328, size: 0x8, addend: 0x0, symName: __ZNKSt3__112basic_stringIcNS_11char_traitsIcEENS_9allocatorIcEEE16__get_short_sizeB8ue170006Ev, symObjAddr: 0x15AEC, symBinAddr: 0x100018974, symSize: 0x34 }
  - { offsetInCU: 0x3134E, offset: 0x3134E, size: 0x8, addend: 0x0, symName: __ZNSt3__16vectorIN5mpark7variantIJlN2xt14xrange_adaptorINS3_12placeholders5xtuphEllEENS4_IlS6_lEENS4_IllS6_EENS4_IlS6_S6_EENS4_IS6_lS6_EENS4_IS6_S6_lEENS4_IlllEENS4_IS6_S6_S6_EENS3_6xrangeIlEENS3_14xstepped_rangeIlEENS3_8xall_tagENS3_13xellipsis_tagENS3_12xnewaxis_tagEEEENS_9allocatorISM_EEED2B8ue170006Ev, symObjAddr: 0x15B20, symBinAddr: 0x1000189A8, symSize: 0x44 }
  - { offsetInCU: 0x31378, offset: 0x31378, size: 0x8, addend: 0x0, symName: __ZNSt3__16vectorIN5mpark7variantIJlN2xt14xrange_adaptorINS3_12placeholders5xtuphEllEENS4_IlS6_lEENS4_IllS6_EENS4_IlS6_S6_EENS4_IS6_lS6_EENS4_IS6_S6_lEENS4_IlllEENS4_IS6_S6_S6_EENS3_6xrangeIlEENS3_14xstepped_rangeIlEENS3_8xall_tagENS3_13xellipsis_tagENS3_12xnewaxis_tagEEEENS_9allocatorISM_EEE16__destroy_vectorC1B8ue170006ERSP_, symObjAddr: 0x15B64, symBinAddr: 0x1000189EC, symSize: 0x34 }
  - { offsetInCU: 0x313B1, offset: 0x313B1, size: 0x8, addend: 0x0, symName: __ZNSt3__16vectorIN5mpark7variantIJlN2xt14xrange_adaptorINS3_12placeholders5xtuphEllEENS4_IlS6_lEENS4_IllS6_EENS4_IlS6_S6_EENS4_IS6_lS6_EENS4_IS6_S6_lEENS4_IlllEENS4_IS6_S6_S6_EENS3_6xrangeIlEENS3_14xstepped_rangeIlEENS3_8xall_tagENS3_13xellipsis_tagENS3_12xnewaxis_tagEEEENS_9allocatorISM_EEE16__destroy_vectorclB8ue170006Ev, symObjAddr: 0x15B98, symBinAddr: 0x100018A20, symSize: 0x90 }
  - { offsetInCU: 0x313D7, offset: 0x313D7, size: 0x8, addend: 0x0, symName: __ZNSt3__16vectorIN5mpark7variantIJlN2xt14xrange_adaptorINS3_12placeholders5xtuphEllEENS4_IlS6_lEENS4_IllS6_EENS4_IlS6_S6_EENS4_IS6_lS6_EENS4_IS6_S6_lEENS4_IlllEENS4_IS6_S6_S6_EENS3_6xrangeIlEENS3_14xstepped_rangeIlEENS3_8xall_tagENS3_13xellipsis_tagENS3_12xnewaxis_tagEEEENS_9allocatorISM_EEE16__destroy_vectorC2B8ue170006ERSP_, symObjAddr: 0x15C28, symBinAddr: 0x100018AB0, symSize: 0x20 }
  - { offsetInCU: 0x31410, offset: 0x31410, size: 0x8, addend: 0x0, symName: __ZN2xt6detail7printerINS_16xarray_containerINS_7uvectorIdNSt3__19allocatorIdEEEELNS_11layout_typeE2ENS_7svectorImLm4ENS5_ImEELb1EEENS_22xtensor_expression_tagEEEvED2Ev, symObjAddr: 0x15C48, symBinAddr: 0x100018AD0, symSize: 0x30 }
  - { offsetInCU: 0x3143D, offset: 0x3143D, size: 0x8, addend: 0x0, symName: __ZNSt3__16vectorIdNS_9allocatorIdEEED1B8ue170006Ev, symObjAddr: 0x15C78, symBinAddr: 0x100018B00, symSize: 0x2C }
  - { offsetInCU: 0x31467, offset: 0x31467, size: 0x8, addend: 0x0, symName: __ZNSt3__16vectorIdNS_9allocatorIdEEED2B8ue170006Ev, symObjAddr: 0x15CA4, symBinAddr: 0x100018B2C, symSize: 0x44 }
  - { offsetInCU: 0x31491, offset: 0x31491, size: 0x8, addend: 0x0, symName: __ZNSt3__16vectorIdNS_9allocatorIdEEE16__destroy_vectorC1B8ue170006ERS3_, symObjAddr: 0x15CE8, symBinAddr: 0x100018B70, symSize: 0x34 }
  - { offsetInCU: 0x314CA, offset: 0x314CA, size: 0x8, addend: 0x0, symName: __ZNSt3__16vectorIdNS_9allocatorIdEEE16__destroy_vectorclB8ue170006Ev, symObjAddr: 0x15D1C, symBinAddr: 0x100018BA4, symSize: 0x90 }
  - { offsetInCU: 0x314F0, offset: 0x314F0, size: 0x8, addend: 0x0, symName: __ZNSt3__16vectorIdNS_9allocatorIdEEE16__destroy_vectorC2B8ue170006ERS3_, symObjAddr: 0x15DAC, symBinAddr: 0x100018C34, symSize: 0x20 }
  - { offsetInCU: 0x31529, offset: 0x31529, size: 0x8, addend: 0x0, symName: __ZNSt3__16vectorIdNS_9allocatorIdEEE7__clearB8ue170006Ev, symObjAddr: 0x15DCC, symBinAddr: 0x100018C54, symSize: 0x28 }
  - { offsetInCU: 0x3154F, offset: 0x3154F, size: 0x8, addend: 0x0, symName: __ZNSt3__16vectorIdNS_9allocatorIdEEE22__base_destruct_at_endB8ue170006EPd, symObjAddr: 0x15DF4, symBinAddr: 0x100018C7C, symSize: 0x8C }
  - { offsetInCU: 0x31593, offset: 0x31593, size: 0x8, addend: 0x0, symName: __ZN2xt6detail14fmtflags_guardINSt3__113basic_ostreamIcNS2_11char_traitsIcEEEEED2Ev, symObjAddr: 0x15E80, symBinAddr: 0x100018D08, symSize: 0x48 }
  - { offsetInCU: 0x315BD, offset: 0x315BD, size: 0x8, addend: 0x0, symName: __ZNSt3__18ios_base5flagsB8ue170006Ej, symObjAddr: 0x15EC8, symBinAddr: 0x100018D50, symSize: 0x2C }
...
